
MCU.elf:     file format elf32-littlearm

Sections:
Idx Name          Size      VMA       LMA       File off  Algn
  0 .isr_vector   0000010c  08000000  08000000  00001000  2**0
                  CONTENTS, ALLOC, LOAD, READONLY, DATA
  1 .text         00009038  08000110  08000110  00001110  2**4
                  CONTENTS, ALLOC, LOAD, READONLY, CODE
  2 .rodata       00000f18  08009148  08009148  0000a148  2**3
                  CONTENTS, ALLOC, LOAD, READONLY, DATA
  3 .ARM.extab    00000000  0800a060  0800a060  0000c1d8  2**0
                  CONTENTS, READONLY
  4 .ARM          00000008  0800a060  0800a060  0000b060  2**2
                  CONTENTS, ALLOC, LOAD, READONLY, DATA
  5 .preinit_array 00000000  0800a068  0800a068  0000c1d8  2**0
                  CONTENTS, ALLOC, LOAD, DATA
  6 .init_array   00000004  0800a068  0800a068  0000b068  2**2
                  CONTENTS, ALLOC, LOAD, READONLY, DATA
  7 .fini_array   00000004  0800a06c  0800a06c  0000b06c  2**2
                  CONTENTS, ALLOC, LOAD, READONLY, DATA
  8 .data         000001d8  20000000  0800a070  0000c000  2**2
                  CONTENTS, ALLOC, LOAD, DATA
  9 .bss          00001f2c  200001d8  0800a248  0000c1d8  2**2
                  ALLOC
 10 ._user_heap_stack 00000604  20002104  0800a248  0000d104  2**0
                  ALLOC
 11 .ARM.attributes 00000029  00000000  00000000  0000c1d8  2**0
                  CONTENTS, READONLY
 12 .comment      00000043  00000000  00000000  0000c201  2**0
                  CONTENTS, READONLY
 13 .debug_frame  0000182c  00000000  00000000  0000c244  2**2
                  CONTENTS, READONLY, DEBUGGING, OCTETS

Disassembly of section .text:

08000110 <__do_global_dtors_aux>:
 8000110:	b510      	push	{r4, lr}
 8000112:	4c05      	ldr	r4, [pc, #20]	@ (8000128 <__do_global_dtors_aux+0x18>)
 8000114:	7823      	ldrb	r3, [r4, #0]
 8000116:	b933      	cbnz	r3, 8000126 <__do_global_dtors_aux+0x16>
 8000118:	4b04      	ldr	r3, [pc, #16]	@ (800012c <__do_global_dtors_aux+0x1c>)
 800011a:	b113      	cbz	r3, 8000122 <__do_global_dtors_aux+0x12>
 800011c:	4804      	ldr	r0, [pc, #16]	@ (8000130 <__do_global_dtors_aux+0x20>)
 800011e:	f3af 8000 	nop.w
 8000122:	2301      	movs	r3, #1
 8000124:	7023      	strb	r3, [r4, #0]
 8000126:	bd10      	pop	{r4, pc}
 8000128:	200001d8 	.word	0x200001d8
 800012c:	00000000 	.word	0x00000000
 8000130:	08009130 	.word	0x08009130

08000134 <frame_dummy>:
 8000134:	b508      	push	{r3, lr}
 8000136:	4b03      	ldr	r3, [pc, #12]	@ (8000144 <frame_dummy+0x10>)
 8000138:	b11b      	cbz	r3, 8000142 <frame_dummy+0xe>
 800013a:	4903      	ldr	r1, [pc, #12]	@ (8000148 <frame_dummy+0x14>)
 800013c:	4803      	ldr	r0, [pc, #12]	@ (800014c <frame_dummy+0x18>)
 800013e:	f3af 8000 	nop.w
 8000142:	bd08      	pop	{r3, pc}
 8000144:	00000000 	.word	0x00000000
 8000148:	200001dc 	.word	0x200001dc
 800014c:	08009130 	.word	0x08009130

08000150 <strcmp>:
 8000150:	f810 2b01 	ldrb.w	r2, [r0], #1
 8000154:	f811 3b01 	ldrb.w	r3, [r1], #1
 8000158:	2a01      	cmp	r2, #1
 800015a:	bf28      	it	cs
 800015c:	429a      	cmpcs	r2, r3
 800015e:	d0f7      	beq.n	8000150 <strcmp>
 8000160:	1ad0      	subs	r0, r2, r3
 8000162:	4770      	bx	lr

08000164 <strlen>:
 8000164:	4603      	mov	r3, r0
 8000166:	f813 2b01 	ldrb.w	r2, [r3], #1
 800016a:	2a00      	cmp	r2, #0
 800016c:	d1fb      	bne.n	8000166 <strlen+0x2>
 800016e:	1a18      	subs	r0, r3, r0
 8000170:	3801      	subs	r0, #1
 8000172:	4770      	bx	lr

08000174 <__aeabi_drsub>:
 8000174:	f081 4100 	eor.w	r1, r1, #2147483648	@ 0x80000000
 8000178:	e002      	b.n	8000180 <__adddf3>
 800017a:	bf00      	nop

0800017c <__aeabi_dsub>:
 800017c:	f083 4300 	eor.w	r3, r3, #2147483648	@ 0x80000000

08000180 <__adddf3>:
 8000180:	b530      	push	{r4, r5, lr}
 8000182:	ea4f 0441 	mov.w	r4, r1, lsl #1
 8000186:	ea4f 0543 	mov.w	r5, r3, lsl #1
 800018a:	ea94 0f05 	teq	r4, r5
 800018e:	bf08      	it	eq
 8000190:	ea90 0f02 	teqeq	r0, r2
 8000194:	bf1f      	itttt	ne
 8000196:	ea54 0c00 	orrsne.w	ip, r4, r0
 800019a:	ea55 0c02 	orrsne.w	ip, r5, r2
 800019e:	ea7f 5c64 	mvnsne.w	ip, r4, asr #21
 80001a2:	ea7f 5c65 	mvnsne.w	ip, r5, asr #21
 80001a6:	f000 80e2 	beq.w	800036e <__adddf3+0x1ee>
 80001aa:	ea4f 5454 	mov.w	r4, r4, lsr #21
 80001ae:	ebd4 5555 	rsbs	r5, r4, r5, lsr #21
 80001b2:	bfb8      	it	lt
 80001b4:	426d      	neglt	r5, r5
 80001b6:	dd0c      	ble.n	80001d2 <__adddf3+0x52>
 80001b8:	442c      	add	r4, r5
 80001ba:	ea80 0202 	eor.w	r2, r0, r2
 80001be:	ea81 0303 	eor.w	r3, r1, r3
 80001c2:	ea82 0000 	eor.w	r0, r2, r0
 80001c6:	ea83 0101 	eor.w	r1, r3, r1
 80001ca:	ea80 0202 	eor.w	r2, r0, r2
 80001ce:	ea81 0303 	eor.w	r3, r1, r3
 80001d2:	2d36      	cmp	r5, #54	@ 0x36
 80001d4:	bf88      	it	hi
 80001d6:	bd30      	pophi	{r4, r5, pc}
 80001d8:	f011 4f00 	tst.w	r1, #2147483648	@ 0x80000000
 80001dc:	ea4f 3101 	mov.w	r1, r1, lsl #12
 80001e0:	f44f 1c80 	mov.w	ip, #1048576	@ 0x100000
 80001e4:	ea4c 3111 	orr.w	r1, ip, r1, lsr #12
 80001e8:	d002      	beq.n	80001f0 <__adddf3+0x70>
 80001ea:	4240      	negs	r0, r0
 80001ec:	eb61 0141 	sbc.w	r1, r1, r1, lsl #1
 80001f0:	f013 4f00 	tst.w	r3, #2147483648	@ 0x80000000
 80001f4:	ea4f 3303 	mov.w	r3, r3, lsl #12
 80001f8:	ea4c 3313 	orr.w	r3, ip, r3, lsr #12
 80001fc:	d002      	beq.n	8000204 <__adddf3+0x84>
 80001fe:	4252      	negs	r2, r2
 8000200:	eb63 0343 	sbc.w	r3, r3, r3, lsl #1
 8000204:	ea94 0f05 	teq	r4, r5
 8000208:	f000 80a7 	beq.w	800035a <__adddf3+0x1da>
 800020c:	f1a4 0401 	sub.w	r4, r4, #1
 8000210:	f1d5 0e20 	rsbs	lr, r5, #32
 8000214:	db0d      	blt.n	8000232 <__adddf3+0xb2>
 8000216:	fa02 fc0e 	lsl.w	ip, r2, lr
 800021a:	fa22 f205 	lsr.w	r2, r2, r5
 800021e:	1880      	adds	r0, r0, r2
 8000220:	f141 0100 	adc.w	r1, r1, #0
 8000224:	fa03 f20e 	lsl.w	r2, r3, lr
 8000228:	1880      	adds	r0, r0, r2
 800022a:	fa43 f305 	asr.w	r3, r3, r5
 800022e:	4159      	adcs	r1, r3
 8000230:	e00e      	b.n	8000250 <__adddf3+0xd0>
 8000232:	f1a5 0520 	sub.w	r5, r5, #32
 8000236:	f10e 0e20 	add.w	lr, lr, #32
 800023a:	2a01      	cmp	r2, #1
 800023c:	fa03 fc0e 	lsl.w	ip, r3, lr
 8000240:	bf28      	it	cs
 8000242:	f04c 0c02 	orrcs.w	ip, ip, #2
 8000246:	fa43 f305 	asr.w	r3, r3, r5
 800024a:	18c0      	adds	r0, r0, r3
 800024c:	eb51 71e3 	adcs.w	r1, r1, r3, asr #31
 8000250:	f001 4500 	and.w	r5, r1, #2147483648	@ 0x80000000
 8000254:	d507      	bpl.n	8000266 <__adddf3+0xe6>
 8000256:	f04f 0e00 	mov.w	lr, #0
 800025a:	f1dc 0c00 	rsbs	ip, ip, #0
 800025e:	eb7e 0000 	sbcs.w	r0, lr, r0
 8000262:	eb6e 0101 	sbc.w	r1, lr, r1
 8000266:	f5b1 1f80 	cmp.w	r1, #1048576	@ 0x100000
 800026a:	d31b      	bcc.n	80002a4 <__adddf3+0x124>
 800026c:	f5b1 1f00 	cmp.w	r1, #2097152	@ 0x200000
 8000270:	d30c      	bcc.n	800028c <__adddf3+0x10c>
 8000272:	0849      	lsrs	r1, r1, #1
 8000274:	ea5f 0030 	movs.w	r0, r0, rrx
 8000278:	ea4f 0c3c 	mov.w	ip, ip, rrx
 800027c:	f104 0401 	add.w	r4, r4, #1
 8000280:	ea4f 5244 	mov.w	r2, r4, lsl #21
 8000284:	f512 0f80 	cmn.w	r2, #4194304	@ 0x400000
 8000288:	f080 809a 	bcs.w	80003c0 <__adddf3+0x240>
 800028c:	f1bc 4f00 	cmp.w	ip, #2147483648	@ 0x80000000
 8000290:	bf08      	it	eq
 8000292:	ea5f 0c50 	movseq.w	ip, r0, lsr #1
 8000296:	f150 0000 	adcs.w	r0, r0, #0
 800029a:	eb41 5104 	adc.w	r1, r1, r4, lsl #20
 800029e:	ea41 0105 	orr.w	r1, r1, r5
 80002a2:	bd30      	pop	{r4, r5, pc}
 80002a4:	ea5f 0c4c 	movs.w	ip, ip, lsl #1
 80002a8:	4140      	adcs	r0, r0
 80002aa:	eb41 0101 	adc.w	r1, r1, r1
 80002ae:	3c01      	subs	r4, #1
 80002b0:	bf28      	it	cs
 80002b2:	f5b1 1f80 	cmpcs.w	r1, #1048576	@ 0x100000
 80002b6:	d2e9      	bcs.n	800028c <__adddf3+0x10c>
 80002b8:	f091 0f00 	teq	r1, #0
 80002bc:	bf04      	itt	eq
 80002be:	4601      	moveq	r1, r0
 80002c0:	2000      	moveq	r0, #0
 80002c2:	fab1 f381 	clz	r3, r1
 80002c6:	bf08      	it	eq
 80002c8:	3320      	addeq	r3, #32
 80002ca:	f1a3 030b 	sub.w	r3, r3, #11
 80002ce:	f1b3 0220 	subs.w	r2, r3, #32
 80002d2:	da0c      	bge.n	80002ee <__adddf3+0x16e>
 80002d4:	320c      	adds	r2, #12
 80002d6:	dd08      	ble.n	80002ea <__adddf3+0x16a>
 80002d8:	f102 0c14 	add.w	ip, r2, #20
 80002dc:	f1c2 020c 	rsb	r2, r2, #12
 80002e0:	fa01 f00c 	lsl.w	r0, r1, ip
 80002e4:	fa21 f102 	lsr.w	r1, r1, r2
 80002e8:	e00c      	b.n	8000304 <__adddf3+0x184>
 80002ea:	f102 0214 	add.w	r2, r2, #20
 80002ee:	bfd8      	it	le
 80002f0:	f1c2 0c20 	rsble	ip, r2, #32
 80002f4:	fa01 f102 	lsl.w	r1, r1, r2
 80002f8:	fa20 fc0c 	lsr.w	ip, r0, ip
 80002fc:	bfdc      	itt	le
 80002fe:	ea41 010c 	orrle.w	r1, r1, ip
 8000302:	4090      	lslle	r0, r2
 8000304:	1ae4      	subs	r4, r4, r3
 8000306:	bfa2      	ittt	ge
 8000308:	eb01 5104 	addge.w	r1, r1, r4, lsl #20
 800030c:	4329      	orrge	r1, r5
 800030e:	bd30      	popge	{r4, r5, pc}
 8000310:	ea6f 0404 	mvn.w	r4, r4
 8000314:	3c1f      	subs	r4, #31
 8000316:	da1c      	bge.n	8000352 <__adddf3+0x1d2>
 8000318:	340c      	adds	r4, #12
 800031a:	dc0e      	bgt.n	800033a <__adddf3+0x1ba>
 800031c:	f104 0414 	add.w	r4, r4, #20
 8000320:	f1c4 0220 	rsb	r2, r4, #32
 8000324:	fa20 f004 	lsr.w	r0, r0, r4
 8000328:	fa01 f302 	lsl.w	r3, r1, r2
 800032c:	ea40 0003 	orr.w	r0, r0, r3
 8000330:	fa21 f304 	lsr.w	r3, r1, r4
 8000334:	ea45 0103 	orr.w	r1, r5, r3
 8000338:	bd30      	pop	{r4, r5, pc}
 800033a:	f1c4 040c 	rsb	r4, r4, #12
 800033e:	f1c4 0220 	rsb	r2, r4, #32
 8000342:	fa20 f002 	lsr.w	r0, r0, r2
 8000346:	fa01 f304 	lsl.w	r3, r1, r4
 800034a:	ea40 0003 	orr.w	r0, r0, r3
 800034e:	4629      	mov	r1, r5
 8000350:	bd30      	pop	{r4, r5, pc}
 8000352:	fa21 f004 	lsr.w	r0, r1, r4
 8000356:	4629      	mov	r1, r5
 8000358:	bd30      	pop	{r4, r5, pc}
 800035a:	f094 0f00 	teq	r4, #0
 800035e:	f483 1380 	eor.w	r3, r3, #1048576	@ 0x100000
 8000362:	bf06      	itte	eq
 8000364:	f481 1180 	eoreq.w	r1, r1, #1048576	@ 0x100000
 8000368:	3401      	addeq	r4, #1
 800036a:	3d01      	subne	r5, #1
 800036c:	e74e      	b.n	800020c <__adddf3+0x8c>
 800036e:	ea7f 5c64 	mvns.w	ip, r4, asr #21
 8000372:	bf18      	it	ne
 8000374:	ea7f 5c65 	mvnsne.w	ip, r5, asr #21
 8000378:	d029      	beq.n	80003ce <__adddf3+0x24e>
 800037a:	ea94 0f05 	teq	r4, r5
 800037e:	bf08      	it	eq
 8000380:	ea90 0f02 	teqeq	r0, r2
 8000384:	d005      	beq.n	8000392 <__adddf3+0x212>
 8000386:	ea54 0c00 	orrs.w	ip, r4, r0
 800038a:	bf04      	itt	eq
 800038c:	4619      	moveq	r1, r3
 800038e:	4610      	moveq	r0, r2
 8000390:	bd30      	pop	{r4, r5, pc}
 8000392:	ea91 0f03 	teq	r1, r3
 8000396:	bf1e      	ittt	ne
 8000398:	2100      	movne	r1, #0
 800039a:	2000      	movne	r0, #0
 800039c:	bd30      	popne	{r4, r5, pc}
 800039e:	ea5f 5c54 	movs.w	ip, r4, lsr #21
 80003a2:	d105      	bne.n	80003b0 <__adddf3+0x230>
 80003a4:	0040      	lsls	r0, r0, #1
 80003a6:	4149      	adcs	r1, r1
 80003a8:	bf28      	it	cs
 80003aa:	f041 4100 	orrcs.w	r1, r1, #2147483648	@ 0x80000000
 80003ae:	bd30      	pop	{r4, r5, pc}
 80003b0:	f514 0480 	adds.w	r4, r4, #4194304	@ 0x400000
 80003b4:	bf3c      	itt	cc
 80003b6:	f501 1180 	addcc.w	r1, r1, #1048576	@ 0x100000
 80003ba:	bd30      	popcc	{r4, r5, pc}
 80003bc:	f001 4500 	and.w	r5, r1, #2147483648	@ 0x80000000
 80003c0:	f045 41fe 	orr.w	r1, r5, #2130706432	@ 0x7f000000
 80003c4:	f441 0170 	orr.w	r1, r1, #15728640	@ 0xf00000
 80003c8:	f04f 0000 	mov.w	r0, #0
 80003cc:	bd30      	pop	{r4, r5, pc}
 80003ce:	ea7f 5c64 	mvns.w	ip, r4, asr #21
 80003d2:	bf1a      	itte	ne
 80003d4:	4619      	movne	r1, r3
 80003d6:	4610      	movne	r0, r2
 80003d8:	ea7f 5c65 	mvnseq.w	ip, r5, asr #21
 80003dc:	bf1c      	itt	ne
 80003de:	460b      	movne	r3, r1
 80003e0:	4602      	movne	r2, r0
 80003e2:	ea50 3401 	orrs.w	r4, r0, r1, lsl #12
 80003e6:	bf06      	itte	eq
 80003e8:	ea52 3503 	orrseq.w	r5, r2, r3, lsl #12
 80003ec:	ea91 0f03 	teqeq	r1, r3
 80003f0:	f441 2100 	orrne.w	r1, r1, #524288	@ 0x80000
 80003f4:	bd30      	pop	{r4, r5, pc}
 80003f6:	bf00      	nop

080003f8 <__aeabi_ui2d>:
 80003f8:	f090 0f00 	teq	r0, #0
 80003fc:	bf04      	itt	eq
 80003fe:	2100      	moveq	r1, #0
 8000400:	4770      	bxeq	lr
 8000402:	b530      	push	{r4, r5, lr}
 8000404:	f44f 6480 	mov.w	r4, #1024	@ 0x400
 8000408:	f104 0432 	add.w	r4, r4, #50	@ 0x32
 800040c:	f04f 0500 	mov.w	r5, #0
 8000410:	f04f 0100 	mov.w	r1, #0
 8000414:	e750      	b.n	80002b8 <__adddf3+0x138>
 8000416:	bf00      	nop

08000418 <__aeabi_i2d>:
 8000418:	f090 0f00 	teq	r0, #0
 800041c:	bf04      	itt	eq
 800041e:	2100      	moveq	r1, #0
 8000420:	4770      	bxeq	lr
 8000422:	b530      	push	{r4, r5, lr}
 8000424:	f44f 6480 	mov.w	r4, #1024	@ 0x400
 8000428:	f104 0432 	add.w	r4, r4, #50	@ 0x32
 800042c:	f010 4500 	ands.w	r5, r0, #2147483648	@ 0x80000000
 8000430:	bf48      	it	mi
 8000432:	4240      	negmi	r0, r0
 8000434:	f04f 0100 	mov.w	r1, #0
 8000438:	e73e      	b.n	80002b8 <__adddf3+0x138>
 800043a:	bf00      	nop

0800043c <__aeabi_f2d>:
 800043c:	0042      	lsls	r2, r0, #1
 800043e:	ea4f 01e2 	mov.w	r1, r2, asr #3
 8000442:	ea4f 0131 	mov.w	r1, r1, rrx
 8000446:	ea4f 7002 	mov.w	r0, r2, lsl #28
 800044a:	bf1f      	itttt	ne
 800044c:	f012 437f 	andsne.w	r3, r2, #4278190080	@ 0xff000000
 8000450:	f093 4f7f 	teqne	r3, #4278190080	@ 0xff000000
 8000454:	f081 5160 	eorne.w	r1, r1, #939524096	@ 0x38000000
 8000458:	4770      	bxne	lr
 800045a:	f032 427f 	bics.w	r2, r2, #4278190080	@ 0xff000000
 800045e:	bf08      	it	eq
 8000460:	4770      	bxeq	lr
 8000462:	f093 4f7f 	teq	r3, #4278190080	@ 0xff000000
 8000466:	bf04      	itt	eq
 8000468:	f441 2100 	orreq.w	r1, r1, #524288	@ 0x80000
 800046c:	4770      	bxeq	lr
 800046e:	b530      	push	{r4, r5, lr}
 8000470:	f44f 7460 	mov.w	r4, #896	@ 0x380
 8000474:	f001 4500 	and.w	r5, r1, #2147483648	@ 0x80000000
 8000478:	f021 4100 	bic.w	r1, r1, #2147483648	@ 0x80000000
 800047c:	e71c      	b.n	80002b8 <__adddf3+0x138>
 800047e:	bf00      	nop

08000480 <__aeabi_ul2d>:
 8000480:	ea50 0201 	orrs.w	r2, r0, r1
 8000484:	bf08      	it	eq
 8000486:	4770      	bxeq	lr
 8000488:	b530      	push	{r4, r5, lr}
 800048a:	f04f 0500 	mov.w	r5, #0
 800048e:	e00a      	b.n	80004a6 <__aeabi_l2d+0x16>

08000490 <__aeabi_l2d>:
 8000490:	ea50 0201 	orrs.w	r2, r0, r1
 8000494:	bf08      	it	eq
 8000496:	4770      	bxeq	lr
 8000498:	b530      	push	{r4, r5, lr}
 800049a:	f011 4500 	ands.w	r5, r1, #2147483648	@ 0x80000000
 800049e:	d502      	bpl.n	80004a6 <__aeabi_l2d+0x16>
 80004a0:	4240      	negs	r0, r0
 80004a2:	eb61 0141 	sbc.w	r1, r1, r1, lsl #1
 80004a6:	f44f 6480 	mov.w	r4, #1024	@ 0x400
 80004aa:	f104 0432 	add.w	r4, r4, #50	@ 0x32
 80004ae:	ea5f 5c91 	movs.w	ip, r1, lsr #22
 80004b2:	f43f aed8 	beq.w	8000266 <__adddf3+0xe6>
 80004b6:	f04f 0203 	mov.w	r2, #3
 80004ba:	ea5f 0cdc 	movs.w	ip, ip, lsr #3
 80004be:	bf18      	it	ne
 80004c0:	3203      	addne	r2, #3
 80004c2:	ea5f 0cdc 	movs.w	ip, ip, lsr #3
 80004c6:	bf18      	it	ne
 80004c8:	3203      	addne	r2, #3
 80004ca:	eb02 02dc 	add.w	r2, r2, ip, lsr #3
 80004ce:	f1c2 0320 	rsb	r3, r2, #32
 80004d2:	fa00 fc03 	lsl.w	ip, r0, r3
 80004d6:	fa20 f002 	lsr.w	r0, r0, r2
 80004da:	fa01 fe03 	lsl.w	lr, r1, r3
 80004de:	ea40 000e 	orr.w	r0, r0, lr
 80004e2:	fa21 f102 	lsr.w	r1, r1, r2
 80004e6:	4414      	add	r4, r2
 80004e8:	e6bd      	b.n	8000266 <__adddf3+0xe6>
 80004ea:	bf00      	nop

080004ec <__aeabi_dmul>:
 80004ec:	b570      	push	{r4, r5, r6, lr}
 80004ee:	f04f 0cff 	mov.w	ip, #255	@ 0xff
 80004f2:	f44c 6ce0 	orr.w	ip, ip, #1792	@ 0x700
 80004f6:	ea1c 5411 	ands.w	r4, ip, r1, lsr #20
 80004fa:	bf1d      	ittte	ne
 80004fc:	ea1c 5513 	andsne.w	r5, ip, r3, lsr #20
 8000500:	ea94 0f0c 	teqne	r4, ip
 8000504:	ea95 0f0c 	teqne	r5, ip
 8000508:	f000 f8de 	bleq	80006c8 <__aeabi_dmul+0x1dc>
 800050c:	442c      	add	r4, r5
 800050e:	ea81 0603 	eor.w	r6, r1, r3
 8000512:	ea21 514c 	bic.w	r1, r1, ip, lsl #21
 8000516:	ea23 534c 	bic.w	r3, r3, ip, lsl #21
 800051a:	ea50 3501 	orrs.w	r5, r0, r1, lsl #12
 800051e:	bf18      	it	ne
 8000520:	ea52 3503 	orrsne.w	r5, r2, r3, lsl #12
 8000524:	f441 1180 	orr.w	r1, r1, #1048576	@ 0x100000
 8000528:	f443 1380 	orr.w	r3, r3, #1048576	@ 0x100000
 800052c:	d038      	beq.n	80005a0 <__aeabi_dmul+0xb4>
 800052e:	fba0 ce02 	umull	ip, lr, r0, r2
 8000532:	f04f 0500 	mov.w	r5, #0
 8000536:	fbe1 e502 	umlal	lr, r5, r1, r2
 800053a:	f006 4200 	and.w	r2, r6, #2147483648	@ 0x80000000
 800053e:	fbe0 e503 	umlal	lr, r5, r0, r3
 8000542:	f04f 0600 	mov.w	r6, #0
 8000546:	fbe1 5603 	umlal	r5, r6, r1, r3
 800054a:	f09c 0f00 	teq	ip, #0
 800054e:	bf18      	it	ne
 8000550:	f04e 0e01 	orrne.w	lr, lr, #1
 8000554:	f1a4 04ff 	sub.w	r4, r4, #255	@ 0xff
 8000558:	f5b6 7f00 	cmp.w	r6, #512	@ 0x200
 800055c:	f564 7440 	sbc.w	r4, r4, #768	@ 0x300
 8000560:	d204      	bcs.n	800056c <__aeabi_dmul+0x80>
 8000562:	ea5f 0e4e 	movs.w	lr, lr, lsl #1
 8000566:	416d      	adcs	r5, r5
 8000568:	eb46 0606 	adc.w	r6, r6, r6
 800056c:	ea42 21c6 	orr.w	r1, r2, r6, lsl #11
 8000570:	ea41 5155 	orr.w	r1, r1, r5, lsr #21
 8000574:	ea4f 20c5 	mov.w	r0, r5, lsl #11
 8000578:	ea40 505e 	orr.w	r0, r0, lr, lsr #21
 800057c:	ea4f 2ece 	mov.w	lr, lr, lsl #11
 8000580:	f1b4 0cfd 	subs.w	ip, r4, #253	@ 0xfd
 8000584:	bf88      	it	hi
 8000586:	f5bc 6fe0 	cmphi.w	ip, #1792	@ 0x700
 800058a:	d81e      	bhi.n	80005ca <__aeabi_dmul+0xde>
 800058c:	f1be 4f00 	cmp.w	lr, #2147483648	@ 0x80000000
 8000590:	bf08      	it	eq
 8000592:	ea5f 0e50 	movseq.w	lr, r0, lsr #1
 8000596:	f150 0000 	adcs.w	r0, r0, #0
 800059a:	eb41 5104 	adc.w	r1, r1, r4, lsl #20
 800059e:	bd70      	pop	{r4, r5, r6, pc}
 80005a0:	f006 4600 	and.w	r6, r6, #2147483648	@ 0x80000000
 80005a4:	ea46 0101 	orr.w	r1, r6, r1
 80005a8:	ea40 0002 	orr.w	r0, r0, r2
 80005ac:	ea81 0103 	eor.w	r1, r1, r3
 80005b0:	ebb4 045c 	subs.w	r4, r4, ip, lsr #1
 80005b4:	bfc2      	ittt	gt
 80005b6:	ebd4 050c 	rsbsgt	r5, r4, ip
 80005ba:	ea41 5104 	orrgt.w	r1, r1, r4, lsl #20
 80005be:	bd70      	popgt	{r4, r5, r6, pc}
 80005c0:	f441 1180 	orr.w	r1, r1, #1048576	@ 0x100000
 80005c4:	f04f 0e00 	mov.w	lr, #0
 80005c8:	3c01      	subs	r4, #1
 80005ca:	f300 80ab 	bgt.w	8000724 <__aeabi_dmul+0x238>
 80005ce:	f114 0f36 	cmn.w	r4, #54	@ 0x36
 80005d2:	bfde      	ittt	le
 80005d4:	2000      	movle	r0, #0
 80005d6:	f001 4100 	andle.w	r1, r1, #2147483648	@ 0x80000000
 80005da:	bd70      	pople	{r4, r5, r6, pc}
 80005dc:	f1c4 0400 	rsb	r4, r4, #0
 80005e0:	3c20      	subs	r4, #32
 80005e2:	da35      	bge.n	8000650 <__aeabi_dmul+0x164>
 80005e4:	340c      	adds	r4, #12
 80005e6:	dc1b      	bgt.n	8000620 <__aeabi_dmul+0x134>
 80005e8:	f104 0414 	add.w	r4, r4, #20
 80005ec:	f1c4 0520 	rsb	r5, r4, #32
 80005f0:	fa00 f305 	lsl.w	r3, r0, r5
 80005f4:	fa20 f004 	lsr.w	r0, r0, r4
 80005f8:	fa01 f205 	lsl.w	r2, r1, r5
 80005fc:	ea40 0002 	orr.w	r0, r0, r2
 8000600:	f001 4200 	and.w	r2, r1, #2147483648	@ 0x80000000
 8000604:	f021 4100 	bic.w	r1, r1, #2147483648	@ 0x80000000
 8000608:	eb10 70d3 	adds.w	r0, r0, r3, lsr #31
 800060c:	fa21 f604 	lsr.w	r6, r1, r4
 8000610:	eb42 0106 	adc.w	r1, r2, r6
 8000614:	ea5e 0e43 	orrs.w	lr, lr, r3, lsl #1
 8000618:	bf08      	it	eq
 800061a:	ea20 70d3 	biceq.w	r0, r0, r3, lsr #31
 800061e:	bd70      	pop	{r4, r5, r6, pc}
 8000620:	f1c4 040c 	rsb	r4, r4, #12
 8000624:	f1c4 0520 	rsb	r5, r4, #32
 8000628:	fa00 f304 	lsl.w	r3, r0, r4
 800062c:	fa20 f005 	lsr.w	r0, r0, r5
 8000630:	fa01 f204 	lsl.w	r2, r1, r4
 8000634:	ea40 0002 	orr.w	r0, r0, r2
 8000638:	f001 4100 	and.w	r1, r1, #2147483648	@ 0x80000000
 800063c:	eb10 70d3 	adds.w	r0, r0, r3, lsr #31
 8000640:	f141 0100 	adc.w	r1, r1, #0
 8000644:	ea5e 0e43 	orrs.w	lr, lr, r3, lsl #1
 8000648:	bf08      	it	eq
 800064a:	ea20 70d3 	biceq.w	r0, r0, r3, lsr #31
 800064e:	bd70      	pop	{r4, r5, r6, pc}
 8000650:	f1c4 0520 	rsb	r5, r4, #32
 8000654:	fa00 f205 	lsl.w	r2, r0, r5
 8000658:	ea4e 0e02 	orr.w	lr, lr, r2
 800065c:	fa20 f304 	lsr.w	r3, r0, r4
 8000660:	fa01 f205 	lsl.w	r2, r1, r5
 8000664:	ea43 0302 	orr.w	r3, r3, r2
 8000668:	fa21 f004 	lsr.w	r0, r1, r4
 800066c:	f001 4100 	and.w	r1, r1, #2147483648	@ 0x80000000
 8000670:	fa21 f204 	lsr.w	r2, r1, r4
 8000674:	ea20 0002 	bic.w	r0, r0, r2
 8000678:	eb00 70d3 	add.w	r0, r0, r3, lsr #31
 800067c:	ea5e 0e43 	orrs.w	lr, lr, r3, lsl #1
 8000680:	bf08      	it	eq
 8000682:	ea20 70d3 	biceq.w	r0, r0, r3, lsr #31
 8000686:	bd70      	pop	{r4, r5, r6, pc}
 8000688:	f094 0f00 	teq	r4, #0
 800068c:	d10f      	bne.n	80006ae <__aeabi_dmul+0x1c2>
 800068e:	f001 4600 	and.w	r6, r1, #2147483648	@ 0x80000000
 8000692:	0040      	lsls	r0, r0, #1
 8000694:	eb41 0101 	adc.w	r1, r1, r1
 8000698:	f411 1f80 	tst.w	r1, #1048576	@ 0x100000
 800069c:	bf08      	it	eq
 800069e:	3c01      	subeq	r4, #1
 80006a0:	d0f7      	beq.n	8000692 <__aeabi_dmul+0x1a6>
 80006a2:	ea41 0106 	orr.w	r1, r1, r6
 80006a6:	f095 0f00 	teq	r5, #0
 80006aa:	bf18      	it	ne
 80006ac:	4770      	bxne	lr
 80006ae:	f003 4600 	and.w	r6, r3, #2147483648	@ 0x80000000
 80006b2:	0052      	lsls	r2, r2, #1
 80006b4:	eb43 0303 	adc.w	r3, r3, r3
 80006b8:	f413 1f80 	tst.w	r3, #1048576	@ 0x100000
 80006bc:	bf08      	it	eq
 80006be:	3d01      	subeq	r5, #1
 80006c0:	d0f7      	beq.n	80006b2 <__aeabi_dmul+0x1c6>
 80006c2:	ea43 0306 	orr.w	r3, r3, r6
 80006c6:	4770      	bx	lr
 80006c8:	ea94 0f0c 	teq	r4, ip
 80006cc:	ea0c 5513 	and.w	r5, ip, r3, lsr #20
 80006d0:	bf18      	it	ne
 80006d2:	ea95 0f0c 	teqne	r5, ip
 80006d6:	d00c      	beq.n	80006f2 <__aeabi_dmul+0x206>
 80006d8:	ea50 0641 	orrs.w	r6, r0, r1, lsl #1
 80006dc:	bf18      	it	ne
 80006de:	ea52 0643 	orrsne.w	r6, r2, r3, lsl #1
 80006e2:	d1d1      	bne.n	8000688 <__aeabi_dmul+0x19c>
 80006e4:	ea81 0103 	eor.w	r1, r1, r3
 80006e8:	f001 4100 	and.w	r1, r1, #2147483648	@ 0x80000000
 80006ec:	f04f 0000 	mov.w	r0, #0
 80006f0:	bd70      	pop	{r4, r5, r6, pc}
 80006f2:	ea50 0641 	orrs.w	r6, r0, r1, lsl #1
 80006f6:	bf06      	itte	eq
 80006f8:	4610      	moveq	r0, r2
 80006fa:	4619      	moveq	r1, r3
 80006fc:	ea52 0643 	orrsne.w	r6, r2, r3, lsl #1
 8000700:	d019      	beq.n	8000736 <__aeabi_dmul+0x24a>
 8000702:	ea94 0f0c 	teq	r4, ip
 8000706:	d102      	bne.n	800070e <__aeabi_dmul+0x222>
 8000708:	ea50 3601 	orrs.w	r6, r0, r1, lsl #12
 800070c:	d113      	bne.n	8000736 <__aeabi_dmul+0x24a>
 800070e:	ea95 0f0c 	teq	r5, ip
 8000712:	d105      	bne.n	8000720 <__aeabi_dmul+0x234>
 8000714:	ea52 3603 	orrs.w	r6, r2, r3, lsl #12
 8000718:	bf1c      	itt	ne
 800071a:	4610      	movne	r0, r2
 800071c:	4619      	movne	r1, r3
 800071e:	d10a      	bne.n	8000736 <__aeabi_dmul+0x24a>
 8000720:	ea81 0103 	eor.w	r1, r1, r3
 8000724:	f001 4100 	and.w	r1, r1, #2147483648	@ 0x80000000
 8000728:	f041 41fe 	orr.w	r1, r1, #2130706432	@ 0x7f000000
 800072c:	f441 0170 	orr.w	r1, r1, #15728640	@ 0xf00000
 8000730:	f04f 0000 	mov.w	r0, #0
 8000734:	bd70      	pop	{r4, r5, r6, pc}
 8000736:	f041 41fe 	orr.w	r1, r1, #2130706432	@ 0x7f000000
 800073a:	f441 0178 	orr.w	r1, r1, #16252928	@ 0xf80000
 800073e:	bd70      	pop	{r4, r5, r6, pc}

08000740 <__aeabi_ddiv>:
 8000740:	b570      	push	{r4, r5, r6, lr}
 8000742:	f04f 0cff 	mov.w	ip, #255	@ 0xff
 8000746:	f44c 6ce0 	orr.w	ip, ip, #1792	@ 0x700
 800074a:	ea1c 5411 	ands.w	r4, ip, r1, lsr #20
 800074e:	bf1d      	ittte	ne
 8000750:	ea1c 5513 	andsne.w	r5, ip, r3, lsr #20
 8000754:	ea94 0f0c 	teqne	r4, ip
 8000758:	ea95 0f0c 	teqne	r5, ip
 800075c:	f000 f8a7 	bleq	80008ae <__aeabi_ddiv+0x16e>
 8000760:	eba4 0405 	sub.w	r4, r4, r5
 8000764:	ea81 0e03 	eor.w	lr, r1, r3
 8000768:	ea52 3503 	orrs.w	r5, r2, r3, lsl #12
 800076c:	ea4f 3101 	mov.w	r1, r1, lsl #12
 8000770:	f000 8088 	beq.w	8000884 <__aeabi_ddiv+0x144>
 8000774:	ea4f 3303 	mov.w	r3, r3, lsl #12
 8000778:	f04f 5580 	mov.w	r5, #268435456	@ 0x10000000
 800077c:	ea45 1313 	orr.w	r3, r5, r3, lsr #4
 8000780:	ea43 6312 	orr.w	r3, r3, r2, lsr #24
 8000784:	ea4f 2202 	mov.w	r2, r2, lsl #8
 8000788:	ea45 1511 	orr.w	r5, r5, r1, lsr #4
 800078c:	ea45 6510 	orr.w	r5, r5, r0, lsr #24
 8000790:	ea4f 2600 	mov.w	r6, r0, lsl #8
 8000794:	f00e 4100 	and.w	r1, lr, #2147483648	@ 0x80000000
 8000798:	429d      	cmp	r5, r3
 800079a:	bf08      	it	eq
 800079c:	4296      	cmpeq	r6, r2
 800079e:	f144 04fd 	adc.w	r4, r4, #253	@ 0xfd
 80007a2:	f504 7440 	add.w	r4, r4, #768	@ 0x300
 80007a6:	d202      	bcs.n	80007ae <__aeabi_ddiv+0x6e>
 80007a8:	085b      	lsrs	r3, r3, #1
 80007aa:	ea4f 0232 	mov.w	r2, r2, rrx
 80007ae:	1ab6      	subs	r6, r6, r2
 80007b0:	eb65 0503 	sbc.w	r5, r5, r3
 80007b4:	085b      	lsrs	r3, r3, #1
 80007b6:	ea4f 0232 	mov.w	r2, r2, rrx
 80007ba:	f44f 1080 	mov.w	r0, #1048576	@ 0x100000
 80007be:	f44f 2c00 	mov.w	ip, #524288	@ 0x80000
 80007c2:	ebb6 0e02 	subs.w	lr, r6, r2
 80007c6:	eb75 0e03 	sbcs.w	lr, r5, r3
 80007ca:	bf22      	ittt	cs
 80007cc:	1ab6      	subcs	r6, r6, r2
 80007ce:	4675      	movcs	r5, lr
 80007d0:	ea40 000c 	orrcs.w	r0, r0, ip
 80007d4:	085b      	lsrs	r3, r3, #1
 80007d6:	ea4f 0232 	mov.w	r2, r2, rrx
 80007da:	ebb6 0e02 	subs.w	lr, r6, r2
 80007de:	eb75 0e03 	sbcs.w	lr, r5, r3
 80007e2:	bf22      	ittt	cs
 80007e4:	1ab6      	subcs	r6, r6, r2
 80007e6:	4675      	movcs	r5, lr
 80007e8:	ea40 005c 	orrcs.w	r0, r0, ip, lsr #1
 80007ec:	085b      	lsrs	r3, r3, #1
 80007ee:	ea4f 0232 	mov.w	r2, r2, rrx
 80007f2:	ebb6 0e02 	subs.w	lr, r6, r2
 80007f6:	eb75 0e03 	sbcs.w	lr, r5, r3
 80007fa:	bf22      	ittt	cs
 80007fc:	1ab6      	subcs	r6, r6, r2
 80007fe:	4675      	movcs	r5, lr
 8000800:	ea40 009c 	orrcs.w	r0, r0, ip, lsr #2
 8000804:	085b      	lsrs	r3, r3, #1
 8000806:	ea4f 0232 	mov.w	r2, r2, rrx
 800080a:	ebb6 0e02 	subs.w	lr, r6, r2
 800080e:	eb75 0e03 	sbcs.w	lr, r5, r3
 8000812:	bf22      	ittt	cs
 8000814:	1ab6      	subcs	r6, r6, r2
 8000816:	4675      	movcs	r5, lr
 8000818:	ea40 00dc 	orrcs.w	r0, r0, ip, lsr #3
 800081c:	ea55 0e06 	orrs.w	lr, r5, r6
 8000820:	d018      	beq.n	8000854 <__aeabi_ddiv+0x114>
 8000822:	ea4f 1505 	mov.w	r5, r5, lsl #4
 8000826:	ea45 7516 	orr.w	r5, r5, r6, lsr #28
 800082a:	ea4f 1606 	mov.w	r6, r6, lsl #4
 800082e:	ea4f 03c3 	mov.w	r3, r3, lsl #3
 8000832:	ea43 7352 	orr.w	r3, r3, r2, lsr #29
 8000836:	ea4f 02c2 	mov.w	r2, r2, lsl #3
 800083a:	ea5f 1c1c 	movs.w	ip, ip, lsr #4
 800083e:	d1c0      	bne.n	80007c2 <__aeabi_ddiv+0x82>
 8000840:	f411 1f80 	tst.w	r1, #1048576	@ 0x100000
 8000844:	d10b      	bne.n	800085e <__aeabi_ddiv+0x11e>
 8000846:	ea41 0100 	orr.w	r1, r1, r0
 800084a:	f04f 0000 	mov.w	r0, #0
 800084e:	f04f 4c00 	mov.w	ip, #2147483648	@ 0x80000000
 8000852:	e7b6      	b.n	80007c2 <__aeabi_ddiv+0x82>
 8000854:	f411 1f80 	tst.w	r1, #1048576	@ 0x100000
 8000858:	bf04      	itt	eq
 800085a:	4301      	orreq	r1, r0
 800085c:	2000      	moveq	r0, #0
 800085e:	f1b4 0cfd 	subs.w	ip, r4, #253	@ 0xfd
 8000862:	bf88      	it	hi
 8000864:	f5bc 6fe0 	cmphi.w	ip, #1792	@ 0x700
 8000868:	f63f aeaf 	bhi.w	80005ca <__aeabi_dmul+0xde>
 800086c:	ebb5 0c03 	subs.w	ip, r5, r3
 8000870:	bf04      	itt	eq
 8000872:	ebb6 0c02 	subseq.w	ip, r6, r2
 8000876:	ea5f 0c50 	movseq.w	ip, r0, lsr #1
 800087a:	f150 0000 	adcs.w	r0, r0, #0
 800087e:	eb41 5104 	adc.w	r1, r1, r4, lsl #20
 8000882:	bd70      	pop	{r4, r5, r6, pc}
 8000884:	f00e 4e00 	and.w	lr, lr, #2147483648	@ 0x80000000
 8000888:	ea4e 3111 	orr.w	r1, lr, r1, lsr #12
 800088c:	eb14 045c 	adds.w	r4, r4, ip, lsr #1
 8000890:	bfc2      	ittt	gt
 8000892:	ebd4 050c 	rsbsgt	r5, r4, ip
 8000896:	ea41 5104 	orrgt.w	r1, r1, r4, lsl #20
 800089a:	bd70      	popgt	{r4, r5, r6, pc}
 800089c:	f441 1180 	orr.w	r1, r1, #1048576	@ 0x100000
 80008a0:	f04f 0e00 	mov.w	lr, #0
 80008a4:	3c01      	subs	r4, #1
 80008a6:	e690      	b.n	80005ca <__aeabi_dmul+0xde>
 80008a8:	ea45 0e06 	orr.w	lr, r5, r6
 80008ac:	e68d      	b.n	80005ca <__aeabi_dmul+0xde>
 80008ae:	ea0c 5513 	and.w	r5, ip, r3, lsr #20
 80008b2:	ea94 0f0c 	teq	r4, ip
 80008b6:	bf08      	it	eq
 80008b8:	ea95 0f0c 	teqeq	r5, ip
 80008bc:	f43f af3b 	beq.w	8000736 <__aeabi_dmul+0x24a>
 80008c0:	ea94 0f0c 	teq	r4, ip
 80008c4:	d10a      	bne.n	80008dc <__aeabi_ddiv+0x19c>
 80008c6:	ea50 3401 	orrs.w	r4, r0, r1, lsl #12
 80008ca:	f47f af34 	bne.w	8000736 <__aeabi_dmul+0x24a>
 80008ce:	ea95 0f0c 	teq	r5, ip
 80008d2:	f47f af25 	bne.w	8000720 <__aeabi_dmul+0x234>
 80008d6:	4610      	mov	r0, r2
 80008d8:	4619      	mov	r1, r3
 80008da:	e72c      	b.n	8000736 <__aeabi_dmul+0x24a>
 80008dc:	ea95 0f0c 	teq	r5, ip
 80008e0:	d106      	bne.n	80008f0 <__aeabi_ddiv+0x1b0>
 80008e2:	ea52 3503 	orrs.w	r5, r2, r3, lsl #12
 80008e6:	f43f aefd 	beq.w	80006e4 <__aeabi_dmul+0x1f8>
 80008ea:	4610      	mov	r0, r2
 80008ec:	4619      	mov	r1, r3
 80008ee:	e722      	b.n	8000736 <__aeabi_dmul+0x24a>
 80008f0:	ea50 0641 	orrs.w	r6, r0, r1, lsl #1
 80008f4:	bf18      	it	ne
 80008f6:	ea52 0643 	orrsne.w	r6, r2, r3, lsl #1
 80008fa:	f47f aec5 	bne.w	8000688 <__aeabi_dmul+0x19c>
 80008fe:	ea50 0441 	orrs.w	r4, r0, r1, lsl #1
 8000902:	f47f af0d 	bne.w	8000720 <__aeabi_dmul+0x234>
 8000906:	ea52 0543 	orrs.w	r5, r2, r3, lsl #1
 800090a:	f47f aeeb 	bne.w	80006e4 <__aeabi_dmul+0x1f8>
 800090e:	e712      	b.n	8000736 <__aeabi_dmul+0x24a>

08000910 <__gedf2>:
 8000910:	f04f 3cff 	mov.w	ip, #4294967295
 8000914:	e006      	b.n	8000924 <__cmpdf2+0x4>
 8000916:	bf00      	nop

08000918 <__ledf2>:
 8000918:	f04f 0c01 	mov.w	ip, #1
 800091c:	e002      	b.n	8000924 <__cmpdf2+0x4>
 800091e:	bf00      	nop

08000920 <__cmpdf2>:
 8000920:	f04f 0c01 	mov.w	ip, #1
 8000924:	f84d cd04 	str.w	ip, [sp, #-4]!
 8000928:	ea4f 0c41 	mov.w	ip, r1, lsl #1
 800092c:	ea7f 5c6c 	mvns.w	ip, ip, asr #21
 8000930:	ea4f 0c43 	mov.w	ip, r3, lsl #1
 8000934:	bf18      	it	ne
 8000936:	ea7f 5c6c 	mvnsne.w	ip, ip, asr #21
 800093a:	d01b      	beq.n	8000974 <__cmpdf2+0x54>
 800093c:	b001      	add	sp, #4
 800093e:	ea50 0c41 	orrs.w	ip, r0, r1, lsl #1
 8000942:	bf0c      	ite	eq
 8000944:	ea52 0c43 	orrseq.w	ip, r2, r3, lsl #1
 8000948:	ea91 0f03 	teqne	r1, r3
 800094c:	bf02      	ittt	eq
 800094e:	ea90 0f02 	teqeq	r0, r2
 8000952:	2000      	moveq	r0, #0
 8000954:	4770      	bxeq	lr
 8000956:	f110 0f00 	cmn.w	r0, #0
 800095a:	ea91 0f03 	teq	r1, r3
 800095e:	bf58      	it	pl
 8000960:	4299      	cmppl	r1, r3
 8000962:	bf08      	it	eq
 8000964:	4290      	cmpeq	r0, r2
 8000966:	bf2c      	ite	cs
 8000968:	17d8      	asrcs	r0, r3, #31
 800096a:	ea6f 70e3 	mvncc.w	r0, r3, asr #31
 800096e:	f040 0001 	orr.w	r0, r0, #1
 8000972:	4770      	bx	lr
 8000974:	ea4f 0c41 	mov.w	ip, r1, lsl #1
 8000978:	ea7f 5c6c 	mvns.w	ip, ip, asr #21
 800097c:	d102      	bne.n	8000984 <__cmpdf2+0x64>
 800097e:	ea50 3c01 	orrs.w	ip, r0, r1, lsl #12
 8000982:	d107      	bne.n	8000994 <__cmpdf2+0x74>
 8000984:	ea4f 0c43 	mov.w	ip, r3, lsl #1
 8000988:	ea7f 5c6c 	mvns.w	ip, ip, asr #21
 800098c:	d1d6      	bne.n	800093c <__cmpdf2+0x1c>
 800098e:	ea52 3c03 	orrs.w	ip, r2, r3, lsl #12
 8000992:	d0d3      	beq.n	800093c <__cmpdf2+0x1c>
 8000994:	f85d 0b04 	ldr.w	r0, [sp], #4
 8000998:	4770      	bx	lr
 800099a:	bf00      	nop

0800099c <__aeabi_cdrcmple>:
 800099c:	4684      	mov	ip, r0
 800099e:	4610      	mov	r0, r2
 80009a0:	4662      	mov	r2, ip
 80009a2:	468c      	mov	ip, r1
 80009a4:	4619      	mov	r1, r3
 80009a6:	4663      	mov	r3, ip
 80009a8:	e000      	b.n	80009ac <__aeabi_cdcmpeq>
 80009aa:	bf00      	nop

080009ac <__aeabi_cdcmpeq>:
 80009ac:	b501      	push	{r0, lr}
 80009ae:	f7ff ffb7 	bl	8000920 <__cmpdf2>
 80009b2:	2800      	cmp	r0, #0
 80009b4:	bf48      	it	mi
 80009b6:	f110 0f00 	cmnmi.w	r0, #0
 80009ba:	bd01      	pop	{r0, pc}

080009bc <__aeabi_dcmpeq>:
 80009bc:	f84d ed08 	str.w	lr, [sp, #-8]!
 80009c0:	f7ff fff4 	bl	80009ac <__aeabi_cdcmpeq>
 80009c4:	bf0c      	ite	eq
 80009c6:	2001      	moveq	r0, #1
 80009c8:	2000      	movne	r0, #0
 80009ca:	f85d fb08 	ldr.w	pc, [sp], #8
 80009ce:	bf00      	nop

080009d0 <__aeabi_dcmplt>:
 80009d0:	f84d ed08 	str.w	lr, [sp, #-8]!
 80009d4:	f7ff ffea 	bl	80009ac <__aeabi_cdcmpeq>
 80009d8:	bf34      	ite	cc
 80009da:	2001      	movcc	r0, #1
 80009dc:	2000      	movcs	r0, #0
 80009de:	f85d fb08 	ldr.w	pc, [sp], #8
 80009e2:	bf00      	nop

080009e4 <__aeabi_dcmple>:
 80009e4:	f84d ed08 	str.w	lr, [sp, #-8]!
 80009e8:	f7ff ffe0 	bl	80009ac <__aeabi_cdcmpeq>
 80009ec:	bf94      	ite	ls
 80009ee:	2001      	movls	r0, #1
 80009f0:	2000      	movhi	r0, #0
 80009f2:	f85d fb08 	ldr.w	pc, [sp], #8
 80009f6:	bf00      	nop

080009f8 <__aeabi_dcmpge>:
 80009f8:	f84d ed08 	str.w	lr, [sp, #-8]!
 80009fc:	f7ff ffce 	bl	800099c <__aeabi_cdrcmple>
 8000a00:	bf94      	ite	ls
 8000a02:	2001      	movls	r0, #1
 8000a04:	2000      	movhi	r0, #0
 8000a06:	f85d fb08 	ldr.w	pc, [sp], #8
 8000a0a:	bf00      	nop

08000a0c <__aeabi_dcmpgt>:
 8000a0c:	f84d ed08 	str.w	lr, [sp, #-8]!
 8000a10:	f7ff ffc4 	bl	800099c <__aeabi_cdrcmple>
 8000a14:	bf34      	ite	cc
 8000a16:	2001      	movcc	r0, #1
 8000a18:	2000      	movcs	r0, #0
 8000a1a:	f85d fb08 	ldr.w	pc, [sp], #8
 8000a1e:	bf00      	nop

08000a20 <__aeabi_dcmpun>:
 8000a20:	ea4f 0c41 	mov.w	ip, r1, lsl #1
 8000a24:	ea7f 5c6c 	mvns.w	ip, ip, asr #21
 8000a28:	d102      	bne.n	8000a30 <__aeabi_dcmpun+0x10>
 8000a2a:	ea50 3c01 	orrs.w	ip, r0, r1, lsl #12
 8000a2e:	d10a      	bne.n	8000a46 <__aeabi_dcmpun+0x26>
 8000a30:	ea4f 0c43 	mov.w	ip, r3, lsl #1
 8000a34:	ea7f 5c6c 	mvns.w	ip, ip, asr #21
 8000a38:	d102      	bne.n	8000a40 <__aeabi_dcmpun+0x20>
 8000a3a:	ea52 3c03 	orrs.w	ip, r2, r3, lsl #12
 8000a3e:	d102      	bne.n	8000a46 <__aeabi_dcmpun+0x26>
 8000a40:	f04f 0000 	mov.w	r0, #0
 8000a44:	4770      	bx	lr
 8000a46:	f04f 0001 	mov.w	r0, #1
 8000a4a:	4770      	bx	lr

08000a4c <__aeabi_d2uiz>:
 8000a4c:	004a      	lsls	r2, r1, #1
 8000a4e:	d211      	bcs.n	8000a74 <__aeabi_d2uiz+0x28>
 8000a50:	f512 1200 	adds.w	r2, r2, #2097152	@ 0x200000
 8000a54:	d211      	bcs.n	8000a7a <__aeabi_d2uiz+0x2e>
 8000a56:	d50d      	bpl.n	8000a74 <__aeabi_d2uiz+0x28>
 8000a58:	f46f 7378 	mvn.w	r3, #992	@ 0x3e0
 8000a5c:	ebb3 5262 	subs.w	r2, r3, r2, asr #21
 8000a60:	d40e      	bmi.n	8000a80 <__aeabi_d2uiz+0x34>
 8000a62:	ea4f 23c1 	mov.w	r3, r1, lsl #11
 8000a66:	f043 4300 	orr.w	r3, r3, #2147483648	@ 0x80000000
 8000a6a:	ea43 5350 	orr.w	r3, r3, r0, lsr #21
 8000a6e:	fa23 f002 	lsr.w	r0, r3, r2
 8000a72:	4770      	bx	lr
 8000a74:	f04f 0000 	mov.w	r0, #0
 8000a78:	4770      	bx	lr
 8000a7a:	ea50 3001 	orrs.w	r0, r0, r1, lsl #12
 8000a7e:	d102      	bne.n	8000a86 <__aeabi_d2uiz+0x3a>
 8000a80:	f04f 30ff 	mov.w	r0, #4294967295
 8000a84:	4770      	bx	lr
 8000a86:	f04f 0000 	mov.w	r0, #0
 8000a8a:	4770      	bx	lr

08000a8c <__aeabi_d2f>:
 8000a8c:	ea4f 0241 	mov.w	r2, r1, lsl #1
 8000a90:	f1b2 43e0 	subs.w	r3, r2, #1879048192	@ 0x70000000
 8000a94:	bf24      	itt	cs
 8000a96:	f5b3 1c00 	subscs.w	ip, r3, #2097152	@ 0x200000
 8000a9a:	f1dc 5cfe 	rsbscs	ip, ip, #532676608	@ 0x1fc00000
 8000a9e:	d90d      	bls.n	8000abc <__aeabi_d2f+0x30>
 8000aa0:	f001 4c00 	and.w	ip, r1, #2147483648	@ 0x80000000
 8000aa4:	ea4f 02c0 	mov.w	r2, r0, lsl #3
 8000aa8:	ea4c 7050 	orr.w	r0, ip, r0, lsr #29
 8000aac:	f1b2 4f00 	cmp.w	r2, #2147483648	@ 0x80000000
 8000ab0:	eb40 0083 	adc.w	r0, r0, r3, lsl #2
 8000ab4:	bf08      	it	eq
 8000ab6:	f020 0001 	biceq.w	r0, r0, #1
 8000aba:	4770      	bx	lr
 8000abc:	f011 4f80 	tst.w	r1, #1073741824	@ 0x40000000
 8000ac0:	d121      	bne.n	8000b06 <__aeabi_d2f+0x7a>
 8000ac2:	f113 7238 	adds.w	r2, r3, #48234496	@ 0x2e00000
 8000ac6:	bfbc      	itt	lt
 8000ac8:	f001 4000 	andlt.w	r0, r1, #2147483648	@ 0x80000000
 8000acc:	4770      	bxlt	lr
 8000ace:	f441 1180 	orr.w	r1, r1, #1048576	@ 0x100000
 8000ad2:	ea4f 5252 	mov.w	r2, r2, lsr #21
 8000ad6:	f1c2 0218 	rsb	r2, r2, #24
 8000ada:	f1c2 0c20 	rsb	ip, r2, #32
 8000ade:	fa10 f30c 	lsls.w	r3, r0, ip
 8000ae2:	fa20 f002 	lsr.w	r0, r0, r2
 8000ae6:	bf18      	it	ne
 8000ae8:	f040 0001 	orrne.w	r0, r0, #1
 8000aec:	ea4f 23c1 	mov.w	r3, r1, lsl #11
 8000af0:	ea4f 23d3 	mov.w	r3, r3, lsr #11
 8000af4:	fa03 fc0c 	lsl.w	ip, r3, ip
 8000af8:	ea40 000c 	orr.w	r0, r0, ip
 8000afc:	fa23 f302 	lsr.w	r3, r3, r2
 8000b00:	ea4f 0343 	mov.w	r3, r3, lsl #1
 8000b04:	e7cc      	b.n	8000aa0 <__aeabi_d2f+0x14>
 8000b06:	ea7f 5362 	mvns.w	r3, r2, asr #21
 8000b0a:	d107      	bne.n	8000b1c <__aeabi_d2f+0x90>
 8000b0c:	ea50 3301 	orrs.w	r3, r0, r1, lsl #12
 8000b10:	bf1e      	ittt	ne
 8000b12:	f04f 40fe 	movne.w	r0, #2130706432	@ 0x7f000000
 8000b16:	f440 0040 	orrne.w	r0, r0, #12582912	@ 0xc00000
 8000b1a:	4770      	bxne	lr
 8000b1c:	f001 4000 	and.w	r0, r1, #2147483648	@ 0x80000000
 8000b20:	f040 40fe 	orr.w	r0, r0, #2130706432	@ 0x7f000000
 8000b24:	f440 0000 	orr.w	r0, r0, #8388608	@ 0x800000
 8000b28:	4770      	bx	lr
 8000b2a:	bf00      	nop

08000b2c <__gesf2>:
 8000b2c:	f04f 3cff 	mov.w	ip, #4294967295
 8000b30:	e006      	b.n	8000b40 <__cmpsf2+0x4>
 8000b32:	bf00      	nop

08000b34 <__lesf2>:
 8000b34:	f04f 0c01 	mov.w	ip, #1
 8000b38:	e002      	b.n	8000b40 <__cmpsf2+0x4>
 8000b3a:	bf00      	nop

08000b3c <__cmpsf2>:
 8000b3c:	f04f 0c01 	mov.w	ip, #1
 8000b40:	f84d cd04 	str.w	ip, [sp, #-4]!
 8000b44:	ea4f 0240 	mov.w	r2, r0, lsl #1
 8000b48:	ea4f 0341 	mov.w	r3, r1, lsl #1
 8000b4c:	ea7f 6c22 	mvns.w	ip, r2, asr #24
 8000b50:	bf18      	it	ne
 8000b52:	ea7f 6c23 	mvnsne.w	ip, r3, asr #24
 8000b56:	d011      	beq.n	8000b7c <__cmpsf2+0x40>
 8000b58:	b001      	add	sp, #4
 8000b5a:	ea52 0c53 	orrs.w	ip, r2, r3, lsr #1
 8000b5e:	bf18      	it	ne
 8000b60:	ea90 0f01 	teqne	r0, r1
 8000b64:	bf58      	it	pl
 8000b66:	ebb2 0003 	subspl.w	r0, r2, r3
 8000b6a:	bf88      	it	hi
 8000b6c:	17c8      	asrhi	r0, r1, #31
 8000b6e:	bf38      	it	cc
 8000b70:	ea6f 70e1 	mvncc.w	r0, r1, asr #31
 8000b74:	bf18      	it	ne
 8000b76:	f040 0001 	orrne.w	r0, r0, #1
 8000b7a:	4770      	bx	lr
 8000b7c:	ea7f 6c22 	mvns.w	ip, r2, asr #24
 8000b80:	d102      	bne.n	8000b88 <__cmpsf2+0x4c>
 8000b82:	ea5f 2c40 	movs.w	ip, r0, lsl #9
 8000b86:	d105      	bne.n	8000b94 <__cmpsf2+0x58>
 8000b88:	ea7f 6c23 	mvns.w	ip, r3, asr #24
 8000b8c:	d1e4      	bne.n	8000b58 <__cmpsf2+0x1c>
 8000b8e:	ea5f 2c41 	movs.w	ip, r1, lsl #9
 8000b92:	d0e1      	beq.n	8000b58 <__cmpsf2+0x1c>
 8000b94:	f85d 0b04 	ldr.w	r0, [sp], #4
 8000b98:	4770      	bx	lr
 8000b9a:	bf00      	nop

08000b9c <__aeabi_cfrcmple>:
 8000b9c:	4684      	mov	ip, r0
 8000b9e:	4608      	mov	r0, r1
 8000ba0:	4661      	mov	r1, ip
 8000ba2:	e7ff      	b.n	8000ba4 <__aeabi_cfcmpeq>

08000ba4 <__aeabi_cfcmpeq>:
 8000ba4:	b50f      	push	{r0, r1, r2, r3, lr}
 8000ba6:	f7ff ffc9 	bl	8000b3c <__cmpsf2>
 8000baa:	2800      	cmp	r0, #0
 8000bac:	bf48      	it	mi
 8000bae:	f110 0f00 	cmnmi.w	r0, #0
 8000bb2:	bd0f      	pop	{r0, r1, r2, r3, pc}

08000bb4 <__aeabi_fcmpeq>:
 8000bb4:	f84d ed08 	str.w	lr, [sp, #-8]!
 8000bb8:	f7ff fff4 	bl	8000ba4 <__aeabi_cfcmpeq>
 8000bbc:	bf0c      	ite	eq
 8000bbe:	2001      	moveq	r0, #1
 8000bc0:	2000      	movne	r0, #0
 8000bc2:	f85d fb08 	ldr.w	pc, [sp], #8
 8000bc6:	bf00      	nop

08000bc8 <__aeabi_fcmplt>:
 8000bc8:	f84d ed08 	str.w	lr, [sp, #-8]!
 8000bcc:	f7ff ffea 	bl	8000ba4 <__aeabi_cfcmpeq>
 8000bd0:	bf34      	ite	cc
 8000bd2:	2001      	movcc	r0, #1
 8000bd4:	2000      	movcs	r0, #0
 8000bd6:	f85d fb08 	ldr.w	pc, [sp], #8
 8000bda:	bf00      	nop

08000bdc <__aeabi_fcmple>:
 8000bdc:	f84d ed08 	str.w	lr, [sp, #-8]!
 8000be0:	f7ff ffe0 	bl	8000ba4 <__aeabi_cfcmpeq>
 8000be4:	bf94      	ite	ls
 8000be6:	2001      	movls	r0, #1
 8000be8:	2000      	movhi	r0, #0
 8000bea:	f85d fb08 	ldr.w	pc, [sp], #8
 8000bee:	bf00      	nop

08000bf0 <__aeabi_fcmpge>:
 8000bf0:	f84d ed08 	str.w	lr, [sp, #-8]!
 8000bf4:	f7ff ffd2 	bl	8000b9c <__aeabi_cfrcmple>
 8000bf8:	bf94      	ite	ls
 8000bfa:	2001      	movls	r0, #1
 8000bfc:	2000      	movhi	r0, #0
 8000bfe:	f85d fb08 	ldr.w	pc, [sp], #8
 8000c02:	bf00      	nop

08000c04 <__aeabi_fcmpgt>:
 8000c04:	f84d ed08 	str.w	lr, [sp, #-8]!
 8000c08:	f7ff ffc8 	bl	8000b9c <__aeabi_cfrcmple>
 8000c0c:	bf34      	ite	cc
 8000c0e:	2001      	movcc	r0, #1
 8000c10:	2000      	movcs	r0, #0
 8000c12:	f85d fb08 	ldr.w	pc, [sp], #8
 8000c16:	bf00      	nop

08000c18 <__aeabi_d2lz>:
 8000c18:	b538      	push	{r3, r4, r5, lr}
 8000c1a:	2200      	movs	r2, #0
 8000c1c:	2300      	movs	r3, #0
 8000c1e:	4604      	mov	r4, r0
 8000c20:	460d      	mov	r5, r1
 8000c22:	f7ff fed5 	bl	80009d0 <__aeabi_dcmplt>
 8000c26:	b928      	cbnz	r0, 8000c34 <__aeabi_d2lz+0x1c>
 8000c28:	4620      	mov	r0, r4
 8000c2a:	4629      	mov	r1, r5
 8000c2c:	e8bd 4038 	ldmia.w	sp!, {r3, r4, r5, lr}
 8000c30:	f000 b80a 	b.w	8000c48 <__aeabi_d2ulz>
 8000c34:	4620      	mov	r0, r4
 8000c36:	f105 4100 	add.w	r1, r5, #2147483648	@ 0x80000000
 8000c3a:	f000 f805 	bl	8000c48 <__aeabi_d2ulz>
 8000c3e:	4240      	negs	r0, r0
 8000c40:	eb61 0141 	sbc.w	r1, r1, r1, lsl #1
 8000c44:	bd38      	pop	{r3, r4, r5, pc}
 8000c46:	bf00      	nop

08000c48 <__aeabi_d2ulz>:
 8000c48:	b5d0      	push	{r4, r6, r7, lr}
 8000c4a:	2200      	movs	r2, #0
 8000c4c:	4b0b      	ldr	r3, [pc, #44]	@ (8000c7c <__aeabi_d2ulz+0x34>)
 8000c4e:	4606      	mov	r6, r0
 8000c50:	460f      	mov	r7, r1
 8000c52:	f7ff fc4b 	bl	80004ec <__aeabi_dmul>
 8000c56:	f7ff fef9 	bl	8000a4c <__aeabi_d2uiz>
 8000c5a:	4604      	mov	r4, r0
 8000c5c:	f7ff fbcc 	bl	80003f8 <__aeabi_ui2d>
 8000c60:	2200      	movs	r2, #0
 8000c62:	4b07      	ldr	r3, [pc, #28]	@ (8000c80 <__aeabi_d2ulz+0x38>)
 8000c64:	f7ff fc42 	bl	80004ec <__aeabi_dmul>
 8000c68:	4602      	mov	r2, r0
 8000c6a:	460b      	mov	r3, r1
 8000c6c:	4630      	mov	r0, r6
 8000c6e:	4639      	mov	r1, r7
 8000c70:	f7ff fa84 	bl	800017c <__aeabi_dsub>
 8000c74:	f7ff feea 	bl	8000a4c <__aeabi_d2uiz>
 8000c78:	4621      	mov	r1, r4
 8000c7a:	bdd0      	pop	{r4, r6, r7, pc}
 8000c7c:	3df00000 	.word	0x3df00000
 8000c80:	41f00000 	.word	0x41f00000

08000c84 <parse_data_STS>:
 8000c84:	e92d 4ff7 	stmdb	sp!, {r0, r1, r2, r4, r5, r6, r7, r8, r9, sl, fp, lr}
 8000c88:	460d      	mov	r5, r1
 8000c8a:	4964      	ldr	r1, [pc, #400]	@ (8000e1c <parse_data_STS+0x198>)
 8000c8c:	f004 fe9e 	bl	80059cc <strtok>
 8000c90:	2600      	movs	r6, #0
 8000c92:	4604      	mov	r4, r0
 8000c94:	4637      	mov	r7, r6
 8000c96:	f8df 9188 	ldr.w	r9, [pc, #392]	@ 8000e20 <parse_data_STS+0x19c>
 8000c9a:	b914      	cbnz	r4, 8000ca2 <parse_data_STS+0x1e>
 8000c9c:	b003      	add	sp, #12
 8000c9e:	e8bd 8ff0 	ldmia.w	sp!, {r4, r5, r6, r7, r8, r9, sl, fp, pc}
 8000ca2:	2205      	movs	r2, #5
 8000ca4:	4620      	mov	r0, r4
 8000ca6:	495f      	ldr	r1, [pc, #380]	@ (8000e24 <parse_data_STS+0x1a0>)
 8000ca8:	f004 fe6a 	bl	8005980 <strncmp>
 8000cac:	b950      	cbnz	r0, 8000cc4 <parse_data_STS+0x40>
 8000cae:	462a      	mov	r2, r5
 8000cb0:	495d      	ldr	r1, [pc, #372]	@ (8000e28 <parse_data_STS+0x1a4>)
 8000cb2:	4620      	mov	r0, r4
 8000cb4:	f004 fdde 	bl	8005874 <siscanf>
 8000cb8:	2000      	movs	r0, #0
 8000cba:	4958      	ldr	r1, [pc, #352]	@ (8000e1c <parse_data_STS+0x198>)
 8000cbc:	f004 fe86 	bl	80059cc <strtok>
 8000cc0:	4604      	mov	r4, r0
 8000cc2:	e7ea      	b.n	8000c9a <parse_data_STS+0x16>
 8000cc4:	2205      	movs	r2, #5
 8000cc6:	4620      	mov	r0, r4
 8000cc8:	4958      	ldr	r1, [pc, #352]	@ (8000e2c <parse_data_STS+0x1a8>)
 8000cca:	f004 fe59 	bl	8005980 <strncmp>
 8000cce:	b918      	cbnz	r0, 8000cd8 <parse_data_STS+0x54>
 8000cd0:	4957      	ldr	r1, [pc, #348]	@ (8000e30 <parse_data_STS+0x1ac>)
 8000cd2:	f105 0220 	add.w	r2, r5, #32
 8000cd6:	e7ec      	b.n	8000cb2 <parse_data_STS+0x2e>
 8000cd8:	2205      	movs	r2, #5
 8000cda:	4649      	mov	r1, r9
 8000cdc:	4620      	mov	r0, r4
 8000cde:	f004 fe4f 	bl	8005980 <strncmp>
 8000ce2:	b918      	cbnz	r0, 8000cec <parse_data_STS+0x68>
 8000ce4:	4953      	ldr	r1, [pc, #332]	@ (8000e34 <parse_data_STS+0x1b0>)
 8000ce6:	f105 0240 	add.w	r2, r5, #64	@ 0x40
 8000cea:	e7e2      	b.n	8000cb2 <parse_data_STS+0x2e>
 8000cec:	2205      	movs	r2, #5
 8000cee:	4620      	mov	r0, r4
 8000cf0:	4951      	ldr	r1, [pc, #324]	@ (8000e38 <parse_data_STS+0x1b4>)
 8000cf2:	f004 fe45 	bl	8005980 <strncmp>
 8000cf6:	b918      	cbnz	r0, 8000d00 <parse_data_STS+0x7c>
 8000cf8:	4950      	ldr	r1, [pc, #320]	@ (8000e3c <parse_data_STS+0x1b8>)
 8000cfa:	f105 0250 	add.w	r2, r5, #80	@ 0x50
 8000cfe:	e7d8      	b.n	8000cb2 <parse_data_STS+0x2e>
 8000d00:	2205      	movs	r2, #5
 8000d02:	4620      	mov	r0, r4
 8000d04:	494e      	ldr	r1, [pc, #312]	@ (8000e40 <parse_data_STS+0x1bc>)
 8000d06:	f004 fe3b 	bl	8005980 <strncmp>
 8000d0a:	b918      	cbnz	r0, 8000d14 <parse_data_STS+0x90>
 8000d0c:	494d      	ldr	r1, [pc, #308]	@ (8000e44 <parse_data_STS+0x1c0>)
 8000d0e:	f105 0254 	add.w	r2, r5, #84	@ 0x54
 8000d12:	e7ce      	b.n	8000cb2 <parse_data_STS+0x2e>
 8000d14:	2205      	movs	r2, #5
 8000d16:	4620      	mov	r0, r4
 8000d18:	494b      	ldr	r1, [pc, #300]	@ (8000e48 <parse_data_STS+0x1c4>)
 8000d1a:	f004 fe31 	bl	8005980 <strncmp>
 8000d1e:	b9b0      	cbnz	r0, 8000d4e <parse_data_STS+0xca>
 8000d20:	b15f      	cbz	r7, 8000d3a <parse_data_STS+0xb6>
 8000d22:	2e00      	cmp	r6, #0
 8000d24:	d1c8      	bne.n	8000cb8 <parse_data_STS+0x34>
 8000d26:	4620      	mov	r0, r4
 8000d28:	4948      	ldr	r1, [pc, #288]	@ (8000e4c <parse_data_STS+0x1c8>)
 8000d2a:	f105 025c 	add.w	r2, r5, #92	@ 0x5c
 8000d2e:	f004 fda1 	bl	8005874 <siscanf>
 8000d32:	1e43      	subs	r3, r0, #1
 8000d34:	425e      	negs	r6, r3
 8000d36:	415e      	adcs	r6, r3
 8000d38:	e7be      	b.n	8000cb8 <parse_data_STS+0x34>
 8000d3a:	4620      	mov	r0, r4
 8000d3c:	4944      	ldr	r1, [pc, #272]	@ (8000e50 <parse_data_STS+0x1cc>)
 8000d3e:	f105 0258 	add.w	r2, r5, #88	@ 0x58
 8000d42:	f004 fd97 	bl	8005874 <siscanf>
 8000d46:	2801      	cmp	r0, #1
 8000d48:	d1eb      	bne.n	8000d22 <parse_data_STS+0x9e>
 8000d4a:	4607      	mov	r7, r0
 8000d4c:	e7b4      	b.n	8000cb8 <parse_data_STS+0x34>
 8000d4e:	2205      	movs	r2, #5
 8000d50:	4620      	mov	r0, r4
 8000d52:	4940      	ldr	r1, [pc, #256]	@ (8000e54 <parse_data_STS+0x1d0>)
 8000d54:	f004 fe14 	bl	8005980 <strncmp>
 8000d58:	b918      	cbnz	r0, 8000d62 <parse_data_STS+0xde>
 8000d5a:	493f      	ldr	r1, [pc, #252]	@ (8000e58 <parse_data_STS+0x1d4>)
 8000d5c:	f105 025d 	add.w	r2, r5, #93	@ 0x5d
 8000d60:	e7a7      	b.n	8000cb2 <parse_data_STS+0x2e>
 8000d62:	2205      	movs	r2, #5
 8000d64:	4620      	mov	r0, r4
 8000d66:	493d      	ldr	r1, [pc, #244]	@ (8000e5c <parse_data_STS+0x1d8>)
 8000d68:	f004 fe0a 	bl	8005980 <strncmp>
 8000d6c:	bb28      	cbnz	r0, 8000dba <parse_data_STS+0x136>
 8000d6e:	f8df a0f0 	ldr.w	sl, [pc, #240]	@ 8000e60 <parse_data_STS+0x1dc>
 8000d72:	f8df b0f0 	ldr.w	fp, [pc, #240]	@ 8000e64 <parse_data_STS+0x1e0>
 8000d76:	3405      	adds	r4, #5
 8000d78:	466a      	mov	r2, sp
 8000d7a:	4651      	mov	r1, sl
 8000d7c:	4620      	mov	r0, r4
 8000d7e:	ab01      	add	r3, sp, #4
 8000d80:	f004 fd78 	bl	8005874 <siscanf>
 8000d84:	2802      	cmp	r0, #2
 8000d86:	d197      	bne.n	8000cb8 <parse_data_STS+0x34>
 8000d88:	f8dd 8000 	ldr.w	r8, [sp]
 8000d8c:	f108 32ff 	add.w	r2, r8, #4294967295
 8000d90:	2a07      	cmp	r2, #7
 8000d92:	d80a      	bhi.n	8000daa <parse_data_STS+0x126>
 8000d94:	4659      	mov	r1, fp
 8000d96:	a801      	add	r0, sp, #4
 8000d98:	f7ff f9da 	bl	8000150 <strcmp>
 8000d9c:	fab0 f080 	clz	r0, r0
 8000da0:	eb05 0308 	add.w	r3, r5, r8
 8000da4:	0940      	lsrs	r0, r0, #5
 8000da6:	f883 005d 	strb.w	r0, [r3, #93]	@ 0x5d
 8000daa:	2120      	movs	r1, #32
 8000dac:	4620      	mov	r0, r4
 8000dae:	f004 fdda 	bl	8005966 <strchr>
 8000db2:	2800      	cmp	r0, #0
 8000db4:	d080      	beq.n	8000cb8 <parse_data_STS+0x34>
 8000db6:	1c44      	adds	r4, r0, #1
 8000db8:	e7de      	b.n	8000d78 <parse_data_STS+0xf4>
 8000dba:	2205      	movs	r2, #5
 8000dbc:	4620      	mov	r0, r4
 8000dbe:	492a      	ldr	r1, [pc, #168]	@ (8000e68 <parse_data_STS+0x1e4>)
 8000dc0:	f004 fdde 	bl	8005980 <strncmp>
 8000dc4:	2800      	cmp	r0, #0
 8000dc6:	f47f af77 	bne.w	8000cb8 <parse_data_STS+0x34>
 8000dca:	f8df a094 	ldr.w	sl, [pc, #148]	@ 8000e60 <parse_data_STS+0x1dc>
 8000dce:	f8df b094 	ldr.w	fp, [pc, #148]	@ 8000e64 <parse_data_STS+0x1e0>
 8000dd2:	3405      	adds	r4, #5
 8000dd4:	466a      	mov	r2, sp
 8000dd6:	4651      	mov	r1, sl
 8000dd8:	4620      	mov	r0, r4
 8000dda:	ab01      	add	r3, sp, #4
 8000ddc:	f004 fd4a 	bl	8005874 <siscanf>
 8000de0:	2802      	cmp	r0, #2
 8000de2:	f47f af69 	bne.w	8000cb8 <parse_data_STS+0x34>
 8000de6:	f8dd 8000 	ldr.w	r8, [sp]
 8000dea:	f108 32ff 	add.w	r2, r8, #4294967295
 8000dee:	2a02      	cmp	r2, #2
 8000df0:	d80a      	bhi.n	8000e08 <parse_data_STS+0x184>
 8000df2:	4659      	mov	r1, fp
 8000df4:	a801      	add	r0, sp, #4
 8000df6:	f7ff f9ab 	bl	8000150 <strcmp>
 8000dfa:	fab0 f080 	clz	r0, r0
 8000dfe:	eb05 0308 	add.w	r3, r5, r8
 8000e02:	0940      	lsrs	r0, r0, #5
 8000e04:	f883 0065 	strb.w	r0, [r3, #101]	@ 0x65
 8000e08:	2120      	movs	r1, #32
 8000e0a:	4620      	mov	r0, r4
 8000e0c:	f004 fdab 	bl	8005966 <strchr>
 8000e10:	2800      	cmp	r0, #0
 8000e12:	f43f af51 	beq.w	8000cb8 <parse_data_STS+0x34>
 8000e16:	1c44      	adds	r4, r0, #1
 8000e18:	e7dc      	b.n	8000dd4 <parse_data_STS+0x150>
 8000e1a:	bf00      	nop
 8000e1c:	08009453 	.word	0x08009453
 8000e20:	0800917e 	.word	0x0800917e
 8000e24:	08009154 	.word	0x08009154
 8000e28:	0800915a 	.word	0x0800915a
 8000e2c:	08009169 	.word	0x08009169
 8000e30:	0800916f 	.word	0x0800916f
 8000e34:	08009184 	.word	0x08009184
 8000e38:	08009193 	.word	0x08009193
 8000e3c:	08009199 	.word	0x08009199
 8000e40:	080091a2 	.word	0x080091a2
 8000e44:	080091a8 	.word	0x080091a8
 8000e48:	080091b1 	.word	0x080091b1
 8000e4c:	080091c0 	.word	0x080091c0
 8000e50:	080091b7 	.word	0x080091b7
 8000e54:	080091c9 	.word	0x080091c9
 8000e58:	080091cf 	.word	0x080091cf
 8000e5c:	080091d8 	.word	0x080091d8
 8000e60:	080091e1 	.word	0x080091e1
 8000e64:	080091de 	.word	0x080091de
 8000e68:	080091e9 	.word	0x080091e9

08000e6c <StateMachineTask>:
 8000e6c:	e92d 47f0 	stmdb	sp!, {r4, r5, r6, r7, r8, r9, sl, lr}
 8000e70:	2140      	movs	r1, #64	@ 0x40
 8000e72:	48a1      	ldr	r0, [pc, #644]	@ (80010f8 <StateMachineTask+0x28c>)
 8000e74:	b0a8      	sub	sp, #160	@ 0xa0
 8000e76:	f001 fc77 	bl	8002768 <HAL_GPIO_ReadPin>
 8000e7a:	4ca0      	ldr	r4, [pc, #640]	@ (80010fc <StateMachineTask+0x290>)
 8000e7c:	4aa0      	ldr	r2, [pc, #640]	@ (8001100 <StateMachineTask+0x294>)
 8000e7e:	bb70      	cbnz	r0, 8000ede <StateMachineTask+0x72>
 8000e80:	7823      	ldrb	r3, [r4, #0]
 8000e82:	b363      	cbz	r3, 8000ede <StateMachineTask+0x72>
 8000e84:	7811      	ldrb	r1, [r2, #0]
 8000e86:	bb51      	cbnz	r1, 8000ede <StateMachineTask+0x72>
 8000e88:	3b01      	subs	r3, #1
 8000e8a:	7023      	strb	r3, [r4, #0]
 8000e8c:	4b9d      	ldr	r3, [pc, #628]	@ (8001104 <StateMachineTask+0x298>)
 8000e8e:	20fa      	movs	r0, #250	@ 0xfa
 8000e90:	7019      	strb	r1, [r3, #0]
 8000e92:	2301      	movs	r3, #1
 8000e94:	7013      	strb	r3, [r2, #0]
 8000e96:	f002 fd9d 	bl	80039d4 <osDelay>
 8000e9a:	2180      	movs	r1, #128	@ 0x80
 8000e9c:	4896      	ldr	r0, [pc, #600]	@ (80010f8 <StateMachineTask+0x28c>)
 8000e9e:	f001 fc63 	bl	8002768 <HAL_GPIO_ReadPin>
 8000ea2:	4b99      	ldr	r3, [pc, #612]	@ (8001108 <StateMachineTask+0x29c>)
 8000ea4:	b9f0      	cbnz	r0, 8000ee4 <StateMachineTask+0x78>
 8000ea6:	781a      	ldrb	r2, [r3, #0]
 8000ea8:	b9e2      	cbnz	r2, 8000ee4 <StateMachineTask+0x78>
 8000eaa:	4996      	ldr	r1, [pc, #600]	@ (8001104 <StateMachineTask+0x298>)
 8000eac:	7022      	strb	r2, [r4, #0]
 8000eae:	700a      	strb	r2, [r1, #0]
 8000eb0:	2201      	movs	r2, #1
 8000eb2:	20fa      	movs	r0, #250	@ 0xfa
 8000eb4:	701a      	strb	r2, [r3, #0]
 8000eb6:	f002 fd8d 	bl	80039d4 <osDelay>
 8000eba:	7823      	ldrb	r3, [r4, #0]
 8000ebc:	2b0c      	cmp	r3, #12
 8000ebe:	d83f      	bhi.n	8000f40 <StateMachineTask+0xd4>
 8000ec0:	e8df f013 	tbh	[pc, r3, lsl #1]
 8000ec4:	00250013 	.word	0x00250013
 8000ec8:	008c0055 	.word	0x008c0055
 8000ecc:	014e00d1 	.word	0x014e00d1
 8000ed0:	0013018a 	.word	0x0013018a
 8000ed4:	01c10013 	.word	0x01c10013
 8000ed8:	001301e8 	.word	0x001301e8
 8000edc:	0013      	.short	0x0013
 8000ede:	2300      	movs	r3, #0
 8000ee0:	7013      	strb	r3, [r2, #0]
 8000ee2:	e7da      	b.n	8000e9a <StateMachineTask+0x2e>
 8000ee4:	2200      	movs	r2, #0
 8000ee6:	701a      	strb	r2, [r3, #0]
 8000ee8:	e7e7      	b.n	8000eba <StateMachineTask+0x4e>
 8000eea:	2120      	movs	r1, #32
 8000eec:	4882      	ldr	r0, [pc, #520]	@ (80010f8 <StateMachineTask+0x28c>)
 8000eee:	f001 fc3b 	bl	8002768 <HAL_GPIO_ReadPin>
 8000ef2:	bb28      	cbnz	r0, 8000f40 <StateMachineTask+0xd4>
 8000ef4:	7823      	ldrb	r3, [r4, #0]
 8000ef6:	2b0b      	cmp	r3, #11
 8000ef8:	d802      	bhi.n	8000f00 <StateMachineTask+0x94>
 8000efa:	3301      	adds	r3, #1
 8000efc:	7023      	strb	r3, [r4, #0]
 8000efe:	e004      	b.n	8000f0a <StateMachineTask+0x9e>
 8000f00:	7020      	strb	r0, [r4, #0]
 8000f02:	f44f 70fa 	mov.w	r0, #500	@ 0x1f4
 8000f06:	f002 fd65 	bl	80039d4 <osDelay>
 8000f0a:	4b7e      	ldr	r3, [pc, #504]	@ (8001104 <StateMachineTask+0x298>)
 8000f0c:	e0e4      	b.n	80010d8 <StateMachineTask+0x26c>
 8000f0e:	f001 f90f 	bl	8002130 <Check_UART1_Timeout>
 8000f12:	4b7e      	ldr	r3, [pc, #504]	@ (800110c <StateMachineTask+0x2a0>)
 8000f14:	781a      	ldrb	r2, [r3, #0]
 8000f16:	b19a      	cbz	r2, 8000f40 <StateMachineTask+0xd4>
 8000f18:	2500      	movs	r5, #0
 8000f1a:	497d      	ldr	r1, [pc, #500]	@ (8001110 <StateMachineTask+0x2a4>)
 8000f1c:	4a7d      	ldr	r2, [pc, #500]	@ (8001114 <StateMachineTask+0x2a8>)
 8000f1e:	a80d      	add	r0, sp, #52	@ 0x34
 8000f20:	701d      	strb	r5, [r3, #0]
 8000f22:	f004 fc85 	bl	8005830 <siprintf>
 8000f26:	487c      	ldr	r0, [pc, #496]	@ (8001118 <StateMachineTask+0x2ac>)
 8000f28:	a90d      	add	r1, sp, #52	@ 0x34
 8000f2a:	f004 fdab 	bl	8005a84 <strstr>
 8000f2e:	b1d0      	cbz	r0, 8000f66 <StateMachineTask+0xfa>
 8000f30:	487a      	ldr	r0, [pc, #488]	@ (800111c <StateMachineTask+0x2b0>)
 8000f32:	f001 f867 	bl	8002004 <send_UART3>
 8000f36:	7823      	ldrb	r3, [r4, #0]
 8000f38:	3301      	adds	r3, #1
 8000f3a:	7023      	strb	r3, [r4, #0]
 8000f3c:	4b71      	ldr	r3, [pc, #452]	@ (8001104 <StateMachineTask+0x298>)
 8000f3e:	701d      	strb	r5, [r3, #0]
 8000f40:	7823      	ldrb	r3, [r4, #0]
 8000f42:	2b0c      	cmp	r3, #12
 8000f44:	f200 824a 	bhi.w	80013dc <StateMachineTask+0x570>
 8000f48:	e8df f013 	tbh	[pc, r3, lsl #1]
 8000f4c:	020401c5 	.word	0x020401c5
 8000f50:	02b4025f 	.word	0x02b4025f
 8000f54:	02e102d8 	.word	0x02e102d8
 8000f58:	03300306 	.word	0x03300306
 8000f5c:	03a10352 	.word	0x03a10352
 8000f60:	03db03c6 	.word	0x03db03c6
 8000f64:	03ee      	.short	0x03ee
 8000f66:	486e      	ldr	r0, [pc, #440]	@ (8001120 <StateMachineTask+0x2b4>)
 8000f68:	f001 f84c 	bl	8002004 <send_UART3>
 8000f6c:	e7e8      	b.n	8000f40 <StateMachineTask+0xd4>
 8000f6e:	f001 f8df 	bl	8002130 <Check_UART1_Timeout>
 8000f72:	4b66      	ldr	r3, [pc, #408]	@ (800110c <StateMachineTask+0x2a0>)
 8000f74:	781a      	ldrb	r2, [r3, #0]
 8000f76:	2a00      	cmp	r2, #0
 8000f78:	d0e2      	beq.n	8000f40 <StateMachineTask+0xd4>
 8000f7a:	2100      	movs	r1, #0
 8000f7c:	226c      	movs	r2, #108	@ 0x6c
 8000f7e:	a80d      	add	r0, sp, #52	@ 0x34
 8000f80:	7019      	strb	r1, [r3, #0]
 8000f82:	f004 fce8 	bl	8005956 <memset>
 8000f86:	a90d      	add	r1, sp, #52	@ 0x34
 8000f88:	4863      	ldr	r0, [pc, #396]	@ (8001118 <StateMachineTask+0x2ac>)
 8000f8a:	f7ff fe7b 	bl	8000c84 <parse_data_STS>
 8000f8e:	4862      	ldr	r0, [pc, #392]	@ (8001118 <StateMachineTask+0x2ac>)
 8000f90:	f001 f838 	bl	8002004 <send_UART3>
 8000f94:	9d21      	ldr	r5, [sp, #132]	@ 0x84
 8000f96:	f04f 4182 	mov.w	r1, #1090519040	@ 0x41000000
 8000f9a:	4628      	mov	r0, r5
 8000f9c:	f7ff fe28 	bl	8000bf0 <__aeabi_fcmpge>
 8000fa0:	b120      	cbz	r0, 8000fac <StateMachineTask+0x140>
 8000fa2:	4628      	mov	r0, r5
 8000fa4:	495f      	ldr	r1, [pc, #380]	@ (8001124 <StateMachineTask+0x2b8>)
 8000fa6:	f7ff fe19 	bl	8000bdc <__aeabi_fcmple>
 8000faa:	b9a8      	cbnz	r0, 8000fd8 <StateMachineTask+0x16c>
 8000fac:	485e      	ldr	r0, [pc, #376]	@ (8001128 <StateMachineTask+0x2bc>)
 8000fae:	f001 f829 	bl	8002004 <send_UART3>
 8000fb2:	2500      	movs	r5, #0
 8000fb4:	9e22      	ldr	r6, [sp, #136]	@ 0x88
 8000fb6:	495d      	ldr	r1, [pc, #372]	@ (800112c <StateMachineTask+0x2c0>)
 8000fb8:	4630      	mov	r0, r6
 8000fba:	f7ff fe19 	bl	8000bf0 <__aeabi_fcmpge>
 8000fbe:	b130      	cbz	r0, 8000fce <StateMachineTask+0x162>
 8000fc0:	4630      	mov	r0, r6
 8000fc2:	495b      	ldr	r1, [pc, #364]	@ (8001130 <StateMachineTask+0x2c4>)
 8000fc4:	f7ff fe0a 	bl	8000bdc <__aeabi_fcmple>
 8000fc8:	2800      	cmp	r0, #0
 8000fca:	f040 83c1 	bne.w	8001750 <StateMachineTask+0x8e4>
 8000fce:	4859      	ldr	r0, [pc, #356]	@ (8001134 <StateMachineTask+0x2c8>)
 8000fd0:	f001 f818 	bl	8002004 <send_UART3>
 8000fd4:	4858      	ldr	r0, [pc, #352]	@ (8001138 <StateMachineTask+0x2cc>)
 8000fd6:	e7c7      	b.n	8000f68 <StateMachineTask+0xfc>
 8000fd8:	2501      	movs	r5, #1
 8000fda:	e7eb      	b.n	8000fb4 <StateMachineTask+0x148>
 8000fdc:	f001 f8a8 	bl	8002130 <Check_UART1_Timeout>
 8000fe0:	4b4a      	ldr	r3, [pc, #296]	@ (800110c <StateMachineTask+0x2a0>)
 8000fe2:	781a      	ldrb	r2, [r3, #0]
 8000fe4:	2a00      	cmp	r2, #0
 8000fe6:	d0ab      	beq.n	8000f40 <StateMachineTask+0xd4>
 8000fe8:	2500      	movs	r5, #0
 8000fea:	226c      	movs	r2, #108	@ 0x6c
 8000fec:	4629      	mov	r1, r5
 8000fee:	a80d      	add	r0, sp, #52	@ 0x34
 8000ff0:	701d      	strb	r5, [r3, #0]
 8000ff2:	f004 fcb0 	bl	8005956 <memset>
 8000ff6:	4848      	ldr	r0, [pc, #288]	@ (8001118 <StateMachineTask+0x2ac>)
 8000ff8:	a90d      	add	r1, sp, #52	@ 0x34
 8000ffa:	f7ff fe43 	bl	8000c84 <parse_data_STS>
 8000ffe:	2601      	movs	r6, #1
 8001000:	f8df 8138 	ldr.w	r8, [pc, #312]	@ 800113c <StateMachineTask+0x2d0>
 8001004:	f8df 9138 	ldr.w	r9, [pc, #312]	@ 8001140 <StateMachineTask+0x2d4>
 8001008:	f10d 0791 	add.w	r7, sp, #145	@ 0x91
 800100c:	f817 3f01 	ldrb.w	r3, [r7, #1]!
 8001010:	3501      	adds	r5, #1
 8001012:	462a      	mov	r2, r5
 8001014:	b1d3      	cbz	r3, 800104c <StateMachineTask+0x1e0>
 8001016:	4649      	mov	r1, r9
 8001018:	4668      	mov	r0, sp
 800101a:	f004 fc09 	bl	8005830 <siprintf>
 800101e:	4668      	mov	r0, sp
 8001020:	f000 fff0 	bl	8002004 <send_UART3>
 8001024:	2600      	movs	r6, #0
 8001026:	2d08      	cmp	r5, #8
 8001028:	d1f0      	bne.n	800100c <StateMachineTask+0x1a0>
 800102a:	4d46      	ldr	r5, [pc, #280]	@ (8001144 <StateMachineTask+0x2d8>)
 800102c:	b1b6      	cbz	r6, 800105c <StateMachineTask+0x1f0>
 800102e:	4846      	ldr	r0, [pc, #280]	@ (8001148 <StateMachineTask+0x2dc>)
 8001030:	f000 ffe8 	bl	8002004 <send_UART3>
 8001034:	f44f 707a 	mov.w	r0, #1000	@ 0x3e8
 8001038:	f002 fccc 	bl	80039d4 <osDelay>
 800103c:	7823      	ldrb	r3, [r4, #0]
 800103e:	4a31      	ldr	r2, [pc, #196]	@ (8001104 <StateMachineTask+0x298>)
 8001040:	3301      	adds	r3, #1
 8001042:	7023      	strb	r3, [r4, #0]
 8001044:	2300      	movs	r3, #0
 8001046:	702b      	strb	r3, [r5, #0]
 8001048:	7013      	strb	r3, [r2, #0]
 800104a:	e779      	b.n	8000f40 <StateMachineTask+0xd4>
 800104c:	4641      	mov	r1, r8
 800104e:	4668      	mov	r0, sp
 8001050:	f004 fbee 	bl	8005830 <siprintf>
 8001054:	4668      	mov	r0, sp
 8001056:	f000 ffd5 	bl	8002004 <send_UART3>
 800105a:	e7e4      	b.n	8001026 <StateMachineTask+0x1ba>
 800105c:	483b      	ldr	r0, [pc, #236]	@ (800114c <StateMachineTask+0x2e0>)
 800105e:	f000 ffd1 	bl	8002004 <send_UART3>
 8001062:	702e      	strb	r6, [r5, #0]
 8001064:	e76c      	b.n	8000f40 <StateMachineTask+0xd4>
 8001066:	f001 f863 	bl	8002130 <Check_UART1_Timeout>
 800106a:	4b28      	ldr	r3, [pc, #160]	@ (800110c <StateMachineTask+0x2a0>)
 800106c:	781a      	ldrb	r2, [r3, #0]
 800106e:	2a00      	cmp	r2, #0
 8001070:	f43f af66 	beq.w	8000f40 <StateMachineTask+0xd4>
 8001074:	2500      	movs	r5, #0
 8001076:	226c      	movs	r2, #108	@ 0x6c
 8001078:	4629      	mov	r1, r5
 800107a:	a80d      	add	r0, sp, #52	@ 0x34
 800107c:	701d      	strb	r5, [r3, #0]
 800107e:	f004 fc6a 	bl	8005956 <memset>
 8001082:	4825      	ldr	r0, [pc, #148]	@ (8001118 <StateMachineTask+0x2ac>)
 8001084:	a90d      	add	r1, sp, #52	@ 0x34
 8001086:	f7ff fdfd 	bl	8000c84 <parse_data_STS>
 800108a:	2601      	movs	r6, #1
 800108c:	f8df 90c0 	ldr.w	r9, [pc, #192]	@ 8001150 <StateMachineTask+0x2e4>
 8001090:	f8df a0c0 	ldr.w	sl, [pc, #192]	@ 8001154 <StateMachineTask+0x2e8>
 8001094:	f10d 0791 	add.w	r7, sp, #145	@ 0x91
 8001098:	f817 8f01 	ldrb.w	r8, [r7, #1]!
 800109c:	3501      	adds	r5, #1
 800109e:	462a      	mov	r2, r5
 80010a0:	f1b8 0f00 	cmp.w	r8, #0
 80010a4:	d11b      	bne.n	80010de <StateMachineTask+0x272>
 80010a6:	4651      	mov	r1, sl
 80010a8:	4668      	mov	r0, sp
 80010aa:	f004 fbc1 	bl	8005830 <siprintf>
 80010ae:	4668      	mov	r0, sp
 80010b0:	f000 ffa8 	bl	8002004 <send_UART3>
 80010b4:	4646      	mov	r6, r8
 80010b6:	2d08      	cmp	r5, #8
 80010b8:	d1ee      	bne.n	8001098 <StateMachineTask+0x22c>
 80010ba:	b1c6      	cbz	r6, 80010ee <StateMachineTask+0x282>
 80010bc:	4826      	ldr	r0, [pc, #152]	@ (8001158 <StateMachineTask+0x2ec>)
 80010be:	f000 ffa1 	bl	8002004 <send_UART3>
 80010c2:	f240 50dc 	movw	r0, #1500	@ 0x5dc
 80010c6:	f002 fc85 	bl	80039d4 <osDelay>
 80010ca:	2200      	movs	r2, #0
 80010cc:	7823      	ldrb	r3, [r4, #0]
 80010ce:	3301      	adds	r3, #1
 80010d0:	7023      	strb	r3, [r4, #0]
 80010d2:	4b0c      	ldr	r3, [pc, #48]	@ (8001104 <StateMachineTask+0x298>)
 80010d4:	701a      	strb	r2, [r3, #0]
 80010d6:	4b1b      	ldr	r3, [pc, #108]	@ (8001144 <StateMachineTask+0x2d8>)
 80010d8:	2200      	movs	r2, #0
 80010da:	701a      	strb	r2, [r3, #0]
 80010dc:	e730      	b.n	8000f40 <StateMachineTask+0xd4>
 80010de:	4649      	mov	r1, r9
 80010e0:	4668      	mov	r0, sp
 80010e2:	f004 fba5 	bl	8005830 <siprintf>
 80010e6:	4668      	mov	r0, sp
 80010e8:	f000 ff8c 	bl	8002004 <send_UART3>
 80010ec:	e7e3      	b.n	80010b6 <StateMachineTask+0x24a>
 80010ee:	481b      	ldr	r0, [pc, #108]	@ (800115c <StateMachineTask+0x2f0>)
 80010f0:	f000 ff88 	bl	8002004 <send_UART3>
 80010f4:	e7ef      	b.n	80010d6 <StateMachineTask+0x26a>
 80010f6:	bf00      	nop
 80010f8:	40010800 	.word	0x40010800
 80010fc:	20000201 	.word	0x20000201
 8001100:	200001f7 	.word	0x200001f7
 8001104:	200001f6 	.word	0x200001f6
 8001108:	200001f5 	.word	0x200001f5
 800110c:	20000587 	.word	0x20000587
 8001110:	080091ef 	.word	0x080091ef
 8001114:	200001f8 	.word	0x200001f8
 8001118:	2000045a 	.word	0x2000045a
 800111c:	080091f8 	.word	0x080091f8
 8001120:	08009218 	.word	0x08009218
 8001124:	41200000 	.word	0x41200000
 8001128:	08009249 	.word	0x08009249
 800112c:	41300000 	.word	0x41300000
 8001130:	41600000 	.word	0x41600000
 8001134:	0800926e 	.word	0x0800926e
 8001138:	080092ae 	.word	0x080092ae
 800113c:	0800930c 	.word	0x0800930c
 8001140:	080092f5 	.word	0x080092f5
 8001144:	200001f4 	.word	0x200001f4
 8001148:	08009320 	.word	0x08009320
 800114c:	08009333 	.word	0x08009333
 8001150:	080093ab 	.word	0x080093ab
 8001154:	08009393 	.word	0x08009393
 8001158:	080093be 	.word	0x080093be
 800115c:	080093d0 	.word	0x080093d0
 8001160:	f000 ffe6 	bl	8002130 <Check_UART1_Timeout>
 8001164:	4bb5      	ldr	r3, [pc, #724]	@ (800143c <StateMachineTask+0x5d0>)
 8001166:	781a      	ldrb	r2, [r3, #0]
 8001168:	2a00      	cmp	r2, #0
 800116a:	f43f aee9 	beq.w	8000f40 <StateMachineTask+0xd4>
 800116e:	2500      	movs	r5, #0
 8001170:	226c      	movs	r2, #108	@ 0x6c
 8001172:	4629      	mov	r1, r5
 8001174:	a80d      	add	r0, sp, #52	@ 0x34
 8001176:	701d      	strb	r5, [r3, #0]
 8001178:	f004 fbed 	bl	8005956 <memset>
 800117c:	48b0      	ldr	r0, [pc, #704]	@ (8001440 <StateMachineTask+0x5d4>)
 800117e:	a90d      	add	r1, sp, #52	@ 0x34
 8001180:	f7ff fd80 	bl	8000c84 <parse_data_STS>
 8001184:	2601      	movs	r6, #1
 8001186:	f8df 82bc 	ldr.w	r8, [pc, #700]	@ 8001444 <StateMachineTask+0x5d8>
 800118a:	f8df 92bc 	ldr.w	r9, [pc, #700]	@ 8001448 <StateMachineTask+0x5dc>
 800118e:	f10d 0799 	add.w	r7, sp, #153	@ 0x99
 8001192:	f817 3f01 	ldrb.w	r3, [r7, #1]!
 8001196:	3501      	adds	r5, #1
 8001198:	462a      	mov	r2, r5
 800119a:	b1ab      	cbz	r3, 80011c8 <StateMachineTask+0x35c>
 800119c:	4649      	mov	r1, r9
 800119e:	4668      	mov	r0, sp
 80011a0:	f004 fb46 	bl	8005830 <siprintf>
 80011a4:	4668      	mov	r0, sp
 80011a6:	f000 ff2d 	bl	8002004 <send_UART3>
 80011aa:	2600      	movs	r6, #0
 80011ac:	2d03      	cmp	r5, #3
 80011ae:	d1f0      	bne.n	8001192 <StateMachineTask+0x326>
 80011b0:	2e00      	cmp	r6, #0
 80011b2:	f43f aec5 	beq.w	8000f40 <StateMachineTask+0xd4>
 80011b6:	48a5      	ldr	r0, [pc, #660]	@ (800144c <StateMachineTask+0x5e0>)
 80011b8:	f000 ff24 	bl	8002004 <send_UART3>
 80011bc:	f44f 60fa 	mov.w	r0, #2000	@ 0x7d0
 80011c0:	f002 fc08 	bl	80039d4 <osDelay>
 80011c4:	7823      	ldrb	r3, [r4, #0]
 80011c6:	e698      	b.n	8000efa <StateMachineTask+0x8e>
 80011c8:	4641      	mov	r1, r8
 80011ca:	4668      	mov	r0, sp
 80011cc:	f004 fb30 	bl	8005830 <siprintf>
 80011d0:	4668      	mov	r0, sp
 80011d2:	f000 ff17 	bl	8002004 <send_UART3>
 80011d6:	e7e9      	b.n	80011ac <StateMachineTask+0x340>
 80011d8:	f000 ffaa 	bl	8002130 <Check_UART1_Timeout>
 80011dc:	4b97      	ldr	r3, [pc, #604]	@ (800143c <StateMachineTask+0x5d0>)
 80011de:	781a      	ldrb	r2, [r3, #0]
 80011e0:	2a00      	cmp	r2, #0
 80011e2:	f43f aead 	beq.w	8000f40 <StateMachineTask+0xd4>
 80011e6:	2500      	movs	r5, #0
 80011e8:	226c      	movs	r2, #108	@ 0x6c
 80011ea:	4629      	mov	r1, r5
 80011ec:	a80d      	add	r0, sp, #52	@ 0x34
 80011ee:	701d      	strb	r5, [r3, #0]
 80011f0:	f004 fbb1 	bl	8005956 <memset>
 80011f4:	4892      	ldr	r0, [pc, #584]	@ (8001440 <StateMachineTask+0x5d4>)
 80011f6:	a90d      	add	r1, sp, #52	@ 0x34
 80011f8:	f7ff fd44 	bl	8000c84 <parse_data_STS>
 80011fc:	2601      	movs	r6, #1
 80011fe:	f8df 9250 	ldr.w	r9, [pc, #592]	@ 8001450 <StateMachineTask+0x5e4>
 8001202:	f8df a250 	ldr.w	sl, [pc, #592]	@ 8001454 <StateMachineTask+0x5e8>
 8001206:	f10d 0799 	add.w	r7, sp, #153	@ 0x99
 800120a:	f817 8f01 	ldrb.w	r8, [r7, #1]!
 800120e:	3501      	adds	r5, #1
 8001210:	462a      	mov	r2, r5
 8001212:	f1b8 0f00 	cmp.w	r8, #0
 8001216:	d10e      	bne.n	8001236 <StateMachineTask+0x3ca>
 8001218:	4651      	mov	r1, sl
 800121a:	4668      	mov	r0, sp
 800121c:	f004 fb08 	bl	8005830 <siprintf>
 8001220:	4668      	mov	r0, sp
 8001222:	f000 feef 	bl	8002004 <send_UART3>
 8001226:	4646      	mov	r6, r8
 8001228:	2d03      	cmp	r5, #3
 800122a:	d1ee      	bne.n	800120a <StateMachineTask+0x39e>
 800122c:	2e00      	cmp	r6, #0
 800122e:	f43f ae87 	beq.w	8000f40 <StateMachineTask+0xd4>
 8001232:	4889      	ldr	r0, [pc, #548]	@ (8001458 <StateMachineTask+0x5ec>)
 8001234:	e7c0      	b.n	80011b8 <StateMachineTask+0x34c>
 8001236:	4649      	mov	r1, r9
 8001238:	4668      	mov	r0, sp
 800123a:	f004 faf9 	bl	8005830 <siprintf>
 800123e:	4668      	mov	r0, sp
 8001240:	f000 fee0 	bl	8002004 <send_UART3>
 8001244:	e7f0      	b.n	8001228 <StateMachineTask+0x3bc>
 8001246:	2120      	movs	r1, #32
 8001248:	4884      	ldr	r0, [pc, #528]	@ (800145c <StateMachineTask+0x5f0>)
 800124a:	f001 fa8d 	bl	8002768 <HAL_GPIO_ReadPin>
 800124e:	4605      	mov	r5, r0
 8001250:	2800      	cmp	r0, #0
 8001252:	f47f ae75 	bne.w	8000f40 <StateMachineTask+0xd4>
 8001256:	f000 ff6b 	bl	8002130 <Check_UART1_Timeout>
 800125a:	4b78      	ldr	r3, [pc, #480]	@ (800143c <StateMachineTask+0x5d0>)
 800125c:	781a      	ldrb	r2, [r3, #0]
 800125e:	2a00      	cmp	r2, #0
 8001260:	f43f ae6e 	beq.w	8000f40 <StateMachineTask+0xd4>
 8001264:	226c      	movs	r2, #108	@ 0x6c
 8001266:	4629      	mov	r1, r5
 8001268:	a80d      	add	r0, sp, #52	@ 0x34
 800126a:	701d      	strb	r5, [r3, #0]
 800126c:	f004 fb73 	bl	8005956 <memset>
 8001270:	4873      	ldr	r0, [pc, #460]	@ (8001440 <StateMachineTask+0x5d4>)
 8001272:	a90d      	add	r1, sp, #52	@ 0x34
 8001274:	f7ff fd06 	bl	8000c84 <parse_data_STS>
 8001278:	f89d 3090 	ldrb.w	r3, [sp, #144]	@ 0x90
 800127c:	2b4a      	cmp	r3, #74	@ 0x4a
 800127e:	d105      	bne.n	800128c <StateMachineTask+0x420>
 8001280:	4877      	ldr	r0, [pc, #476]	@ (8001460 <StateMachineTask+0x5f4>)
 8001282:	f000 febf 	bl	8002004 <send_UART3>
 8001286:	f44f 70fa 	mov.w	r0, #500	@ 0x1f4
 800128a:	e799      	b.n	80011c0 <StateMachineTask+0x354>
 800128c:	4875      	ldr	r0, [pc, #468]	@ (8001464 <StateMachineTask+0x5f8>)
 800128e:	f000 feb9 	bl	8002004 <send_UART3>
 8001292:	e63a      	b.n	8000f0a <StateMachineTask+0x9e>
 8001294:	2120      	movs	r1, #32
 8001296:	4871      	ldr	r0, [pc, #452]	@ (800145c <StateMachineTask+0x5f0>)
 8001298:	f001 fa66 	bl	8002768 <HAL_GPIO_ReadPin>
 800129c:	4605      	mov	r5, r0
 800129e:	2800      	cmp	r0, #0
 80012a0:	f47f ae4e 	bne.w	8000f40 <StateMachineTask+0xd4>
 80012a4:	f000 ff44 	bl	8002130 <Check_UART1_Timeout>
 80012a8:	4b64      	ldr	r3, [pc, #400]	@ (800143c <StateMachineTask+0x5d0>)
 80012aa:	781a      	ldrb	r2, [r3, #0]
 80012ac:	2a00      	cmp	r2, #0
 80012ae:	f43f ae47 	beq.w	8000f40 <StateMachineTask+0xd4>
 80012b2:	226c      	movs	r2, #108	@ 0x6c
 80012b4:	4629      	mov	r1, r5
 80012b6:	a80d      	add	r0, sp, #52	@ 0x34
 80012b8:	701d      	strb	r5, [r3, #0]
 80012ba:	f004 fb4c 	bl	8005956 <memset>
 80012be:	4860      	ldr	r0, [pc, #384]	@ (8001440 <StateMachineTask+0x5d4>)
 80012c0:	a90d      	add	r1, sp, #52	@ 0x34
 80012c2:	f7ff fcdf 	bl	8000c84 <parse_data_STS>
 80012c6:	f89d 3090 	ldrb.w	r3, [sp, #144]	@ 0x90
 80012ca:	2b4e      	cmp	r3, #78	@ 0x4e
 80012cc:	d101      	bne.n	80012d2 <StateMachineTask+0x466>
 80012ce:	4866      	ldr	r0, [pc, #408]	@ (8001468 <StateMachineTask+0x5fc>)
 80012d0:	e7d7      	b.n	8001282 <StateMachineTask+0x416>
 80012d2:	4866      	ldr	r0, [pc, #408]	@ (800146c <StateMachineTask+0x600>)
 80012d4:	e7db      	b.n	800128e <StateMachineTask+0x422>
 80012d6:	4d66      	ldr	r5, [pc, #408]	@ (8001470 <StateMachineTask+0x604>)
 80012d8:	782c      	ldrb	r4, [r5, #0]
 80012da:	2c00      	cmp	r4, #0
 80012dc:	d17e      	bne.n	80013dc <StateMachineTask+0x570>
 80012de:	4865      	ldr	r0, [pc, #404]	@ (8001474 <StateMachineTask+0x608>)
 80012e0:	f000 fe3c 	bl	8001f5c <send_UART1>
 80012e4:	4622      	mov	r2, r4
 80012e6:	f44f 4180 	mov.w	r1, #16384	@ 0x4000
 80012ea:	4863      	ldr	r0, [pc, #396]	@ (8001478 <StateMachineTask+0x60c>)
 80012ec:	f001 fa42 	bl	8002774 <HAL_GPIO_WritePin>
 80012f0:	4622      	mov	r2, r4
 80012f2:	f44f 6100 	mov.w	r1, #2048	@ 0x800
 80012f6:	4859      	ldr	r0, [pc, #356]	@ (800145c <StateMachineTask+0x5f0>)
 80012f8:	f001 fa3c 	bl	8002774 <HAL_GPIO_WritePin>
 80012fc:	2201      	movs	r2, #1
 80012fe:	f44f 4100 	mov.w	r1, #32768	@ 0x8000
 8001302:	485d      	ldr	r0, [pc, #372]	@ (8001478 <StateMachineTask+0x60c>)
 8001304:	f001 fa36 	bl	8002774 <HAL_GPIO_WritePin>
 8001308:	2201      	movs	r2, #1
 800130a:	f44f 4100 	mov.w	r1, #32768	@ 0x8000
 800130e:	4853      	ldr	r0, [pc, #332]	@ (800145c <StateMachineTask+0x5f0>)
 8001310:	f001 fa30 	bl	8002774 <HAL_GPIO_WritePin>
 8001314:	2201      	movs	r2, #1
 8001316:	2108      	movs	r1, #8
 8001318:	4857      	ldr	r0, [pc, #348]	@ (8001478 <StateMachineTask+0x60c>)
 800131a:	f001 fa2b 	bl	8002774 <HAL_GPIO_WritePin>
 800131e:	4622      	mov	r2, r4
 8001320:	2120      	movs	r1, #32
 8001322:	4855      	ldr	r0, [pc, #340]	@ (8001478 <StateMachineTask+0x60c>)
 8001324:	f001 fa26 	bl	8002774 <HAL_GPIO_WritePin>
 8001328:	4622      	mov	r2, r4
 800132a:	2140      	movs	r1, #64	@ 0x40
 800132c:	4852      	ldr	r0, [pc, #328]	@ (8001478 <StateMachineTask+0x60c>)
 800132e:	f001 fa21 	bl	8002774 <HAL_GPIO_WritePin>
 8001332:	4622      	mov	r2, r4
 8001334:	2180      	movs	r1, #128	@ 0x80
 8001336:	4850      	ldr	r0, [pc, #320]	@ (8001478 <StateMachineTask+0x60c>)
 8001338:	f001 fa1c 	bl	8002774 <HAL_GPIO_WritePin>
 800133c:	484f      	ldr	r0, [pc, #316]	@ (800147c <StateMachineTask+0x610>)
 800133e:	f000 fe61 	bl	8002004 <send_UART3>
 8001342:	200a      	movs	r0, #10
 8001344:	f002 fb46 	bl	80039d4 <osDelay>
 8001348:	484d      	ldr	r0, [pc, #308]	@ (8001480 <StateMachineTask+0x614>)
 800134a:	f000 fe5b 	bl	8002004 <send_UART3>
 800134e:	2301      	movs	r3, #1
 8001350:	702b      	strb	r3, [r5, #0]
 8001352:	e043      	b.n	80013dc <StateMachineTask+0x570>
 8001354:	4c46      	ldr	r4, [pc, #280]	@ (8001470 <StateMachineTask+0x604>)
 8001356:	7823      	ldrb	r3, [r4, #0]
 8001358:	b93b      	cbnz	r3, 800136a <StateMachineTask+0x4fe>
 800135a:	484a      	ldr	r0, [pc, #296]	@ (8001484 <StateMachineTask+0x618>)
 800135c:	f000 fe52 	bl	8002004 <send_UART3>
 8001360:	4849      	ldr	r0, [pc, #292]	@ (8001488 <StateMachineTask+0x61c>)
 8001362:	f000 fe4f 	bl	8002004 <send_UART3>
 8001366:	2301      	movs	r3, #1
 8001368:	7023      	strb	r3, [r4, #0]
 800136a:	4b48      	ldr	r3, [pc, #288]	@ (800148c <StateMachineTask+0x620>)
 800136c:	781a      	ldrb	r2, [r3, #0]
 800136e:	b3aa      	cbz	r2, 80013dc <StateMachineTask+0x570>
 8001370:	2400      	movs	r4, #0
 8001372:	4e47      	ldr	r6, [pc, #284]	@ (8001490 <StateMachineTask+0x624>)
 8001374:	4625      	mov	r5, r4
 8001376:	4637      	mov	r7, r6
 8001378:	701c      	strb	r4, [r3, #0]
 800137a:	4638      	mov	r0, r7
 800137c:	f7fe fef2 	bl	8000164 <strlen>
 8001380:	42a0      	cmp	r0, r4
 8001382:	d82e      	bhi.n	80013e2 <StateMachineTask+0x576>
 8001384:	f105 03a0 	add.w	r3, r5, #160	@ 0xa0
 8001388:	eb0d 0503 	add.w	r5, sp, r3
 800138c:	2300      	movs	r3, #0
 800138e:	4668      	mov	r0, sp
 8001390:	f805 3ca0 	strb.w	r3, [r5, #-160]
 8001394:	f7fe fee6 	bl	8000164 <strlen>
 8001398:	2808      	cmp	r0, #8
 800139a:	4602      	mov	r2, r0
 800139c:	d12f      	bne.n	80013fe <StateMachineTask+0x592>
 800139e:	4669      	mov	r1, sp
 80013a0:	483c      	ldr	r0, [pc, #240]	@ (8001494 <StateMachineTask+0x628>)
 80013a2:	f004 faff 	bl	80059a4 <strncpy>
 80013a6:	4a3b      	ldr	r2, [pc, #236]	@ (8001494 <StateMachineTask+0x628>)
 80013a8:	493b      	ldr	r1, [pc, #236]	@ (8001498 <StateMachineTask+0x62c>)
 80013aa:	a80d      	add	r0, sp, #52	@ 0x34
 80013ac:	f004 fa40 	bl	8005830 <siprintf>
 80013b0:	a80d      	add	r0, sp, #52	@ 0x34
 80013b2:	f000 fdd3 	bl	8001f5c <send_UART1>
 80013b6:	200a      	movs	r0, #10
 80013b8:	f002 fb0c 	bl	80039d4 <osDelay>
 80013bc:	a80d      	add	r0, sp, #52	@ 0x34
 80013be:	f000 fdcd 	bl	8001f5c <send_UART1>
 80013c2:	4836      	ldr	r0, [pc, #216]	@ (800149c <StateMachineTask+0x630>)
 80013c4:	f000 fe1e 	bl	8002004 <send_UART3>
 80013c8:	f44f 707a 	mov.w	r0, #1000	@ 0x3e8
 80013cc:	f002 fb02 	bl	80039d4 <osDelay>
 80013d0:	4833      	ldr	r0, [pc, #204]	@ (80014a0 <StateMachineTask+0x634>)
 80013d2:	f000 fdc3 	bl	8001f5c <send_UART1>
 80013d6:	2032      	movs	r0, #50	@ 0x32
 80013d8:	f002 fafc 	bl	80039d4 <osDelay>
 80013dc:	b028      	add	sp, #160	@ 0xa0
 80013de:	e8bd 87f0 	ldmia.w	sp!, {r4, r5, r6, r7, r8, r9, sl, pc}
 80013e2:	f816 3b01 	ldrb.w	r3, [r6], #1
 80013e6:	2b0d      	cmp	r3, #13
 80013e8:	d007      	beq.n	80013fa <StateMachineTask+0x58e>
 80013ea:	2b0a      	cmp	r3, #10
 80013ec:	bf1f      	itttt	ne
 80013ee:	f105 02a0 	addne.w	r2, r5, #160	@ 0xa0
 80013f2:	446a      	addne	r2, sp
 80013f4:	f802 3ca0 	strbne.w	r3, [r2, #-160]
 80013f8:	3501      	addne	r5, #1
 80013fa:	3401      	adds	r4, #1
 80013fc:	e7bd      	b.n	800137a <StateMachineTask+0x50e>
 80013fe:	4829      	ldr	r0, [pc, #164]	@ (80014a4 <StateMachineTask+0x638>)
 8001400:	b028      	add	sp, #160	@ 0xa0
 8001402:	e8bd 47f0 	ldmia.w	sp!, {r4, r5, r6, r7, r8, r9, sl, lr}
 8001406:	f000 bdfd 	b.w	8002004 <send_UART3>
 800140a:	4c19      	ldr	r4, [pc, #100]	@ (8001470 <StateMachineTask+0x604>)
 800140c:	7823      	ldrb	r3, [r4, #0]
 800140e:	2b00      	cmp	r3, #0
 8001410:	d1e4      	bne.n	80013dc <StateMachineTask+0x570>
 8001412:	4825      	ldr	r0, [pc, #148]	@ (80014a8 <StateMachineTask+0x63c>)
 8001414:	f000 fdf6 	bl	8002004 <send_UART3>
 8001418:	4824      	ldr	r0, [pc, #144]	@ (80014ac <StateMachineTask+0x640>)
 800141a:	f000 fdf3 	bl	8002004 <send_UART3>
 800141e:	f44f 70fa 	mov.w	r0, #500	@ 0x1f4
 8001422:	f002 fad7 	bl	80039d4 <osDelay>
 8001426:	4822      	ldr	r0, [pc, #136]	@ (80014b0 <StateMachineTask+0x644>)
 8001428:	f000 fd98 	bl	8001f5c <send_UART1>
 800142c:	f44f 70fa 	mov.w	r0, #500	@ 0x1f4
 8001430:	f002 fad0 	bl	80039d4 <osDelay>
 8001434:	4802      	ldr	r0, [pc, #8]	@ (8001440 <StateMachineTask+0x5d4>)
 8001436:	f000 fde5 	bl	8002004 <send_UART3>
 800143a:	e0d6      	b.n	80015ea <StateMachineTask+0x77e>
 800143c:	20000587 	.word	0x20000587
 8001440:	2000045a 	.word	0x2000045a
 8001444:	08009443 	.word	0x08009443
 8001448:	0800942e 	.word	0x0800942e
 800144c:	08009456 	.word	0x08009456
 8001450:	08009483 	.word	0x08009483
 8001454:	0800946d 	.word	0x0800946d
 8001458:	08009495 	.word	0x08009495
 800145c:	40010800 	.word	0x40010800
 8001460:	080094ab 	.word	0x080094ab
 8001464:	080094c1 	.word	0x080094c1
 8001468:	080094f5 	.word	0x080094f5
 800146c:	0800950b 	.word	0x0800950b
 8001470:	200001f6 	.word	0x200001f6
 8001474:	0800953f 	.word	0x0800953f
 8001478:	40010c00 	.word	0x40010c00
 800147c:	08009546 	.word	0x08009546
 8001480:	0800955a 	.word	0x0800955a
 8001484:	08009589 	.word	0x08009589
 8001488:	0800959c 	.word	0x0800959c
 800148c:	2000040b 	.word	0x2000040b
 8001490:	200003a6 	.word	0x200003a6
 8001494:	200001f8 	.word	0x200001f8
 8001498:	080095cb 	.word	0x080095cb
 800149c:	080095d3 	.word	0x080095d3
 80014a0:	080095f9 	.word	0x080095f9
 80014a4:	080095fe 	.word	0x080095fe
 80014a8:	0800963c 	.word	0x0800963c
 80014ac:	08009650 	.word	0x08009650
 80014b0:	08009668 	.word	0x08009668
 80014b4:	4caf      	ldr	r4, [pc, #700]	@ (8001774 <StateMachineTask+0x908>)
 80014b6:	7823      	ldrb	r3, [r4, #0]
 80014b8:	b95b      	cbnz	r3, 80014d2 <StateMachineTask+0x666>
 80014ba:	48af      	ldr	r0, [pc, #700]	@ (8001778 <StateMachineTask+0x90c>)
 80014bc:	f000 fda2 	bl	8002004 <send_UART3>
 80014c0:	48ae      	ldr	r0, [pc, #696]	@ (800177c <StateMachineTask+0x910>)
 80014c2:	f000 fd9f 	bl	8002004 <send_UART3>
 80014c6:	f44f 70fa 	mov.w	r0, #500	@ 0x1f4
 80014ca:	f002 fa83 	bl	80039d4 <osDelay>
 80014ce:	2301      	movs	r3, #1
 80014d0:	7023      	strb	r3, [r4, #0]
 80014d2:	2120      	movs	r1, #32
 80014d4:	48aa      	ldr	r0, [pc, #680]	@ (8001780 <StateMachineTask+0x914>)
 80014d6:	f001 f947 	bl	8002768 <HAL_GPIO_ReadPin>
 80014da:	2800      	cmp	r0, #0
 80014dc:	f47f af7e 	bne.w	80013dc <StateMachineTask+0x570>
 80014e0:	4ba8      	ldr	r3, [pc, #672]	@ (8001784 <StateMachineTask+0x918>)
 80014e2:	781b      	ldrb	r3, [r3, #0]
 80014e4:	2b00      	cmp	r3, #0
 80014e6:	f47f af79 	bne.w	80013dc <StateMachineTask+0x570>
 80014ea:	2201      	movs	r2, #1
 80014ec:	4ba5      	ldr	r3, [pc, #660]	@ (8001784 <StateMachineTask+0x918>)
 80014ee:	48a6      	ldr	r0, [pc, #664]	@ (8001788 <StateMachineTask+0x91c>)
 80014f0:	701a      	strb	r2, [r3, #0]
 80014f2:	b028      	add	sp, #160	@ 0xa0
 80014f4:	e8bd 47f0 	ldmia.w	sp!, {r4, r5, r6, r7, r8, r9, sl, lr}
 80014f8:	f000 bd30 	b.w	8001f5c <send_UART1>
 80014fc:	4c9d      	ldr	r4, [pc, #628]	@ (8001774 <StateMachineTask+0x908>)
 80014fe:	7823      	ldrb	r3, [r4, #0]
 8001500:	2b00      	cmp	r3, #0
 8001502:	d1e6      	bne.n	80014d2 <StateMachineTask+0x666>
 8001504:	48a1      	ldr	r0, [pc, #644]	@ (800178c <StateMachineTask+0x920>)
 8001506:	f000 fd7d 	bl	8002004 <send_UART3>
 800150a:	48a1      	ldr	r0, [pc, #644]	@ (8001790 <StateMachineTask+0x924>)
 800150c:	e7d9      	b.n	80014c2 <StateMachineTask+0x656>
 800150e:	4c99      	ldr	r4, [pc, #612]	@ (8001774 <StateMachineTask+0x908>)
 8001510:	7823      	ldrb	r3, [r4, #0]
 8001512:	2b00      	cmp	r3, #0
 8001514:	f47f af62 	bne.w	80013dc <StateMachineTask+0x570>
 8001518:	489e      	ldr	r0, [pc, #632]	@ (8001794 <StateMachineTask+0x928>)
 800151a:	f000 fd73 	bl	8002004 <send_UART3>
 800151e:	20fa      	movs	r0, #250	@ 0xfa
 8001520:	f002 fa58 	bl	80039d4 <osDelay>
 8001524:	489c      	ldr	r0, [pc, #624]	@ (8001798 <StateMachineTask+0x92c>)
 8001526:	f000 fd6d 	bl	8002004 <send_UART3>
 800152a:	2201      	movs	r2, #1
 800152c:	f44f 4100 	mov.w	r1, #32768	@ 0x8000
 8001530:	489a      	ldr	r0, [pc, #616]	@ (800179c <StateMachineTask+0x930>)
 8001532:	f001 f91f 	bl	8002774 <HAL_GPIO_WritePin>
 8001536:	2201      	movs	r2, #1
 8001538:	f44f 4100 	mov.w	r1, #32768	@ 0x8000
 800153c:	4890      	ldr	r0, [pc, #576]	@ (8001780 <StateMachineTask+0x914>)
 800153e:	f001 f919 	bl	8002774 <HAL_GPIO_WritePin>
 8001542:	4896      	ldr	r0, [pc, #600]	@ (800179c <StateMachineTask+0x930>)
 8001544:	2201      	movs	r2, #1
 8001546:	2108      	movs	r1, #8
 8001548:	f001 f914 	bl	8002774 <HAL_GPIO_WritePin>
 800154c:	f44f 70fa 	mov.w	r0, #500	@ 0x1f4
 8001550:	f002 fa40 	bl	80039d4 <osDelay>
 8001554:	488c      	ldr	r0, [pc, #560]	@ (8001788 <StateMachineTask+0x91c>)
 8001556:	e046      	b.n	80015e6 <StateMachineTask+0x77a>
 8001558:	4d86      	ldr	r5, [pc, #536]	@ (8001774 <StateMachineTask+0x908>)
 800155a:	782c      	ldrb	r4, [r5, #0]
 800155c:	2c00      	cmp	r4, #0
 800155e:	f47f af3d 	bne.w	80013dc <StateMachineTask+0x570>
 8001562:	488f      	ldr	r0, [pc, #572]	@ (80017a0 <StateMachineTask+0x934>)
 8001564:	f000 fcfa 	bl	8001f5c <send_UART1>
 8001568:	488e      	ldr	r0, [pc, #568]	@ (80017a4 <StateMachineTask+0x938>)
 800156a:	f000 fd4b 	bl	8002004 <send_UART3>
 800156e:	20fa      	movs	r0, #250	@ 0xfa
 8001570:	f002 fa30 	bl	80039d4 <osDelay>
 8001574:	488c      	ldr	r0, [pc, #560]	@ (80017a8 <StateMachineTask+0x93c>)
 8001576:	f000 fd45 	bl	8002004 <send_UART3>
 800157a:	4622      	mov	r2, r4
 800157c:	f44f 4100 	mov.w	r1, #32768	@ 0x8000
 8001580:	4886      	ldr	r0, [pc, #536]	@ (800179c <StateMachineTask+0x930>)
 8001582:	f001 f8f7 	bl	8002774 <HAL_GPIO_WritePin>
 8001586:	4622      	mov	r2, r4
 8001588:	f44f 4100 	mov.w	r1, #32768	@ 0x8000
 800158c:	487c      	ldr	r0, [pc, #496]	@ (8001780 <StateMachineTask+0x914>)
 800158e:	f001 f8f1 	bl	8002774 <HAL_GPIO_WritePin>
 8001592:	4882      	ldr	r0, [pc, #520]	@ (800179c <StateMachineTask+0x930>)
 8001594:	4622      	mov	r2, r4
 8001596:	2108      	movs	r1, #8
 8001598:	f001 f8ec 	bl	8002774 <HAL_GPIO_WritePin>
 800159c:	f44f 70fa 	mov.w	r0, #500	@ 0x1f4
 80015a0:	f002 fa18 	bl	80039d4 <osDelay>
 80015a4:	4878      	ldr	r0, [pc, #480]	@ (8001788 <StateMachineTask+0x91c>)
 80015a6:	f000 fcd9 	bl	8001f5c <send_UART1>
 80015aa:	e6d0      	b.n	800134e <StateMachineTask+0x4e2>
 80015ac:	4c71      	ldr	r4, [pc, #452]	@ (8001774 <StateMachineTask+0x908>)
 80015ae:	7823      	ldrb	r3, [r4, #0]
 80015b0:	2b00      	cmp	r3, #0
 80015b2:	f47f af13 	bne.w	80013dc <StateMachineTask+0x570>
 80015b6:	2201      	movs	r2, #1
 80015b8:	f44f 4100 	mov.w	r1, #32768	@ 0x8000
 80015bc:	4877      	ldr	r0, [pc, #476]	@ (800179c <StateMachineTask+0x930>)
 80015be:	f001 f8d9 	bl	8002774 <HAL_GPIO_WritePin>
 80015c2:	2201      	movs	r2, #1
 80015c4:	f44f 4100 	mov.w	r1, #32768	@ 0x8000
 80015c8:	486d      	ldr	r0, [pc, #436]	@ (8001780 <StateMachineTask+0x914>)
 80015ca:	f001 f8d3 	bl	8002774 <HAL_GPIO_WritePin>
 80015ce:	2201      	movs	r2, #1
 80015d0:	2108      	movs	r1, #8
 80015d2:	4872      	ldr	r0, [pc, #456]	@ (800179c <StateMachineTask+0x930>)
 80015d4:	f001 f8ce 	bl	8002774 <HAL_GPIO_WritePin>
 80015d8:	4874      	ldr	r0, [pc, #464]	@ (80017ac <StateMachineTask+0x940>)
 80015da:	f000 fd13 	bl	8002004 <send_UART3>
 80015de:	4874      	ldr	r0, [pc, #464]	@ (80017b0 <StateMachineTask+0x944>)
 80015e0:	f000 fd10 	bl	8002004 <send_UART3>
 80015e4:	4873      	ldr	r0, [pc, #460]	@ (80017b4 <StateMachineTask+0x948>)
 80015e6:	f000 fcb9 	bl	8001f5c <send_UART1>
 80015ea:	2301      	movs	r3, #1
 80015ec:	7023      	strb	r3, [r4, #0]
 80015ee:	e6f5      	b.n	80013dc <StateMachineTask+0x570>
 80015f0:	4d60      	ldr	r5, [pc, #384]	@ (8001774 <StateMachineTask+0x908>)
 80015f2:	782c      	ldrb	r4, [r5, #0]
 80015f4:	2c00      	cmp	r4, #0
 80015f6:	f47f aef1 	bne.w	80013dc <StateMachineTask+0x570>
 80015fa:	4622      	mov	r2, r4
 80015fc:	f44f 6100 	mov.w	r1, #2048	@ 0x800
 8001600:	485f      	ldr	r0, [pc, #380]	@ (8001780 <StateMachineTask+0x914>)
 8001602:	f001 f8b7 	bl	8002774 <HAL_GPIO_WritePin>
 8001606:	4866      	ldr	r0, [pc, #408]	@ (80017a0 <StateMachineTask+0x934>)
 8001608:	f000 fca8 	bl	8001f5c <send_UART1>
 800160c:	486a      	ldr	r0, [pc, #424]	@ (80017b8 <StateMachineTask+0x94c>)
 800160e:	f000 fcf9 	bl	8002004 <send_UART3>
 8001612:	486a      	ldr	r0, [pc, #424]	@ (80017bc <StateMachineTask+0x950>)
 8001614:	f000 fcf6 	bl	8002004 <send_UART3>
 8001618:	f640 10c4 	movw	r0, #2500	@ 0x9c4
 800161c:	f002 f9da 	bl	80039d4 <osDelay>
 8001620:	2201      	movs	r2, #1
 8001622:	2120      	movs	r1, #32
 8001624:	485d      	ldr	r0, [pc, #372]	@ (800179c <StateMachineTask+0x930>)
 8001626:	f001 f8a5 	bl	8002774 <HAL_GPIO_WritePin>
 800162a:	4865      	ldr	r0, [pc, #404]	@ (80017c0 <StateMachineTask+0x954>)
 800162c:	f000 fcea 	bl	8002004 <send_UART3>
 8001630:	f640 10c4 	movw	r0, #2500	@ 0x9c4
 8001634:	f002 f9ce 	bl	80039d4 <osDelay>
 8001638:	4622      	mov	r2, r4
 800163a:	2120      	movs	r1, #32
 800163c:	4857      	ldr	r0, [pc, #348]	@ (800179c <StateMachineTask+0x930>)
 800163e:	f001 f899 	bl	8002774 <HAL_GPIO_WritePin>
 8001642:	2201      	movs	r2, #1
 8001644:	2140      	movs	r1, #64	@ 0x40
 8001646:	4855      	ldr	r0, [pc, #340]	@ (800179c <StateMachineTask+0x930>)
 8001648:	f001 f894 	bl	8002774 <HAL_GPIO_WritePin>
 800164c:	485d      	ldr	r0, [pc, #372]	@ (80017c4 <StateMachineTask+0x958>)
 800164e:	f000 fcd9 	bl	8002004 <send_UART3>
 8001652:	f640 10c4 	movw	r0, #2500	@ 0x9c4
 8001656:	f002 f9bd 	bl	80039d4 <osDelay>
 800165a:	4622      	mov	r2, r4
 800165c:	2140      	movs	r1, #64	@ 0x40
 800165e:	484f      	ldr	r0, [pc, #316]	@ (800179c <StateMachineTask+0x930>)
 8001660:	f001 f888 	bl	8002774 <HAL_GPIO_WritePin>
 8001664:	2201      	movs	r2, #1
 8001666:	2180      	movs	r1, #128	@ 0x80
 8001668:	484c      	ldr	r0, [pc, #304]	@ (800179c <StateMachineTask+0x930>)
 800166a:	f001 f883 	bl	8002774 <HAL_GPIO_WritePin>
 800166e:	4856      	ldr	r0, [pc, #344]	@ (80017c8 <StateMachineTask+0x95c>)
 8001670:	f000 fcc8 	bl	8002004 <send_UART3>
 8001674:	f640 10c4 	movw	r0, #2500	@ 0x9c4
 8001678:	f002 f9ac 	bl	80039d4 <osDelay>
 800167c:	4853      	ldr	r0, [pc, #332]	@ (80017cc <StateMachineTask+0x960>)
 800167e:	f000 fcc1 	bl	8002004 <send_UART3>
 8001682:	4622      	mov	r2, r4
 8001684:	2180      	movs	r1, #128	@ 0x80
 8001686:	4845      	ldr	r0, [pc, #276]	@ (800179c <StateMachineTask+0x930>)
 8001688:	f001 f874 	bl	8002774 <HAL_GPIO_WritePin>
 800168c:	e65f      	b.n	800134e <StateMachineTask+0x4e2>
 800168e:	4d39      	ldr	r5, [pc, #228]	@ (8001774 <StateMachineTask+0x908>)
 8001690:	782c      	ldrb	r4, [r5, #0]
 8001692:	2c00      	cmp	r4, #0
 8001694:	f47f aea2 	bne.w	80013dc <StateMachineTask+0x570>
 8001698:	f44f 707a 	mov.w	r0, #1000	@ 0x3e8
 800169c:	f002 f99a 	bl	80039d4 <osDelay>
 80016a0:	4622      	mov	r2, r4
 80016a2:	2120      	movs	r1, #32
 80016a4:	483d      	ldr	r0, [pc, #244]	@ (800179c <StateMachineTask+0x930>)
 80016a6:	f001 f865 	bl	8002774 <HAL_GPIO_WritePin>
 80016aa:	4622      	mov	r2, r4
 80016ac:	2140      	movs	r1, #64	@ 0x40
 80016ae:	483b      	ldr	r0, [pc, #236]	@ (800179c <StateMachineTask+0x930>)
 80016b0:	f001 f860 	bl	8002774 <HAL_GPIO_WritePin>
 80016b4:	4622      	mov	r2, r4
 80016b6:	2180      	movs	r1, #128	@ 0x80
 80016b8:	4838      	ldr	r0, [pc, #224]	@ (800179c <StateMachineTask+0x930>)
 80016ba:	f001 f85b 	bl	8002774 <HAL_GPIO_WritePin>
 80016be:	4844      	ldr	r0, [pc, #272]	@ (80017d0 <StateMachineTask+0x964>)
 80016c0:	f000 fca0 	bl	8002004 <send_UART3>
 80016c4:	4843      	ldr	r0, [pc, #268]	@ (80017d4 <StateMachineTask+0x968>)
 80016c6:	f000 fc9d 	bl	8002004 <send_UART3>
 80016ca:	2201      	movs	r2, #1
 80016cc:	f44f 6100 	mov.w	r1, #2048	@ 0x800
 80016d0:	482b      	ldr	r0, [pc, #172]	@ (8001780 <StateMachineTask+0x914>)
 80016d2:	f001 f84f 	bl	8002774 <HAL_GPIO_WritePin>
 80016d6:	e765      	b.n	80015a4 <StateMachineTask+0x738>
 80016d8:	4c26      	ldr	r4, [pc, #152]	@ (8001774 <StateMachineTask+0x908>)
 80016da:	7822      	ldrb	r2, [r4, #0]
 80016dc:	2a00      	cmp	r2, #0
 80016de:	f47f ae7d 	bne.w	80013dc <StateMachineTask+0x570>
 80016e2:	f44f 6100 	mov.w	r1, #2048	@ 0x800
 80016e6:	4826      	ldr	r0, [pc, #152]	@ (8001780 <StateMachineTask+0x914>)
 80016e8:	f001 f844 	bl	8002774 <HAL_GPIO_WritePin>
 80016ec:	f44f 707a 	mov.w	r0, #1000	@ 0x3e8
 80016f0:	f002 f970 	bl	80039d4 <osDelay>
 80016f4:	4838      	ldr	r0, [pc, #224]	@ (80017d8 <StateMachineTask+0x96c>)
 80016f6:	f000 fc85 	bl	8002004 <send_UART3>
 80016fa:	4838      	ldr	r0, [pc, #224]	@ (80017dc <StateMachineTask+0x970>)
 80016fc:	f000 fc82 	bl	8002004 <send_UART3>
 8001700:	e728      	b.n	8001554 <StateMachineTask+0x6e8>
 8001702:	4c1c      	ldr	r4, [pc, #112]	@ (8001774 <StateMachineTask+0x908>)
 8001704:	7822      	ldrb	r2, [r4, #0]
 8001706:	2a00      	cmp	r2, #0
 8001708:	f47f ae68 	bne.w	80013dc <StateMachineTask+0x570>
 800170c:	f44f 4180 	mov.w	r1, #16384	@ 0x4000
 8001710:	4822      	ldr	r0, [pc, #136]	@ (800179c <StateMachineTask+0x930>)
 8001712:	f001 f82f 	bl	8002774 <HAL_GPIO_WritePin>
 8001716:	f44f 707a 	mov.w	r0, #1000	@ 0x3e8
 800171a:	f002 f95b 	bl	80039d4 <osDelay>
 800171e:	4830      	ldr	r0, [pc, #192]	@ (80017e0 <StateMachineTask+0x974>)
 8001720:	f000 fc70 	bl	8002004 <send_UART3>
 8001724:	482f      	ldr	r0, [pc, #188]	@ (80017e4 <StateMachineTask+0x978>)
 8001726:	e686      	b.n	8001436 <StateMachineTask+0x5ca>
 8001728:	4c12      	ldr	r4, [pc, #72]	@ (8001774 <StateMachineTask+0x908>)
 800172a:	7823      	ldrb	r3, [r4, #0]
 800172c:	2b00      	cmp	r3, #0
 800172e:	f47f ae55 	bne.w	80013dc <StateMachineTask+0x570>
 8001732:	f44f 707a 	mov.w	r0, #1000	@ 0x3e8
 8001736:	f002 f94d 	bl	80039d4 <osDelay>
 800173a:	482b      	ldr	r0, [pc, #172]	@ (80017e8 <StateMachineTask+0x97c>)
 800173c:	f000 fc62 	bl	8002004 <send_UART3>
 8001740:	4816      	ldr	r0, [pc, #88]	@ (800179c <StateMachineTask+0x930>)
 8001742:	2201      	movs	r2, #1
 8001744:	f44f 4180 	mov.w	r1, #16384	@ 0x4000
 8001748:	f001 f814 	bl	8002774 <HAL_GPIO_WritePin>
 800174c:	4827      	ldr	r0, [pc, #156]	@ (80017ec <StateMachineTask+0x980>)
 800174e:	e672      	b.n	8001436 <StateMachineTask+0x5ca>
 8001750:	2d00      	cmp	r5, #0
 8001752:	f43f ac3f 	beq.w	8000fd4 <StateMachineTask+0x168>
 8001756:	f44f 707a 	mov.w	r0, #1000	@ 0x3e8
 800175a:	f002 f93b 	bl	80039d4 <osDelay>
 800175e:	4824      	ldr	r0, [pc, #144]	@ (80017f0 <StateMachineTask+0x984>)
 8001760:	f000 fc50 	bl	8002004 <send_UART3>
 8001764:	2200      	movs	r2, #0
 8001766:	4b03      	ldr	r3, [pc, #12]	@ (8001774 <StateMachineTask+0x908>)
 8001768:	701a      	strb	r2, [r3, #0]
 800176a:	7823      	ldrb	r3, [r4, #0]
 800176c:	3301      	adds	r3, #1
 800176e:	7023      	strb	r3, [r4, #0]
 8001770:	f7ff bbe6 	b.w	8000f40 <StateMachineTask+0xd4>
 8001774:	200001f6 	.word	0x200001f6
 8001778:	0800966d 	.word	0x0800966d
 800177c:	08009681 	.word	0x08009681
 8001780:	40010800 	.word	0x40010800
 8001784:	200001f4 	.word	0x200001f4
 8001788:	08009668 	.word	0x08009668
 800178c:	080096ba 	.word	0x080096ba
 8001790:	080096ce 	.word	0x080096ce
 8001794:	0800971f 	.word	0x0800971f
 8001798:	08009733 	.word	0x08009733
 800179c:	40010c00 	.word	0x40010c00
 80017a0:	0800953f 	.word	0x0800953f
 80017a4:	08009755 	.word	0x08009755
 80017a8:	08009769 	.word	0x08009769
 80017ac:	0800978a 	.word	0x0800978a
 80017b0:	0800979d 	.word	0x0800979d
 80017b4:	0800983c 	.word	0x0800983c
 80017b8:	08009843 	.word	0x08009843
 80017bc:	08009857 	.word	0x08009857
 80017c0:	08009921 	.word	0x08009921
 80017c4:	08009928 	.word	0x08009928
 80017c8:	0800992f 	.word	0x0800992f
 80017cc:	08009936 	.word	0x08009936
 80017d0:	08009940 	.word	0x08009940
 80017d4:	08009954 	.word	0x08009954
 80017d8:	080099bd 	.word	0x080099bd
 80017dc:	080099d2 	.word	0x080099d2
 80017e0:	08009a3e 	.word	0x08009a3e
 80017e4:	08009a53 	.word	0x08009a53
 80017e8:	08009ad8 	.word	0x08009ad8
 80017ec:	08009aed 	.word	0x08009aed
 80017f0:	08009292 	.word	0x08009292

080017f4 <StartStateMachineTask>:
 80017f4:	b508      	push	{r3, lr}
 80017f6:	f7ff fb39 	bl	8000e6c <StateMachineTask>
 80017fa:	2032      	movs	r0, #50	@ 0x32
 80017fc:	f002 f8ea 	bl	80039d4 <osDelay>
 8001800:	e7f9      	b.n	80017f6 <StartStateMachineTask+0x2>
	...

08001804 <StartDefaultTask>:
 8001804:	b508      	push	{r3, lr}
 8001806:	4c05      	ldr	r4, [pc, #20]	@ (800181c <StartDefaultTask+0x18>)
 8001808:	4620      	mov	r0, r4
 800180a:	2110      	movs	r1, #16
 800180c:	f000 ffb7 	bl	800277e <HAL_GPIO_TogglePin>
 8001810:	f44f 70fa 	mov.w	r0, #500	@ 0x1f4
 8001814:	f002 f8de 	bl	80039d4 <osDelay>
 8001818:	e7f6      	b.n	8001808 <StartDefaultTask+0x4>
 800181a:	bf00      	nop
 800181c:	40010c00 	.word	0x40010c00

08001820 <HAL_TIM_PeriodElapsedCallback>:
 8001820:	6803      	ldr	r3, [r0, #0]
 8001822:	f1b3 4f80 	cmp.w	r3, #1073741824	@ 0x40000000
 8001826:	d101      	bne.n	800182c <HAL_TIM_PeriodElapsedCallback+0xc>
 8001828:	f000 bce0 	b.w	80021ec <HAL_IncTick>
 800182c:	4770      	bx	lr
	...

08001830 <Error_Handler>:
 8001830:	b508      	push	{r3, lr}
 8001832:	b672      	cpsid	i
 8001834:	4c02      	ldr	r4, [pc, #8]	@ (8001840 <Error_Handler+0x10>)
 8001836:	4620      	mov	r0, r4
 8001838:	f000 fbe4 	bl	8002004 <send_UART3>
 800183c:	e7fb      	b.n	8001836 <Error_Handler+0x6>
 800183e:	bf00      	nop
 8001840:	08009b87 	.word	0x08009b87

08001844 <SystemClock_Config>:
 8001844:	b510      	push	{r4, lr}
 8001846:	b094      	sub	sp, #80	@ 0x50
 8001848:	2214      	movs	r2, #20
 800184a:	2100      	movs	r1, #0
 800184c:	a80c      	add	r0, sp, #48	@ 0x30
 800184e:	f004 f882 	bl	8005956 <memset>
 8001852:	2214      	movs	r2, #20
 8001854:	2100      	movs	r1, #0
 8001856:	eb0d 0002 	add.w	r0, sp, r2
 800185a:	f004 f87c 	bl	8005956 <memset>
 800185e:	2210      	movs	r2, #16
 8001860:	2100      	movs	r1, #0
 8001862:	a801      	add	r0, sp, #4
 8001864:	f004 f877 	bl	8005956 <memset>
 8001868:	2402      	movs	r4, #2
 800186a:	f44f 3380 	mov.w	r3, #65536	@ 0x10000
 800186e:	2201      	movs	r2, #1
 8001870:	e9cd 4311 	strd	r4, r3, [sp, #68]	@ 0x44
 8001874:	e9cd 230a 	strd	r2, r3, [sp, #40]	@ 0x28
 8001878:	f44f 13e0 	mov.w	r3, #1835008	@ 0x1c0000
 800187c:	a80a      	add	r0, sp, #40	@ 0x28
 800187e:	920e      	str	r2, [sp, #56]	@ 0x38
 8001880:	9313      	str	r3, [sp, #76]	@ 0x4c
 8001882:	f001 f82d 	bl	80028e0 <HAL_RCC_OscConfig>
 8001886:	b108      	cbz	r0, 800188c <SystemClock_Config+0x48>
 8001888:	f7ff ffd2 	bl	8001830 <Error_Handler>
 800188c:	230f      	movs	r3, #15
 800188e:	e9cd 3405 	strd	r3, r4, [sp, #20]
 8001892:	f44f 6380 	mov.w	r3, #1024	@ 0x400
 8001896:	9007      	str	r0, [sp, #28]
 8001898:	e9cd 3008 	strd	r3, r0, [sp, #32]
 800189c:	4621      	mov	r1, r4
 800189e:	a805      	add	r0, sp, #20
 80018a0:	f001 f9e0 	bl	8002c64 <HAL_RCC_ClockConfig>
 80018a4:	2800      	cmp	r0, #0
 80018a6:	d1ef      	bne.n	8001888 <SystemClock_Config+0x44>
 80018a8:	f44f 4340 	mov.w	r3, #49152	@ 0xc000
 80018ac:	a801      	add	r0, sp, #4
 80018ae:	9401      	str	r4, [sp, #4]
 80018b0:	9303      	str	r3, [sp, #12]
 80018b2:	f001 fab1 	bl	8002e18 <HAL_RCCEx_PeriphCLKConfig>
 80018b6:	2800      	cmp	r0, #0
 80018b8:	d1e6      	bne.n	8001888 <SystemClock_Config+0x44>
 80018ba:	b014      	add	sp, #80	@ 0x50
 80018bc:	bd10      	pop	{r4, pc}
	...

080018c0 <main>:
 80018c0:	b5f0      	push	{r4, r5, r6, r7, lr}
 80018c2:	b08f      	sub	sp, #60	@ 0x3c
 80018c4:	f000 fc80 	bl	80021c8 <HAL_Init>
 80018c8:	f7ff ffbc 	bl	8001844 <SystemClock_Config>
 80018cc:	2210      	movs	r2, #16
 80018ce:	2100      	movs	r1, #0
 80018d0:	a80a      	add	r0, sp, #40	@ 0x28
 80018d2:	f004 f840 	bl	8005956 <memset>
 80018d6:	4b73      	ldr	r3, [pc, #460]	@ (8001aa4 <main+0x1e4>)
 80018d8:	f44f 41c0 	mov.w	r1, #24576	@ 0x6000
 80018dc:	699a      	ldr	r2, [r3, #24]
 80018de:	4872      	ldr	r0, [pc, #456]	@ (8001aa8 <main+0x1e8>)
 80018e0:	f042 0210 	orr.w	r2, r2, #16
 80018e4:	619a      	str	r2, [r3, #24]
 80018e6:	699a      	ldr	r2, [r3, #24]
 80018e8:	2400      	movs	r4, #0
 80018ea:	f002 0210 	and.w	r2, r2, #16
 80018ee:	9201      	str	r2, [sp, #4]
 80018f0:	9a01      	ldr	r2, [sp, #4]
 80018f2:	699a      	ldr	r2, [r3, #24]
 80018f4:	2701      	movs	r7, #1
 80018f6:	f042 0220 	orr.w	r2, r2, #32
 80018fa:	619a      	str	r2, [r3, #24]
 80018fc:	699a      	ldr	r2, [r3, #24]
 80018fe:	2502      	movs	r5, #2
 8001900:	f002 0220 	and.w	r2, r2, #32
 8001904:	9202      	str	r2, [sp, #8]
 8001906:	9a02      	ldr	r2, [sp, #8]
 8001908:	699a      	ldr	r2, [r3, #24]
 800190a:	f44f 5680 	mov.w	r6, #4096	@ 0x1000
 800190e:	f042 0204 	orr.w	r2, r2, #4
 8001912:	619a      	str	r2, [r3, #24]
 8001914:	699a      	ldr	r2, [r3, #24]
 8001916:	f002 0204 	and.w	r2, r2, #4
 800191a:	9203      	str	r2, [sp, #12]
 800191c:	9a03      	ldr	r2, [sp, #12]
 800191e:	699a      	ldr	r2, [r3, #24]
 8001920:	f042 0208 	orr.w	r2, r2, #8
 8001924:	619a      	str	r2, [r3, #24]
 8001926:	699b      	ldr	r3, [r3, #24]
 8001928:	2200      	movs	r2, #0
 800192a:	f003 0308 	and.w	r3, r3, #8
 800192e:	9304      	str	r3, [sp, #16]
 8001930:	9b04      	ldr	r3, [sp, #16]
 8001932:	f000 ff1f 	bl	8002774 <HAL_GPIO_WritePin>
 8001936:	2200      	movs	r2, #0
 8001938:	f648 0110 	movw	r1, #34832	@ 0x8810
 800193c:	485b      	ldr	r0, [pc, #364]	@ (8001aac <main+0x1ec>)
 800193e:	f000 ff19 	bl	8002774 <HAL_GPIO_WritePin>
 8001942:	2200      	movs	r2, #0
 8001944:	f24e 01fe 	movw	r1, #57598	@ 0xe0fe
 8001948:	4859      	ldr	r0, [pc, #356]	@ (8001ab0 <main+0x1f0>)
 800194a:	f000 ff13 	bl	8002774 <HAL_GPIO_WritePin>
 800194e:	f44f 43c0 	mov.w	r3, #24576	@ 0x6000
 8001952:	4855      	ldr	r0, [pc, #340]	@ (8001aa8 <main+0x1e8>)
 8001954:	a90a      	add	r1, sp, #40	@ 0x28
 8001956:	e9cd 370a 	strd	r3, r7, [sp, #40]	@ 0x28
 800195a:	e9cd 450c 	strd	r4, r5, [sp, #48]	@ 0x30
 800195e:	f000 fe2f 	bl	80025c0 <HAL_GPIO_Init>
 8001962:	f44f 4300 	mov.w	r3, #32768	@ 0x8000
 8001966:	4850      	ldr	r0, [pc, #320]	@ (8001aa8 <main+0x1e8>)
 8001968:	a90a      	add	r1, sp, #40	@ 0x28
 800196a:	e9cd 340a 	strd	r3, r4, [sp, #40]	@ 0x28
 800196e:	940c      	str	r4, [sp, #48]	@ 0x30
 8001970:	f000 fe26 	bl	80025c0 <HAL_GPIO_Init>
 8001974:	23e3      	movs	r3, #227	@ 0xe3
 8001976:	484d      	ldr	r0, [pc, #308]	@ (8001aac <main+0x1ec>)
 8001978:	a90a      	add	r1, sp, #40	@ 0x28
 800197a:	e9cd 340a 	strd	r3, r4, [sp, #40]	@ 0x28
 800197e:	940c      	str	r4, [sp, #48]	@ 0x30
 8001980:	f000 fe1e 	bl	80025c0 <HAL_GPIO_Init>
 8001984:	f648 0310 	movw	r3, #34832	@ 0x8810
 8001988:	4848      	ldr	r0, [pc, #288]	@ (8001aac <main+0x1ec>)
 800198a:	a90a      	add	r1, sp, #40	@ 0x28
 800198c:	e9cd 370a 	strd	r3, r7, [sp, #40]	@ 0x28
 8001990:	e9cd 450c 	strd	r4, r5, [sp, #48]	@ 0x30
 8001994:	f000 fe14 	bl	80025c0 <HAL_GPIO_Init>
 8001998:	f24e 03fe 	movw	r3, #57598	@ 0xe0fe
 800199c:	4844      	ldr	r0, [pc, #272]	@ (8001ab0 <main+0x1f0>)
 800199e:	a90a      	add	r1, sp, #40	@ 0x28
 80019a0:	e9cd 370a 	strd	r3, r7, [sp, #40]	@ 0x28
 80019a4:	e9cd 450c 	strd	r4, r5, [sp, #48]	@ 0x30
 80019a8:	f000 fe0a 	bl	80025c0 <HAL_GPIO_Init>
 80019ac:	4b41      	ldr	r3, [pc, #260]	@ (8001ab4 <main+0x1f4>)
 80019ae:	4840      	ldr	r0, [pc, #256]	@ (8001ab0 <main+0x1f0>)
 80019b0:	a90a      	add	r1, sp, #40	@ 0x28
 80019b2:	e9cd 630a 	strd	r6, r3, [sp, #40]	@ 0x28
 80019b6:	940c      	str	r4, [sp, #48]	@ 0x30
 80019b8:	f000 fe02 	bl	80025c0 <HAL_GPIO_Init>
 80019bc:	483e      	ldr	r0, [pc, #248]	@ (8001ab8 <main+0x1f8>)
 80019be:	4a3f      	ldr	r2, [pc, #252]	@ (8001abc <main+0x1fc>)
 80019c0:	4b3f      	ldr	r3, [pc, #252]	@ (8001ac0 <main+0x200>)
 80019c2:	e9c0 4402 	strd	r4, r4, [r0, #8]
 80019c6:	e9c0 2300 	strd	r2, r3, [r0]
 80019ca:	f44f 4380 	mov.w	r3, #16384	@ 0x4000
 80019ce:	e9c0 4406 	strd	r4, r4, [r0, #24]
 80019d2:	e9c0 3404 	strd	r3, r4, [r0, #16]
 80019d6:	6204      	str	r4, [r0, #32]
 80019d8:	f000 feda 	bl	8002790 <HAL_I2C_Init>
 80019dc:	4604      	mov	r4, r0
 80019de:	b108      	cbz	r0, 80019e4 <main+0x124>
 80019e0:	f7ff ff26 	bl	8001830 <Error_Handler>
 80019e4:	4d37      	ldr	r5, [pc, #220]	@ (8001ac4 <main+0x204>)
 80019e6:	f000 fa97 	bl	8001f18 <MX_USART1_UART_Init>
 80019ea:	f000 fac7 	bl	8001f7c <MX_USART2_UART_Init>
 80019ee:	f000 fae7 	bl	8001fc0 <MX_USART3_UART_Init>
 80019f2:	4b35      	ldr	r3, [pc, #212]	@ (8001ac8 <main+0x208>)
 80019f4:	4628      	mov	r0, r5
 80019f6:	602b      	str	r3, [r5, #0]
 80019f8:	f44f 2360 	mov.w	r3, #917504	@ 0xe0000
 80019fc:	e9cd 4407 	strd	r4, r4, [sp, #28]
 8001a00:	9409      	str	r4, [sp, #36]	@ 0x24
 8001a02:	60ac      	str	r4, [r5, #8]
 8001a04:	732c      	strb	r4, [r5, #12]
 8001a06:	752c      	strb	r4, [r5, #20]
 8001a08:	61eb      	str	r3, [r5, #28]
 8001a0a:	606c      	str	r4, [r5, #4]
 8001a0c:	612f      	str	r7, [r5, #16]
 8001a0e:	f000 fca3 	bl	8002358 <HAL_ADC_Init>
 8001a12:	2800      	cmp	r0, #0
 8001a14:	d1e4      	bne.n	80019e0 <main+0x120>
 8001a16:	2308      	movs	r3, #8
 8001a18:	9009      	str	r0, [sp, #36]	@ 0x24
 8001a1a:	a907      	add	r1, sp, #28
 8001a1c:	4628      	mov	r0, r5
 8001a1e:	e9cd 3707 	strd	r3, r7, [sp, #28]
 8001a22:	f000 fbf5 	bl	8002210 <HAL_ADC_ConfigChannel>
 8001a26:	4604      	mov	r4, r0
 8001a28:	2800      	cmp	r0, #0
 8001a2a:	d1d9      	bne.n	80019e0 <main+0x120>
 8001a2c:	4601      	mov	r1, r0
 8001a2e:	2210      	movs	r2, #16
 8001a30:	a80a      	add	r0, sp, #40	@ 0x28
 8001a32:	f003 ff90 	bl	8005956 <memset>
 8001a36:	4d25      	ldr	r5, [pc, #148]	@ (8001acc <main+0x20c>)
 8001a38:	4b25      	ldr	r3, [pc, #148]	@ (8001ad0 <main+0x210>)
 8001a3a:	4628      	mov	r0, r5
 8001a3c:	e9c5 3400 	strd	r3, r4, [r5]
 8001a40:	f64f 73ff 	movw	r3, #65535	@ 0xffff
 8001a44:	e9cd 4405 	strd	r4, r4, [sp, #20]
 8001a48:	e9c5 3403 	strd	r3, r4, [r5, #12]
 8001a4c:	e9c5 4405 	strd	r4, r4, [r5, #20]
 8001a50:	60ac      	str	r4, [r5, #8]
 8001a52:	f001 fb4f 	bl	80030f4 <HAL_TIM_Base_Init>
 8001a56:	2800      	cmp	r0, #0
 8001a58:	d1c2      	bne.n	80019e0 <main+0x120>
 8001a5a:	4628      	mov	r0, r5
 8001a5c:	a90a      	add	r1, sp, #40	@ 0x28
 8001a5e:	960a      	str	r6, [sp, #40]	@ 0x28
 8001a60:	f001 fb7e 	bl	8003160 <HAL_TIM_ConfigClockSource>
 8001a64:	2800      	cmp	r0, #0
 8001a66:	d1bb      	bne.n	80019e0 <main+0x120>
 8001a68:	e9cd 0005 	strd	r0, r0, [sp, #20]
 8001a6c:	a905      	add	r1, sp, #20
 8001a6e:	4628      	mov	r0, r5
 8001a70:	f001 fc10 	bl	8003294 <HAL_TIMEx_MasterConfigSynchronization>
 8001a74:	4604      	mov	r4, r0
 8001a76:	2800      	cmp	r0, #0
 8001a78:	d1b2      	bne.n	80019e0 <main+0x120>
 8001a7a:	f001 ff3b 	bl	80038f4 <osKernelInitialize>
 8001a7e:	4621      	mov	r1, r4
 8001a80:	4a14      	ldr	r2, [pc, #80]	@ (8001ad4 <main+0x214>)
 8001a82:	4815      	ldr	r0, [pc, #84]	@ (8001ad8 <main+0x218>)
 8001a84:	f001 ff62 	bl	800394c <osThreadNew>
 8001a88:	4b14      	ldr	r3, [pc, #80]	@ (8001adc <main+0x21c>)
 8001a8a:	4621      	mov	r1, r4
 8001a8c:	4a14      	ldr	r2, [pc, #80]	@ (8001ae0 <main+0x220>)
 8001a8e:	6018      	str	r0, [r3, #0]
 8001a90:	4814      	ldr	r0, [pc, #80]	@ (8001ae4 <main+0x224>)
 8001a92:	f001 ff5b 	bl	800394c <osThreadNew>
 8001a96:	4b14      	ldr	r3, [pc, #80]	@ (8001ae8 <main+0x228>)
 8001a98:	6018      	str	r0, [r3, #0]
 8001a9a:	f001 ff3d 	bl	8003918 <osKernelStart>
 8001a9e:	4620      	mov	r0, r4
 8001aa0:	b00f      	add	sp, #60	@ 0x3c
 8001aa2:	bdf0      	pop	{r4, r5, r6, r7, pc}
 8001aa4:	40021000 	.word	0x40021000
 8001aa8:	40011000 	.word	0x40011000
 8001aac:	40010800 	.word	0x40010800
 8001ab0:	40010c00 	.word	0x40010c00
 8001ab4:	10110000 	.word	0x10110000
 8001ab8:	20000254 	.word	0x20000254
 8001abc:	40005400 	.word	0x40005400
 8001ac0:	000186a0 	.word	0x000186a0
 8001ac4:	200002a8 	.word	0x200002a8
 8001ac8:	40012400 	.word	0x40012400
 8001acc:	2000020c 	.word	0x2000020c
 8001ad0:	40012c00 	.word	0x40012c00
 8001ad4:	08009dc0 	.word	0x08009dc0
 8001ad8:	08001805 	.word	0x08001805
 8001adc:	20000208 	.word	0x20000208
 8001ae0:	08009d9c 	.word	0x08009d9c
 8001ae4:	080017f5 	.word	0x080017f5
 8001ae8:	20000204 	.word	0x20000204

08001aec <HAL_MspInit>:
 8001aec:	4b11      	ldr	r3, [pc, #68]	@ (8001b34 <HAL_MspInit+0x48>)
 8001aee:	b507      	push	{r0, r1, r2, lr}
 8001af0:	699a      	ldr	r2, [r3, #24]
 8001af2:	210f      	movs	r1, #15
 8001af4:	f042 0201 	orr.w	r2, r2, #1
 8001af8:	619a      	str	r2, [r3, #24]
 8001afa:	699a      	ldr	r2, [r3, #24]
 8001afc:	f06f 0001 	mvn.w	r0, #1
 8001b00:	f002 0201 	and.w	r2, r2, #1
 8001b04:	9200      	str	r2, [sp, #0]
 8001b06:	9a00      	ldr	r2, [sp, #0]
 8001b08:	69da      	ldr	r2, [r3, #28]
 8001b0a:	f042 5280 	orr.w	r2, r2, #268435456	@ 0x10000000
 8001b0e:	61da      	str	r2, [r3, #28]
 8001b10:	69db      	ldr	r3, [r3, #28]
 8001b12:	2200      	movs	r2, #0
 8001b14:	f003 5380 	and.w	r3, r3, #268435456	@ 0x10000000
 8001b18:	9301      	str	r3, [sp, #4]
 8001b1a:	9b01      	ldr	r3, [sp, #4]
 8001b1c:	f000 fcac 	bl	8002478 <HAL_NVIC_SetPriority>
 8001b20:	4a05      	ldr	r2, [pc, #20]	@ (8001b38 <HAL_MspInit+0x4c>)
 8001b22:	6853      	ldr	r3, [r2, #4]
 8001b24:	f023 63e0 	bic.w	r3, r3, #117440512	@ 0x7000000
 8001b28:	f043 7300 	orr.w	r3, r3, #33554432	@ 0x2000000
 8001b2c:	6053      	str	r3, [r2, #4]
 8001b2e:	b003      	add	sp, #12
 8001b30:	f85d fb04 	ldr.w	pc, [sp], #4
 8001b34:	40021000 	.word	0x40021000
 8001b38:	40010000 	.word	0x40010000

08001b3c <HAL_ADC_MspInit>:
 8001b3c:	b510      	push	{r4, lr}
 8001b3e:	4604      	mov	r4, r0
 8001b40:	b086      	sub	sp, #24
 8001b42:	2210      	movs	r2, #16
 8001b44:	2100      	movs	r1, #0
 8001b46:	a802      	add	r0, sp, #8
 8001b48:	f003 ff05 	bl	8005956 <memset>
 8001b4c:	6822      	ldr	r2, [r4, #0]
 8001b4e:	4b10      	ldr	r3, [pc, #64]	@ (8001b90 <HAL_ADC_MspInit+0x54>)
 8001b50:	429a      	cmp	r2, r3
 8001b52:	d11b      	bne.n	8001b8c <HAL_ADC_MspInit+0x50>
 8001b54:	f503 436c 	add.w	r3, r3, #60416	@ 0xec00
 8001b58:	699a      	ldr	r2, [r3, #24]
 8001b5a:	480e      	ldr	r0, [pc, #56]	@ (8001b94 <HAL_ADC_MspInit+0x58>)
 8001b5c:	f442 7200 	orr.w	r2, r2, #512	@ 0x200
 8001b60:	619a      	str	r2, [r3, #24]
 8001b62:	699a      	ldr	r2, [r3, #24]
 8001b64:	a902      	add	r1, sp, #8
 8001b66:	f402 7200 	and.w	r2, r2, #512	@ 0x200
 8001b6a:	9200      	str	r2, [sp, #0]
 8001b6c:	9a00      	ldr	r2, [sp, #0]
 8001b6e:	699a      	ldr	r2, [r3, #24]
 8001b70:	f042 0208 	orr.w	r2, r2, #8
 8001b74:	619a      	str	r2, [r3, #24]
 8001b76:	699b      	ldr	r3, [r3, #24]
 8001b78:	2201      	movs	r2, #1
 8001b7a:	f003 0308 	and.w	r3, r3, #8
 8001b7e:	9301      	str	r3, [sp, #4]
 8001b80:	9b01      	ldr	r3, [sp, #4]
 8001b82:	2303      	movs	r3, #3
 8001b84:	e9cd 2302 	strd	r2, r3, [sp, #8]
 8001b88:	f000 fd1a 	bl	80025c0 <HAL_GPIO_Init>
 8001b8c:	b006      	add	sp, #24
 8001b8e:	bd10      	pop	{r4, pc}
 8001b90:	40012400 	.word	0x40012400
 8001b94:	40010c00 	.word	0x40010c00

08001b98 <HAL_I2C_MspInit>:
 8001b98:	b510      	push	{r4, lr}
 8001b9a:	4604      	mov	r4, r0
 8001b9c:	b086      	sub	sp, #24
 8001b9e:	2210      	movs	r2, #16
 8001ba0:	2100      	movs	r1, #0
 8001ba2:	a802      	add	r0, sp, #8
 8001ba4:	f003 fed7 	bl	8005956 <memset>
 8001ba8:	6822      	ldr	r2, [r4, #0]
 8001baa:	4b15      	ldr	r3, [pc, #84]	@ (8001c00 <HAL_I2C_MspInit+0x68>)
 8001bac:	429a      	cmp	r2, r3
 8001bae:	d124      	bne.n	8001bfa <HAL_I2C_MspInit+0x62>
 8001bb0:	4c14      	ldr	r4, [pc, #80]	@ (8001c04 <HAL_I2C_MspInit+0x6c>)
 8001bb2:	f44f 7240 	mov.w	r2, #768	@ 0x300
 8001bb6:	69a3      	ldr	r3, [r4, #24]
 8001bb8:	4813      	ldr	r0, [pc, #76]	@ (8001c08 <HAL_I2C_MspInit+0x70>)
 8001bba:	f043 0308 	orr.w	r3, r3, #8
 8001bbe:	61a3      	str	r3, [r4, #24]
 8001bc0:	69a3      	ldr	r3, [r4, #24]
 8001bc2:	a902      	add	r1, sp, #8
 8001bc4:	f003 0308 	and.w	r3, r3, #8
 8001bc8:	9300      	str	r3, [sp, #0]
 8001bca:	9b00      	ldr	r3, [sp, #0]
 8001bcc:	2312      	movs	r3, #18
 8001bce:	e9cd 2302 	strd	r2, r3, [sp, #8]
 8001bd2:	2303      	movs	r3, #3
 8001bd4:	9305      	str	r3, [sp, #20]
 8001bd6:	f000 fcf3 	bl	80025c0 <HAL_GPIO_Init>
 8001bda:	4a0c      	ldr	r2, [pc, #48]	@ (8001c0c <HAL_I2C_MspInit+0x74>)
 8001bdc:	6853      	ldr	r3, [r2, #4]
 8001bde:	f043 63e0 	orr.w	r3, r3, #117440512	@ 0x7000000
 8001be2:	f043 0302 	orr.w	r3, r3, #2
 8001be6:	6053      	str	r3, [r2, #4]
 8001be8:	69e3      	ldr	r3, [r4, #28]
 8001bea:	f443 1300 	orr.w	r3, r3, #2097152	@ 0x200000
 8001bee:	61e3      	str	r3, [r4, #28]
 8001bf0:	69e3      	ldr	r3, [r4, #28]
 8001bf2:	f403 1300 	and.w	r3, r3, #2097152	@ 0x200000
 8001bf6:	9301      	str	r3, [sp, #4]
 8001bf8:	9b01      	ldr	r3, [sp, #4]
 8001bfa:	b006      	add	sp, #24
 8001bfc:	bd10      	pop	{r4, pc}
 8001bfe:	bf00      	nop
 8001c00:	40005400 	.word	0x40005400
 8001c04:	40021000 	.word	0x40021000
 8001c08:	40010c00 	.word	0x40010c00
 8001c0c:	40010000 	.word	0x40010000

08001c10 <HAL_TIM_Base_MspInit>:
 8001c10:	6802      	ldr	r2, [r0, #0]
 8001c12:	4b08      	ldr	r3, [pc, #32]	@ (8001c34 <HAL_TIM_Base_MspInit+0x24>)
 8001c14:	b082      	sub	sp, #8
 8001c16:	429a      	cmp	r2, r3
 8001c18:	d10a      	bne.n	8001c30 <HAL_TIM_Base_MspInit+0x20>
 8001c1a:	f503 4364 	add.w	r3, r3, #58368	@ 0xe400
 8001c1e:	699a      	ldr	r2, [r3, #24]
 8001c20:	f442 6200 	orr.w	r2, r2, #2048	@ 0x800
 8001c24:	619a      	str	r2, [r3, #24]
 8001c26:	699b      	ldr	r3, [r3, #24]
 8001c28:	f403 6300 	and.w	r3, r3, #2048	@ 0x800
 8001c2c:	9301      	str	r3, [sp, #4]
 8001c2e:	9b01      	ldr	r3, [sp, #4]
 8001c30:	b002      	add	sp, #8
 8001c32:	4770      	bx	lr
 8001c34:	40012c00 	.word	0x40012c00

08001c38 <HAL_UART_MspInit>:
 8001c38:	b510      	push	{r4, lr}
 8001c3a:	4604      	mov	r4, r0
 8001c3c:	b08a      	sub	sp, #40	@ 0x28
 8001c3e:	2210      	movs	r2, #16
 8001c40:	2100      	movs	r1, #0
 8001c42:	a806      	add	r0, sp, #24
 8001c44:	f003 fe87 	bl	8005956 <memset>
 8001c48:	6823      	ldr	r3, [r4, #0]
 8001c4a:	4a4b      	ldr	r2, [pc, #300]	@ (8001d78 <HAL_UART_MspInit+0x140>)
 8001c4c:	4293      	cmp	r3, r2
 8001c4e:	d131      	bne.n	8001cb4 <HAL_UART_MspInit+0x7c>
 8001c50:	4b4a      	ldr	r3, [pc, #296]	@ (8001d7c <HAL_UART_MspInit+0x144>)
 8001c52:	f44f 7000 	mov.w	r0, #512	@ 0x200
 8001c56:	699a      	ldr	r2, [r3, #24]
 8001c58:	a906      	add	r1, sp, #24
 8001c5a:	f442 4280 	orr.w	r2, r2, #16384	@ 0x4000
 8001c5e:	619a      	str	r2, [r3, #24]
 8001c60:	699a      	ldr	r2, [r3, #24]
 8001c62:	2400      	movs	r4, #0
 8001c64:	f402 4280 	and.w	r2, r2, #16384	@ 0x4000
 8001c68:	9200      	str	r2, [sp, #0]
 8001c6a:	9a00      	ldr	r2, [sp, #0]
 8001c6c:	699a      	ldr	r2, [r3, #24]
 8001c6e:	f042 0204 	orr.w	r2, r2, #4
 8001c72:	619a      	str	r2, [r3, #24]
 8001c74:	699b      	ldr	r3, [r3, #24]
 8001c76:	f003 0304 	and.w	r3, r3, #4
 8001c7a:	9301      	str	r3, [sp, #4]
 8001c7c:	9b01      	ldr	r3, [sp, #4]
 8001c7e:	2302      	movs	r3, #2
 8001c80:	e9cd 0306 	strd	r0, r3, [sp, #24]
 8001c84:	2303      	movs	r3, #3
 8001c86:	483e      	ldr	r0, [pc, #248]	@ (8001d80 <HAL_UART_MspInit+0x148>)
 8001c88:	9309      	str	r3, [sp, #36]	@ 0x24
 8001c8a:	f000 fc99 	bl	80025c0 <HAL_GPIO_Init>
 8001c8e:	f44f 6380 	mov.w	r3, #1024	@ 0x400
 8001c92:	483b      	ldr	r0, [pc, #236]	@ (8001d80 <HAL_UART_MspInit+0x148>)
 8001c94:	a906      	add	r1, sp, #24
 8001c96:	e9cd 3406 	strd	r3, r4, [sp, #24]
 8001c9a:	9408      	str	r4, [sp, #32]
 8001c9c:	f000 fc90 	bl	80025c0 <HAL_GPIO_Init>
 8001ca0:	2025      	movs	r0, #37	@ 0x25
 8001ca2:	4622      	mov	r2, r4
 8001ca4:	2105      	movs	r1, #5
 8001ca6:	f000 fbe7 	bl	8002478 <HAL_NVIC_SetPriority>
 8001caa:	2025      	movs	r0, #37	@ 0x25
 8001cac:	f000 fc14 	bl	80024d8 <HAL_NVIC_EnableIRQ>
 8001cb0:	b00a      	add	sp, #40	@ 0x28
 8001cb2:	bd10      	pop	{r4, pc}
 8001cb4:	4a33      	ldr	r2, [pc, #204]	@ (8001d84 <HAL_UART_MspInit+0x14c>)
 8001cb6:	4293      	cmp	r3, r2
 8001cb8:	d12c      	bne.n	8001d14 <HAL_UART_MspInit+0xdc>
 8001cba:	4b30      	ldr	r3, [pc, #192]	@ (8001d7c <HAL_UART_MspInit+0x144>)
 8001cbc:	2104      	movs	r1, #4
 8001cbe:	69da      	ldr	r2, [r3, #28]
 8001cc0:	482f      	ldr	r0, [pc, #188]	@ (8001d80 <HAL_UART_MspInit+0x148>)
 8001cc2:	f442 3200 	orr.w	r2, r2, #131072	@ 0x20000
 8001cc6:	61da      	str	r2, [r3, #28]
 8001cc8:	69da      	ldr	r2, [r3, #28]
 8001cca:	2400      	movs	r4, #0
 8001ccc:	f402 3200 	and.w	r2, r2, #131072	@ 0x20000
 8001cd0:	9202      	str	r2, [sp, #8]
 8001cd2:	9a02      	ldr	r2, [sp, #8]
 8001cd4:	699a      	ldr	r2, [r3, #24]
 8001cd6:	f042 0204 	orr.w	r2, r2, #4
 8001cda:	619a      	str	r2, [r3, #24]
 8001cdc:	699b      	ldr	r3, [r3, #24]
 8001cde:	f003 0304 	and.w	r3, r3, #4
 8001ce2:	9303      	str	r3, [sp, #12]
 8001ce4:	9b03      	ldr	r3, [sp, #12]
 8001ce6:	2302      	movs	r3, #2
 8001ce8:	e9cd 1306 	strd	r1, r3, [sp, #24]
 8001cec:	2303      	movs	r3, #3
 8001cee:	a906      	add	r1, sp, #24
 8001cf0:	9309      	str	r3, [sp, #36]	@ 0x24
 8001cf2:	f000 fc65 	bl	80025c0 <HAL_GPIO_Init>
 8001cf6:	2308      	movs	r3, #8
 8001cf8:	4821      	ldr	r0, [pc, #132]	@ (8001d80 <HAL_UART_MspInit+0x148>)
 8001cfa:	a906      	add	r1, sp, #24
 8001cfc:	e9cd 3406 	strd	r3, r4, [sp, #24]
 8001d00:	9408      	str	r4, [sp, #32]
 8001d02:	f000 fc5d 	bl	80025c0 <HAL_GPIO_Init>
 8001d06:	2026      	movs	r0, #38	@ 0x26
 8001d08:	4622      	mov	r2, r4
 8001d0a:	2105      	movs	r1, #5
 8001d0c:	f000 fbb4 	bl	8002478 <HAL_NVIC_SetPriority>
 8001d10:	2026      	movs	r0, #38	@ 0x26
 8001d12:	e7cb      	b.n	8001cac <HAL_UART_MspInit+0x74>
 8001d14:	4a1c      	ldr	r2, [pc, #112]	@ (8001d88 <HAL_UART_MspInit+0x150>)
 8001d16:	4293      	cmp	r3, r2
 8001d18:	d1ca      	bne.n	8001cb0 <HAL_UART_MspInit+0x78>
 8001d1a:	4b18      	ldr	r3, [pc, #96]	@ (8001d7c <HAL_UART_MspInit+0x144>)
 8001d1c:	481b      	ldr	r0, [pc, #108]	@ (8001d8c <HAL_UART_MspInit+0x154>)
 8001d1e:	69da      	ldr	r2, [r3, #28]
 8001d20:	a906      	add	r1, sp, #24
 8001d22:	f442 2280 	orr.w	r2, r2, #262144	@ 0x40000
 8001d26:	61da      	str	r2, [r3, #28]
 8001d28:	69da      	ldr	r2, [r3, #28]
 8001d2a:	2400      	movs	r4, #0
 8001d2c:	f402 2280 	and.w	r2, r2, #262144	@ 0x40000
 8001d30:	9204      	str	r2, [sp, #16]
 8001d32:	9a04      	ldr	r2, [sp, #16]
 8001d34:	699a      	ldr	r2, [r3, #24]
 8001d36:	f042 0208 	orr.w	r2, r2, #8
 8001d3a:	619a      	str	r2, [r3, #24]
 8001d3c:	699b      	ldr	r3, [r3, #24]
 8001d3e:	f44f 6280 	mov.w	r2, #1024	@ 0x400
 8001d42:	f003 0308 	and.w	r3, r3, #8
 8001d46:	9305      	str	r3, [sp, #20]
 8001d48:	9b05      	ldr	r3, [sp, #20]
 8001d4a:	2302      	movs	r3, #2
 8001d4c:	e9cd 2306 	strd	r2, r3, [sp, #24]
 8001d50:	2303      	movs	r3, #3
 8001d52:	9309      	str	r3, [sp, #36]	@ 0x24
 8001d54:	f000 fc34 	bl	80025c0 <HAL_GPIO_Init>
 8001d58:	f44f 6300 	mov.w	r3, #2048	@ 0x800
 8001d5c:	480b      	ldr	r0, [pc, #44]	@ (8001d8c <HAL_UART_MspInit+0x154>)
 8001d5e:	a906      	add	r1, sp, #24
 8001d60:	e9cd 3406 	strd	r3, r4, [sp, #24]
 8001d64:	9408      	str	r4, [sp, #32]
 8001d66:	f000 fc2b 	bl	80025c0 <HAL_GPIO_Init>
 8001d6a:	2027      	movs	r0, #39	@ 0x27
 8001d6c:	4622      	mov	r2, r4
 8001d6e:	2105      	movs	r1, #5
 8001d70:	f000 fb82 	bl	8002478 <HAL_NVIC_SetPriority>
 8001d74:	2027      	movs	r0, #39	@ 0x27
 8001d76:	e799      	b.n	8001cac <HAL_UART_MspInit+0x74>
 8001d78:	40013800 	.word	0x40013800
 8001d7c:	40021000 	.word	0x40021000
 8001d80:	40010800 	.word	0x40010800
 8001d84:	40004400 	.word	0x40004400
 8001d88:	40004800 	.word	0x40004800
 8001d8c:	40010c00 	.word	0x40010c00

08001d90 <HAL_InitTick>:
 8001d90:	b570      	push	{r4, r5, r6, lr}
 8001d92:	4b21      	ldr	r3, [pc, #132]	@ (8001e18 <HAL_InitTick+0x88>)
 8001d94:	b088      	sub	sp, #32
 8001d96:	69da      	ldr	r2, [r3, #28]
 8001d98:	4605      	mov	r5, r0
 8001d9a:	f042 0201 	orr.w	r2, r2, #1
 8001d9e:	61da      	str	r2, [r3, #28]
 8001da0:	69db      	ldr	r3, [r3, #28]
 8001da2:	a901      	add	r1, sp, #4
 8001da4:	f003 0301 	and.w	r3, r3, #1
 8001da8:	9302      	str	r3, [sp, #8]
 8001daa:	a803      	add	r0, sp, #12
 8001dac:	9b02      	ldr	r3, [sp, #8]
 8001dae:	f001 f815 	bl	8002ddc <HAL_RCC_GetClockConfig>
 8001db2:	9b06      	ldr	r3, [sp, #24]
 8001db4:	bb53      	cbnz	r3, 8001e0c <HAL_InitTick+0x7c>
 8001db6:	f000 fff1 	bl	8002d9c <HAL_RCC_GetPCLK1Freq>
 8001dba:	f04f 4380 	mov.w	r3, #1073741824	@ 0x40000000
 8001dbe:	4e17      	ldr	r6, [pc, #92]	@ (8001e1c <HAL_InitTick+0x8c>)
 8001dc0:	6033      	str	r3, [r6, #0]
 8001dc2:	f240 33e7 	movw	r3, #999	@ 0x3e7
 8001dc6:	60f3      	str	r3, [r6, #12]
 8001dc8:	4b15      	ldr	r3, [pc, #84]	@ (8001e20 <HAL_InitTick+0x90>)
 8001dca:	fbb0 f3f3 	udiv	r3, r0, r3
 8001dce:	3b01      	subs	r3, #1
 8001dd0:	6073      	str	r3, [r6, #4]
 8001dd2:	2300      	movs	r3, #0
 8001dd4:	4630      	mov	r0, r6
 8001dd6:	6133      	str	r3, [r6, #16]
 8001dd8:	60b3      	str	r3, [r6, #8]
 8001dda:	61b3      	str	r3, [r6, #24]
 8001ddc:	f001 f98a 	bl	80030f4 <HAL_TIM_Base_Init>
 8001de0:	4604      	mov	r4, r0
 8001de2:	b980      	cbnz	r0, 8001e06 <HAL_InitTick+0x76>
 8001de4:	4630      	mov	r0, r6
 8001de6:	f001 f891 	bl	8002f0c <HAL_TIM_Base_Start_IT>
 8001dea:	4604      	mov	r4, r0
 8001dec:	b958      	cbnz	r0, 8001e06 <HAL_InitTick+0x76>
 8001dee:	201c      	movs	r0, #28
 8001df0:	f000 fb72 	bl	80024d8 <HAL_NVIC_EnableIRQ>
 8001df4:	2d0f      	cmp	r5, #15
 8001df6:	d80d      	bhi.n	8001e14 <HAL_InitTick+0x84>
 8001df8:	4622      	mov	r2, r4
 8001dfa:	4629      	mov	r1, r5
 8001dfc:	201c      	movs	r0, #28
 8001dfe:	f000 fb3b 	bl	8002478 <HAL_NVIC_SetPriority>
 8001e02:	4b08      	ldr	r3, [pc, #32]	@ (8001e24 <HAL_InitTick+0x94>)
 8001e04:	601d      	str	r5, [r3, #0]
 8001e06:	4620      	mov	r0, r4
 8001e08:	b008      	add	sp, #32
 8001e0a:	bd70      	pop	{r4, r5, r6, pc}
 8001e0c:	f000 ffc6 	bl	8002d9c <HAL_RCC_GetPCLK1Freq>
 8001e10:	0040      	lsls	r0, r0, #1
 8001e12:	e7d2      	b.n	8001dba <HAL_InitTick+0x2a>
 8001e14:	2401      	movs	r4, #1
 8001e16:	e7f6      	b.n	8001e06 <HAL_InitTick+0x76>
 8001e18:	40021000 	.word	0x40021000
 8001e1c:	200002d8 	.word	0x200002d8
 8001e20:	000f4240 	.word	0x000f4240
 8001e24:	20000008 	.word	0x20000008

08001e28 <NMI_Handler>:
 8001e28:	e7fe      	b.n	8001e28 <NMI_Handler>

08001e2a <HardFault_Handler>:
 8001e2a:	e7fe      	b.n	8001e2a <HardFault_Handler>

08001e2c <MemManage_Handler>:
 8001e2c:	e7fe      	b.n	8001e2c <MemManage_Handler>

08001e2e <BusFault_Handler>:
 8001e2e:	e7fe      	b.n	8001e2e <BusFault_Handler>

08001e30 <UsageFault_Handler>:
 8001e30:	e7fe      	b.n	8001e30 <UsageFault_Handler>

08001e32 <DebugMon_Handler>:
 8001e32:	4770      	bx	lr

08001e34 <TIM2_IRQHandler>:
 8001e34:	4801      	ldr	r0, [pc, #4]	@ (8001e3c <TIM2_IRQHandler+0x8>)
 8001e36:	f001 b897 	b.w	8002f68 <HAL_TIM_IRQHandler>
 8001e3a:	bf00      	nop
 8001e3c:	200002d8 	.word	0x200002d8

08001e40 <USART1_IRQHandler>:
 8001e40:	4801      	ldr	r0, [pc, #4]	@ (8001e48 <USART1_IRQHandler+0x8>)
 8001e42:	f001 bbd5 	b.w	80035f0 <HAL_UART_IRQHandler>
 8001e46:	bf00      	nop
 8001e48:	20000588 	.word	0x20000588

08001e4c <USART2_IRQHandler>:
 8001e4c:	4801      	ldr	r0, [pc, #4]	@ (8001e54 <USART2_IRQHandler+0x8>)
 8001e4e:	f001 bbcf 	b.w	80035f0 <HAL_UART_IRQHandler>
 8001e52:	bf00      	nop
 8001e54:	2000035c 	.word	0x2000035c

08001e58 <USART3_IRQHandler>:
 8001e58:	4801      	ldr	r0, [pc, #4]	@ (8001e60 <USART3_IRQHandler+0x8>)
 8001e5a:	f001 bbc9 	b.w	80035f0 <HAL_UART_IRQHandler>
 8001e5e:	bf00      	nop
 8001e60:	2000040c 	.word	0x2000040c

08001e64 <_getpid>:
 8001e64:	2001      	movs	r0, #1
 8001e66:	4770      	bx	lr

08001e68 <_kill>:
 8001e68:	b508      	push	{r3, lr}
 8001e6a:	f003 fec5 	bl	8005bf8 <__errno>
 8001e6e:	2316      	movs	r3, #22
 8001e70:	6003      	str	r3, [r0, #0]
 8001e72:	f04f 30ff 	mov.w	r0, #4294967295
 8001e76:	bd08      	pop	{r3, pc}

08001e78 <_exit>:
 8001e78:	b508      	push	{r3, lr}
 8001e7a:	f003 febd 	bl	8005bf8 <__errno>
 8001e7e:	2316      	movs	r3, #22
 8001e80:	6003      	str	r3, [r0, #0]
 8001e82:	e7fe      	b.n	8001e82 <_exit+0xa>

08001e84 <_read>:
 8001e84:	b570      	push	{r4, r5, r6, lr}
 8001e86:	460d      	mov	r5, r1
 8001e88:	4614      	mov	r4, r2
 8001e8a:	460e      	mov	r6, r1
 8001e8c:	1b73      	subs	r3, r6, r5
 8001e8e:	429c      	cmp	r4, r3
 8001e90:	dc01      	bgt.n	8001e96 <_read+0x12>
 8001e92:	4620      	mov	r0, r4
 8001e94:	bd70      	pop	{r4, r5, r6, pc}
 8001e96:	f3af 8000 	nop.w
 8001e9a:	f806 0b01 	strb.w	r0, [r6], #1
 8001e9e:	e7f5      	b.n	8001e8c <_read+0x8>

08001ea0 <_write>:
 8001ea0:	b570      	push	{r4, r5, r6, lr}
 8001ea2:	460d      	mov	r5, r1
 8001ea4:	4614      	mov	r4, r2
 8001ea6:	460e      	mov	r6, r1
 8001ea8:	1b73      	subs	r3, r6, r5
 8001eaa:	429c      	cmp	r4, r3
 8001eac:	dc01      	bgt.n	8001eb2 <_write+0x12>
 8001eae:	4620      	mov	r0, r4
 8001eb0:	bd70      	pop	{r4, r5, r6, pc}
 8001eb2:	f816 0b01 	ldrb.w	r0, [r6], #1
 8001eb6:	f3af 8000 	nop.w
 8001eba:	e7f5      	b.n	8001ea8 <_write+0x8>

08001ebc <_close>:
 8001ebc:	f04f 30ff 	mov.w	r0, #4294967295
 8001ec0:	4770      	bx	lr

08001ec2 <_fstat>:
 8001ec2:	f44f 5300 	mov.w	r3, #8192	@ 0x2000
 8001ec6:	2000      	movs	r0, #0
 8001ec8:	604b      	str	r3, [r1, #4]
 8001eca:	4770      	bx	lr

08001ecc <_isatty>:
 8001ecc:	2001      	movs	r0, #1
 8001ece:	4770      	bx	lr

08001ed0 <_lseek>:
 8001ed0:	2000      	movs	r0, #0
 8001ed2:	4770      	bx	lr

08001ed4 <_sbrk>:
 8001ed4:	4a0b      	ldr	r2, [pc, #44]	@ (8001f04 <_sbrk+0x30>)
 8001ed6:	4603      	mov	r3, r0
 8001ed8:	6811      	ldr	r1, [r2, #0]
 8001eda:	b510      	push	{r4, lr}
 8001edc:	b909      	cbnz	r1, 8001ee2 <_sbrk+0xe>
 8001ede:	490a      	ldr	r1, [pc, #40]	@ (8001f08 <_sbrk+0x34>)
 8001ee0:	6011      	str	r1, [r2, #0]
 8001ee2:	6810      	ldr	r0, [r2, #0]
 8001ee4:	4909      	ldr	r1, [pc, #36]	@ (8001f0c <_sbrk+0x38>)
 8001ee6:	4c0a      	ldr	r4, [pc, #40]	@ (8001f10 <_sbrk+0x3c>)
 8001ee8:	4403      	add	r3, r0
 8001eea:	1b09      	subs	r1, r1, r4
 8001eec:	428b      	cmp	r3, r1
 8001eee:	d906      	bls.n	8001efe <_sbrk+0x2a>
 8001ef0:	f003 fe82 	bl	8005bf8 <__errno>
 8001ef4:	230c      	movs	r3, #12
 8001ef6:	6003      	str	r3, [r0, #0]
 8001ef8:	f04f 30ff 	mov.w	r0, #4294967295
 8001efc:	bd10      	pop	{r4, pc}
 8001efe:	6013      	str	r3, [r2, #0]
 8001f00:	e7fc      	b.n	8001efc <_sbrk+0x28>
 8001f02:	bf00      	nop
 8001f04:	20000320 	.word	0x20000320
 8001f08:	20002108 	.word	0x20002108
 8001f0c:	20005000 	.word	0x20005000
 8001f10:	00000400 	.word	0x00000400

08001f14 <SystemInit>:
 8001f14:	4770      	bx	lr
	...

08001f18 <MX_USART1_UART_Init>:
 8001f18:	b508      	push	{r3, lr}
 8001f1a:	f44f 5316 	mov.w	r3, #9600	@ 0x2580
 8001f1e:	480c      	ldr	r0, [pc, #48]	@ (8001f50 <MX_USART1_UART_Init+0x38>)
 8001f20:	4a0c      	ldr	r2, [pc, #48]	@ (8001f54 <MX_USART1_UART_Init+0x3c>)
 8001f22:	e9c0 2300 	strd	r2, r3, [r0]
 8001f26:	2300      	movs	r3, #0
 8001f28:	220c      	movs	r2, #12
 8001f2a:	e9c0 3302 	strd	r3, r3, [r0, #8]
 8001f2e:	e9c0 2305 	strd	r2, r3, [r0, #20]
 8001f32:	6103      	str	r3, [r0, #16]
 8001f34:	61c3      	str	r3, [r0, #28]
 8001f36:	f001 fa77 	bl	8003428 <HAL_UART_Init>
 8001f3a:	b108      	cbz	r0, 8001f40 <MX_USART1_UART_Init+0x28>
 8001f3c:	f7ff fc78 	bl	8001830 <Error_Handler>
 8001f40:	e8bd 4008 	ldmia.w	sp!, {r3, lr}
 8001f44:	2201      	movs	r2, #1
 8001f46:	4904      	ldr	r1, [pc, #16]	@ (8001f58 <MX_USART1_UART_Init+0x40>)
 8001f48:	4801      	ldr	r0, [pc, #4]	@ (8001f50 <MX_USART1_UART_Init+0x38>)
 8001f4a:	f001 bcb4 	b.w	80038b6 <HAL_UART_Receive_IT>
 8001f4e:	bf00      	nop
 8001f50:	20000588 	.word	0x20000588
 8001f54:	40013800 	.word	0x40013800
 8001f58:	20000586 	.word	0x20000586

08001f5c <send_UART1>:
 8001f5c:	b510      	push	{r4, lr}
 8001f5e:	4604      	mov	r4, r0
 8001f60:	f7fe f900 	bl	8000164 <strlen>
 8001f64:	4621      	mov	r1, r4
 8001f66:	e8bd 4010 	ldmia.w	sp!, {r4, lr}
 8001f6a:	b282      	uxth	r2, r0
 8001f6c:	f04f 33ff 	mov.w	r3, #4294967295
 8001f70:	4801      	ldr	r0, [pc, #4]	@ (8001f78 <send_UART1+0x1c>)
 8001f72:	f001 ba88 	b.w	8003486 <HAL_UART_Transmit>
 8001f76:	bf00      	nop
 8001f78:	20000588 	.word	0x20000588

08001f7c <MX_USART2_UART_Init>:
 8001f7c:	b508      	push	{r3, lr}
 8001f7e:	f44f 5316 	mov.w	r3, #9600	@ 0x2580
 8001f82:	480c      	ldr	r0, [pc, #48]	@ (8001fb4 <MX_USART2_UART_Init+0x38>)
 8001f84:	4a0c      	ldr	r2, [pc, #48]	@ (8001fb8 <MX_USART2_UART_Init+0x3c>)
 8001f86:	e9c0 2300 	strd	r2, r3, [r0]
 8001f8a:	2300      	movs	r3, #0
 8001f8c:	220c      	movs	r2, #12
 8001f8e:	e9c0 3302 	strd	r3, r3, [r0, #8]
 8001f92:	e9c0 2305 	strd	r2, r3, [r0, #20]
 8001f96:	6103      	str	r3, [r0, #16]
 8001f98:	61c3      	str	r3, [r0, #28]
 8001f9a:	f001 fa45 	bl	8003428 <HAL_UART_Init>
 8001f9e:	b108      	cbz	r0, 8001fa4 <MX_USART2_UART_Init+0x28>
 8001fa0:	f7ff fc46 	bl	8001830 <Error_Handler>
 8001fa4:	e8bd 4008 	ldmia.w	sp!, {r3, lr}
 8001fa8:	2201      	movs	r2, #1
 8001faa:	4904      	ldr	r1, [pc, #16]	@ (8001fbc <MX_USART2_UART_Init+0x40>)
 8001fac:	4801      	ldr	r0, [pc, #4]	@ (8001fb4 <MX_USART2_UART_Init+0x38>)
 8001fae:	f001 bc82 	b.w	80038b6 <HAL_UART_Receive_IT>
 8001fb2:	bf00      	nop
 8001fb4:	2000035c 	.word	0x2000035c
 8001fb8:	40004400 	.word	0x40004400
 8001fbc:	20000358 	.word	0x20000358

08001fc0 <MX_USART3_UART_Init>:
 8001fc0:	b508      	push	{r3, lr}
 8001fc2:	f44f 5316 	mov.w	r3, #9600	@ 0x2580
 8001fc6:	480c      	ldr	r0, [pc, #48]	@ (8001ff8 <MX_USART3_UART_Init+0x38>)
 8001fc8:	4a0c      	ldr	r2, [pc, #48]	@ (8001ffc <MX_USART3_UART_Init+0x3c>)
 8001fca:	e9c0 2300 	strd	r2, r3, [r0]
 8001fce:	2300      	movs	r3, #0
 8001fd0:	220c      	movs	r2, #12
 8001fd2:	e9c0 3302 	strd	r3, r3, [r0, #8]
 8001fd6:	e9c0 2305 	strd	r2, r3, [r0, #20]
 8001fda:	6103      	str	r3, [r0, #16]
 8001fdc:	61c3      	str	r3, [r0, #28]
 8001fde:	f001 fa23 	bl	8003428 <HAL_UART_Init>
 8001fe2:	b108      	cbz	r0, 8001fe8 <MX_USART3_UART_Init+0x28>
 8001fe4:	f7ff fc24 	bl	8001830 <Error_Handler>
 8001fe8:	e8bd 4008 	ldmia.w	sp!, {r3, lr}
 8001fec:	2201      	movs	r2, #1
 8001fee:	4904      	ldr	r1, [pc, #16]	@ (8002000 <MX_USART3_UART_Init+0x40>)
 8001ff0:	4801      	ldr	r0, [pc, #4]	@ (8001ff8 <MX_USART3_UART_Init+0x38>)
 8001ff2:	f001 bc60 	b.w	80038b6 <HAL_UART_Receive_IT>
 8001ff6:	bf00      	nop
 8001ff8:	2000040c 	.word	0x2000040c
 8001ffc:	40004800 	.word	0x40004800
 8002000:	2000040a 	.word	0x2000040a

08002004 <send_UART3>:
 8002004:	b510      	push	{r4, lr}
 8002006:	4604      	mov	r4, r0
 8002008:	f7fe f8ac 	bl	8000164 <strlen>
 800200c:	4621      	mov	r1, r4
 800200e:	e8bd 4010 	ldmia.w	sp!, {r4, lr}
 8002012:	b282      	uxth	r2, r0
 8002014:	f04f 33ff 	mov.w	r3, #4294967295
 8002018:	4801      	ldr	r0, [pc, #4]	@ (8002020 <send_UART3+0x1c>)
 800201a:	f001 ba34 	b.w	8003486 <HAL_UART_Transmit>
 800201e:	bf00      	nop
 8002020:	2000040c 	.word	0x2000040c

08002024 <HAL_UART_RxCpltCallback>:
 8002024:	b538      	push	{r3, r4, r5, lr}
 8002026:	6802      	ldr	r2, [r0, #0]
 8002028:	4b2e      	ldr	r3, [pc, #184]	@ (80020e4 <HAL_UART_RxCpltCallback+0xc0>)
 800202a:	4604      	mov	r4, r0
 800202c:	429a      	cmp	r2, r3
 800202e:	d115      	bne.n	800205c <HAL_UART_RxCpltCallback+0x38>
 8002030:	f000 f8e8 	bl	8002204 <HAL_GetTick>
 8002034:	4b2c      	ldr	r3, [pc, #176]	@ (80020e8 <HAL_UART_RxCpltCallback+0xc4>)
 8002036:	492d      	ldr	r1, [pc, #180]	@ (80020ec <HAL_UART_RxCpltCallback+0xc8>)
 8002038:	6018      	str	r0, [r3, #0]
 800203a:	4b2d      	ldr	r3, [pc, #180]	@ (80020f0 <HAL_UART_RxCpltCallback+0xcc>)
 800203c:	7818      	ldrb	r0, [r3, #0]
 800203e:	4b2d      	ldr	r3, [pc, #180]	@ (80020f4 <HAL_UART_RxCpltCallback+0xd0>)
 8002040:	2800      	cmp	r0, #0
 8002042:	d036      	beq.n	80020b2 <HAL_UART_RxCpltCallback+0x8e>
 8002044:	881a      	ldrh	r2, [r3, #0]
 8002046:	f5b2 7f95 	cmp.w	r2, #298	@ 0x12a
 800204a:	d832      	bhi.n	80020b2 <HAL_UART_RxCpltCallback+0x8e>
 800204c:	1c55      	adds	r5, r2, #1
 800204e:	801d      	strh	r5, [r3, #0]
 8002050:	5488      	strb	r0, [r1, r2]
 8002052:	2201      	movs	r2, #1
 8002054:	4926      	ldr	r1, [pc, #152]	@ (80020f0 <HAL_UART_RxCpltCallback+0xcc>)
 8002056:	4828      	ldr	r0, [pc, #160]	@ (80020f8 <HAL_UART_RxCpltCallback+0xd4>)
 8002058:	f001 fc2d 	bl	80038b6 <HAL_UART_Receive_IT>
 800205c:	6822      	ldr	r2, [r4, #0]
 800205e:	4b27      	ldr	r3, [pc, #156]	@ (80020fc <HAL_UART_RxCpltCallback+0xd8>)
 8002060:	429a      	cmp	r2, r3
 8002062:	d110      	bne.n	8002086 <HAL_UART_RxCpltCallback+0x62>
 8002064:	4b26      	ldr	r3, [pc, #152]	@ (8002100 <HAL_UART_RxCpltCallback+0xdc>)
 8002066:	4a27      	ldr	r2, [pc, #156]	@ (8002104 <HAL_UART_RxCpltCallback+0xe0>)
 8002068:	7818      	ldrb	r0, [r3, #0]
 800206a:	4927      	ldr	r1, [pc, #156]	@ (8002108 <HAL_UART_RxCpltCallback+0xe4>)
 800206c:	280d      	cmp	r0, #13
 800206e:	8813      	ldrh	r3, [r2, #0]
 8002070:	d027      	beq.n	80020c2 <HAL_UART_RxCpltCallback+0x9e>
 8002072:	2b62      	cmp	r3, #98	@ 0x62
 8002074:	d825      	bhi.n	80020c2 <HAL_UART_RxCpltCallback+0x9e>
 8002076:	1c5d      	adds	r5, r3, #1
 8002078:	8015      	strh	r5, [r2, #0]
 800207a:	54c8      	strb	r0, [r1, r3]
 800207c:	2201      	movs	r2, #1
 800207e:	4920      	ldr	r1, [pc, #128]	@ (8002100 <HAL_UART_RxCpltCallback+0xdc>)
 8002080:	4822      	ldr	r0, [pc, #136]	@ (800210c <HAL_UART_RxCpltCallback+0xe8>)
 8002082:	f001 fc18 	bl	80038b6 <HAL_UART_Receive_IT>
 8002086:	6822      	ldr	r2, [r4, #0]
 8002088:	4b21      	ldr	r3, [pc, #132]	@ (8002110 <HAL_UART_RxCpltCallback+0xec>)
 800208a:	429a      	cmp	r2, r3
 800208c:	d128      	bne.n	80020e0 <HAL_UART_RxCpltCallback+0xbc>
 800208e:	4b21      	ldr	r3, [pc, #132]	@ (8002114 <HAL_UART_RxCpltCallback+0xf0>)
 8002090:	4a21      	ldr	r2, [pc, #132]	@ (8002118 <HAL_UART_RxCpltCallback+0xf4>)
 8002092:	7819      	ldrb	r1, [r3, #0]
 8002094:	4821      	ldr	r0, [pc, #132]	@ (800211c <HAL_UART_RxCpltCallback+0xf8>)
 8002096:	8813      	ldrh	r3, [r2, #0]
 8002098:	b1d9      	cbz	r1, 80020d2 <HAL_UART_RxCpltCallback+0xae>
 800209a:	2b30      	cmp	r3, #48	@ 0x30
 800209c:	d819      	bhi.n	80020d2 <HAL_UART_RxCpltCallback+0xae>
 800209e:	1c5c      	adds	r4, r3, #1
 80020a0:	8014      	strh	r4, [r2, #0]
 80020a2:	54c1      	strb	r1, [r0, r3]
 80020a4:	2201      	movs	r2, #1
 80020a6:	e8bd 4038 	ldmia.w	sp!, {r3, r4, r5, lr}
 80020aa:	491a      	ldr	r1, [pc, #104]	@ (8002114 <HAL_UART_RxCpltCallback+0xf0>)
 80020ac:	481c      	ldr	r0, [pc, #112]	@ (8002120 <HAL_UART_RxCpltCallback+0xfc>)
 80020ae:	f001 bc02 	b.w	80038b6 <HAL_UART_Receive_IT>
 80020b2:	2200      	movs	r2, #0
 80020b4:	8818      	ldrh	r0, [r3, #0]
 80020b6:	801a      	strh	r2, [r3, #0]
 80020b8:	540a      	strb	r2, [r1, r0]
 80020ba:	2001      	movs	r0, #1
 80020bc:	4919      	ldr	r1, [pc, #100]	@ (8002124 <HAL_UART_RxCpltCallback+0x100>)
 80020be:	7008      	strb	r0, [r1, #0]
 80020c0:	e7c7      	b.n	8002052 <HAL_UART_RxCpltCallback+0x2e>
 80020c2:	200d      	movs	r0, #13
 80020c4:	54c8      	strb	r0, [r1, r3]
 80020c6:	2101      	movs	r1, #1
 80020c8:	4b17      	ldr	r3, [pc, #92]	@ (8002128 <HAL_UART_RxCpltCallback+0x104>)
 80020ca:	7019      	strb	r1, [r3, #0]
 80020cc:	2300      	movs	r3, #0
 80020ce:	8013      	strh	r3, [r2, #0]
 80020d0:	e7d4      	b.n	800207c <HAL_UART_RxCpltCallback+0x58>
 80020d2:	2100      	movs	r1, #0
 80020d4:	54c1      	strb	r1, [r0, r3]
 80020d6:	2001      	movs	r0, #1
 80020d8:	4b14      	ldr	r3, [pc, #80]	@ (800212c <HAL_UART_RxCpltCallback+0x108>)
 80020da:	8011      	strh	r1, [r2, #0]
 80020dc:	7018      	strb	r0, [r3, #0]
 80020de:	e7e1      	b.n	80020a4 <HAL_UART_RxCpltCallback+0x80>
 80020e0:	bd38      	pop	{r3, r4, r5, pc}
 80020e2:	bf00      	nop
 80020e4:	40013800 	.word	0x40013800
 80020e8:	20000454 	.word	0x20000454
 80020ec:	2000045a 	.word	0x2000045a
 80020f0:	20000586 	.word	0x20000586
 80020f4:	20000458 	.word	0x20000458
 80020f8:	20000588 	.word	0x20000588
 80020fc:	40004800 	.word	0x40004800
 8002100:	2000040a 	.word	0x2000040a
 8002104:	200003a4 	.word	0x200003a4
 8002108:	200003a6 	.word	0x200003a6
 800210c:	2000040c 	.word	0x2000040c
 8002110:	40004400 	.word	0x40004400
 8002114:	20000358 	.word	0x20000358
 8002118:	20000324 	.word	0x20000324
 800211c:	20000326 	.word	0x20000326
 8002120:	2000035c 	.word	0x2000035c
 8002124:	20000587 	.word	0x20000587
 8002128:	2000040b 	.word	0x2000040b
 800212c:	20000359 	.word	0x20000359

08002130 <Check_UART1_Timeout>:
 8002130:	b538      	push	{r3, r4, r5, lr}
 8002132:	4d0e      	ldr	r5, [pc, #56]	@ (800216c <Check_UART1_Timeout+0x3c>)
 8002134:	782b      	ldrb	r3, [r5, #0]
 8002136:	b9bb      	cbnz	r3, 8002168 <Check_UART1_Timeout+0x38>
 8002138:	4c0d      	ldr	r4, [pc, #52]	@ (8002170 <Check_UART1_Timeout+0x40>)
 800213a:	8823      	ldrh	r3, [r4, #0]
 800213c:	b1a3      	cbz	r3, 8002168 <Check_UART1_Timeout+0x38>
 800213e:	f000 f861 	bl	8002204 <HAL_GetTick>
 8002142:	4b0c      	ldr	r3, [pc, #48]	@ (8002174 <Check_UART1_Timeout+0x44>)
 8002144:	681b      	ldr	r3, [r3, #0]
 8002146:	1ac0      	subs	r0, r0, r3
 8002148:	28c8      	cmp	r0, #200	@ 0xc8
 800214a:	d90d      	bls.n	8002168 <Check_UART1_Timeout+0x38>
 800214c:	8823      	ldrh	r3, [r4, #0]
 800214e:	490a      	ldr	r1, [pc, #40]	@ (8002178 <Check_UART1_Timeout+0x48>)
 8002150:	f5b3 7f96 	cmp.w	r3, #300	@ 0x12c
 8002154:	bf24      	itt	cs
 8002156:	f240 132b 	movwcs	r3, #299	@ 0x12b
 800215a:	8023      	strhcs	r3, [r4, #0]
 800215c:	2300      	movs	r3, #0
 800215e:	8822      	ldrh	r2, [r4, #0]
 8002160:	8023      	strh	r3, [r4, #0]
 8002162:	548b      	strb	r3, [r1, r2]
 8002164:	2201      	movs	r2, #1
 8002166:	702a      	strb	r2, [r5, #0]
 8002168:	bd38      	pop	{r3, r4, r5, pc}
 800216a:	bf00      	nop
 800216c:	20000587 	.word	0x20000587
 8002170:	20000458 	.word	0x20000458
 8002174:	20000454 	.word	0x20000454
 8002178:	2000045a 	.word	0x2000045a

0800217c <Reset_Handler>:
 800217c:	f7ff feca 	bl	8001f14 <SystemInit>
 8002180:	480b      	ldr	r0, [pc, #44]	@ (80021b0 <LoopFillZerobss+0xe>)
 8002182:	490c      	ldr	r1, [pc, #48]	@ (80021b4 <LoopFillZerobss+0x12>)
 8002184:	4a0c      	ldr	r2, [pc, #48]	@ (80021b8 <LoopFillZerobss+0x16>)
 8002186:	2300      	movs	r3, #0
 8002188:	e002      	b.n	8002190 <LoopCopyDataInit>

0800218a <CopyDataInit>:
 800218a:	58d4      	ldr	r4, [r2, r3]
 800218c:	50c4      	str	r4, [r0, r3]
 800218e:	3304      	adds	r3, #4

08002190 <LoopCopyDataInit>:
 8002190:	18c4      	adds	r4, r0, r3
 8002192:	428c      	cmp	r4, r1
 8002194:	d3f9      	bcc.n	800218a <CopyDataInit>
 8002196:	4a09      	ldr	r2, [pc, #36]	@ (80021bc <LoopFillZerobss+0x1a>)
 8002198:	4c09      	ldr	r4, [pc, #36]	@ (80021c0 <LoopFillZerobss+0x1e>)
 800219a:	2300      	movs	r3, #0
 800219c:	e001      	b.n	80021a2 <LoopFillZerobss>

0800219e <FillZerobss>:
 800219e:	6013      	str	r3, [r2, #0]
 80021a0:	3204      	adds	r2, #4

080021a2 <LoopFillZerobss>:
 80021a2:	42a2      	cmp	r2, r4
 80021a4:	d3fb      	bcc.n	800219e <FillZerobss>
 80021a6:	f003 fd2d 	bl	8005c04 <__libc_init_array>
 80021aa:	f7ff fb89 	bl	80018c0 <main>
 80021ae:	4770      	bx	lr
 80021b0:	20000000 	.word	0x20000000
 80021b4:	200001d8 	.word	0x200001d8
 80021b8:	0800a070 	.word	0x0800a070
 80021bc:	200001d8 	.word	0x200001d8
 80021c0:	20002104 	.word	0x20002104

080021c4 <ADC1_2_IRQHandler>:
 80021c4:	e7fe      	b.n	80021c4 <ADC1_2_IRQHandler>
	...

080021c8 <HAL_Init>:
 80021c8:	4a07      	ldr	r2, [pc, #28]	@ (80021e8 <HAL_Init+0x20>)
 80021ca:	b508      	push	{r3, lr}
 80021cc:	6813      	ldr	r3, [r2, #0]
 80021ce:	2003      	movs	r0, #3
 80021d0:	f043 0310 	orr.w	r3, r3, #16
 80021d4:	6013      	str	r3, [r2, #0]
 80021d6:	f000 f93d 	bl	8002454 <HAL_NVIC_SetPriorityGrouping>
 80021da:	200f      	movs	r0, #15
 80021dc:	f7ff fdd8 	bl	8001d90 <HAL_InitTick>
 80021e0:	f7ff fc84 	bl	8001aec <HAL_MspInit>
 80021e4:	2000      	movs	r0, #0
 80021e6:	bd08      	pop	{r3, pc}
 80021e8:	40022000 	.word	0x40022000

080021ec <HAL_IncTick>:
 80021ec:	4a03      	ldr	r2, [pc, #12]	@ (80021fc <HAL_IncTick+0x10>)
 80021ee:	4b04      	ldr	r3, [pc, #16]	@ (8002200 <HAL_IncTick+0x14>)
 80021f0:	6811      	ldr	r1, [r2, #0]
 80021f2:	781b      	ldrb	r3, [r3, #0]
 80021f4:	440b      	add	r3, r1
 80021f6:	6013      	str	r3, [r2, #0]
 80021f8:	4770      	bx	lr
 80021fa:	bf00      	nop
 80021fc:	200005d0 	.word	0x200005d0
 8002200:	20000004 	.word	0x20000004

08002204 <HAL_GetTick>:
 8002204:	4b01      	ldr	r3, [pc, #4]	@ (800220c <HAL_GetTick+0x8>)
 8002206:	6818      	ldr	r0, [r3, #0]
 8002208:	4770      	bx	lr
 800220a:	bf00      	nop
 800220c:	200005d0 	.word	0x200005d0

08002210 <HAL_ADC_ConfigChannel>:
 8002210:	2300      	movs	r3, #0
 8002212:	b573      	push	{r0, r1, r4, r5, r6, lr}
 8002214:	9301      	str	r3, [sp, #4]
 8002216:	f890 3024 	ldrb.w	r3, [r0, #36]	@ 0x24
 800221a:	4604      	mov	r4, r0
 800221c:	2b01      	cmp	r3, #1
 800221e:	d06c      	beq.n	80022fa <HAL_ADC_ConfigChannel+0xea>
 8002220:	2301      	movs	r3, #1
 8002222:	f880 3024 	strb.w	r3, [r0, #36]	@ 0x24
 8002226:	684d      	ldr	r5, [r1, #4]
 8002228:	6802      	ldr	r2, [r0, #0]
 800222a:	2d06      	cmp	r5, #6
 800222c:	6808      	ldr	r0, [r1, #0]
 800222e:	eb05 0385 	add.w	r3, r5, r5, lsl #2
 8002232:	d822      	bhi.n	800227a <HAL_ADC_ConfigChannel+0x6a>
 8002234:	261f      	movs	r6, #31
 8002236:	6b55      	ldr	r5, [r2, #52]	@ 0x34
 8002238:	3b05      	subs	r3, #5
 800223a:	409e      	lsls	r6, r3
 800223c:	ea25 0506 	bic.w	r5, r5, r6
 8002240:	fa00 f303 	lsl.w	r3, r0, r3
 8002244:	432b      	orrs	r3, r5
 8002246:	6353      	str	r3, [r2, #52]	@ 0x34
 8002248:	2809      	cmp	r0, #9
 800224a:	688b      	ldr	r3, [r1, #8]
 800224c:	eb00 0540 	add.w	r5, r0, r0, lsl #1
 8002250:	f04f 0107 	mov.w	r1, #7
 8002254:	d929      	bls.n	80022aa <HAL_ADC_ConfigChannel+0x9a>
 8002256:	68d6      	ldr	r6, [r2, #12]
 8002258:	3d1e      	subs	r5, #30
 800225a:	40a9      	lsls	r1, r5
 800225c:	ea26 0101 	bic.w	r1, r6, r1
 8002260:	40ab      	lsls	r3, r5
 8002262:	430b      	orrs	r3, r1
 8002264:	60d3      	str	r3, [r2, #12]
 8002266:	f1a0 0310 	sub.w	r3, r0, #16
 800226a:	2b01      	cmp	r3, #1
 800226c:	d925      	bls.n	80022ba <HAL_ADC_ConfigChannel+0xaa>
 800226e:	2000      	movs	r0, #0
 8002270:	2300      	movs	r3, #0
 8002272:	f884 3024 	strb.w	r3, [r4, #36]	@ 0x24
 8002276:	b002      	add	sp, #8
 8002278:	bd70      	pop	{r4, r5, r6, pc}
 800227a:	2d0c      	cmp	r5, #12
 800227c:	f04f 051f 	mov.w	r5, #31
 8002280:	d809      	bhi.n	8002296 <HAL_ADC_ConfigChannel+0x86>
 8002282:	6b16      	ldr	r6, [r2, #48]	@ 0x30
 8002284:	3b23      	subs	r3, #35	@ 0x23
 8002286:	409d      	lsls	r5, r3
 8002288:	ea26 0505 	bic.w	r5, r6, r5
 800228c:	fa00 f303 	lsl.w	r3, r0, r3
 8002290:	432b      	orrs	r3, r5
 8002292:	6313      	str	r3, [r2, #48]	@ 0x30
 8002294:	e7d8      	b.n	8002248 <HAL_ADC_ConfigChannel+0x38>
 8002296:	6ad6      	ldr	r6, [r2, #44]	@ 0x2c
 8002298:	3b41      	subs	r3, #65	@ 0x41
 800229a:	409d      	lsls	r5, r3
 800229c:	ea26 0505 	bic.w	r5, r6, r5
 80022a0:	fa00 f303 	lsl.w	r3, r0, r3
 80022a4:	432b      	orrs	r3, r5
 80022a6:	62d3      	str	r3, [r2, #44]	@ 0x2c
 80022a8:	e7ce      	b.n	8002248 <HAL_ADC_ConfigChannel+0x38>
 80022aa:	6910      	ldr	r0, [r2, #16]
 80022ac:	40a9      	lsls	r1, r5
 80022ae:	ea20 0101 	bic.w	r1, r0, r1
 80022b2:	40ab      	lsls	r3, r5
 80022b4:	430b      	orrs	r3, r1
 80022b6:	6113      	str	r3, [r2, #16]
 80022b8:	e7d9      	b.n	800226e <HAL_ADC_ConfigChannel+0x5e>
 80022ba:	4b11      	ldr	r3, [pc, #68]	@ (8002300 <HAL_ADC_ConfigChannel+0xf0>)
 80022bc:	429a      	cmp	r2, r3
 80022be:	d116      	bne.n	80022ee <HAL_ADC_ConfigChannel+0xde>
 80022c0:	6893      	ldr	r3, [r2, #8]
 80022c2:	021b      	lsls	r3, r3, #8
 80022c4:	d4d3      	bmi.n	800226e <HAL_ADC_ConfigChannel+0x5e>
 80022c6:	6893      	ldr	r3, [r2, #8]
 80022c8:	2810      	cmp	r0, #16
 80022ca:	f443 0300 	orr.w	r3, r3, #8388608	@ 0x800000
 80022ce:	6093      	str	r3, [r2, #8]
 80022d0:	d1cd      	bne.n	800226e <HAL_ADC_ConfigChannel+0x5e>
 80022d2:	4b0c      	ldr	r3, [pc, #48]	@ (8002304 <HAL_ADC_ConfigChannel+0xf4>)
 80022d4:	4a0c      	ldr	r2, [pc, #48]	@ (8002308 <HAL_ADC_ConfigChannel+0xf8>)
 80022d6:	681b      	ldr	r3, [r3, #0]
 80022d8:	fbb3 f3f2 	udiv	r3, r3, r2
 80022dc:	220a      	movs	r2, #10
 80022de:	4353      	muls	r3, r2
 80022e0:	9301      	str	r3, [sp, #4]
 80022e2:	9b01      	ldr	r3, [sp, #4]
 80022e4:	2b00      	cmp	r3, #0
 80022e6:	d0c2      	beq.n	800226e <HAL_ADC_ConfigChannel+0x5e>
 80022e8:	9b01      	ldr	r3, [sp, #4]
 80022ea:	3b01      	subs	r3, #1
 80022ec:	e7f8      	b.n	80022e0 <HAL_ADC_ConfigChannel+0xd0>
 80022ee:	6aa3      	ldr	r3, [r4, #40]	@ 0x28
 80022f0:	2001      	movs	r0, #1
 80022f2:	f043 0320 	orr.w	r3, r3, #32
 80022f6:	62a3      	str	r3, [r4, #40]	@ 0x28
 80022f8:	e7ba      	b.n	8002270 <HAL_ADC_ConfigChannel+0x60>
 80022fa:	2002      	movs	r0, #2
 80022fc:	e7bb      	b.n	8002276 <HAL_ADC_ConfigChannel+0x66>
 80022fe:	bf00      	nop
 8002300:	40012400 	.word	0x40012400
 8002304:	20000000 	.word	0x20000000
 8002308:	000f4240 	.word	0x000f4240

0800230c <ADC_ConversionStop_Disable>:
 800230c:	b538      	push	{r3, r4, r5, lr}
 800230e:	6803      	ldr	r3, [r0, #0]
 8002310:	4604      	mov	r4, r0
 8002312:	689a      	ldr	r2, [r3, #8]
 8002314:	07d1      	lsls	r1, r2, #31
 8002316:	d401      	bmi.n	800231c <ADC_ConversionStop_Disable+0x10>
 8002318:	2000      	movs	r0, #0
 800231a:	bd38      	pop	{r3, r4, r5, pc}
 800231c:	689a      	ldr	r2, [r3, #8]
 800231e:	f022 0201 	bic.w	r2, r2, #1
 8002322:	609a      	str	r2, [r3, #8]
 8002324:	f7ff ff6e 	bl	8002204 <HAL_GetTick>
 8002328:	4605      	mov	r5, r0
 800232a:	6823      	ldr	r3, [r4, #0]
 800232c:	689b      	ldr	r3, [r3, #8]
 800232e:	07db      	lsls	r3, r3, #31
 8002330:	d5f2      	bpl.n	8002318 <ADC_ConversionStop_Disable+0xc>
 8002332:	f7ff ff67 	bl	8002204 <HAL_GetTick>
 8002336:	1b40      	subs	r0, r0, r5
 8002338:	2802      	cmp	r0, #2
 800233a:	d9f6      	bls.n	800232a <ADC_ConversionStop_Disable+0x1e>
 800233c:	6823      	ldr	r3, [r4, #0]
 800233e:	689b      	ldr	r3, [r3, #8]
 8002340:	07da      	lsls	r2, r3, #31
 8002342:	d5f2      	bpl.n	800232a <ADC_ConversionStop_Disable+0x1e>
 8002344:	6aa3      	ldr	r3, [r4, #40]	@ 0x28
 8002346:	2001      	movs	r0, #1
 8002348:	f043 0310 	orr.w	r3, r3, #16
 800234c:	62a3      	str	r3, [r4, #40]	@ 0x28
 800234e:	6ae3      	ldr	r3, [r4, #44]	@ 0x2c
 8002350:	f043 0301 	orr.w	r3, r3, #1
 8002354:	62e3      	str	r3, [r4, #44]	@ 0x2c
 8002356:	e7e0      	b.n	800231a <ADC_ConversionStop_Disable+0xe>

08002358 <HAL_ADC_Init>:
 8002358:	b5f8      	push	{r3, r4, r5, r6, r7, lr}
 800235a:	4604      	mov	r4, r0
 800235c:	2800      	cmp	r0, #0
 800235e:	d06d      	beq.n	800243c <HAL_ADC_Init+0xe4>
 8002360:	6a83      	ldr	r3, [r0, #40]	@ 0x28
 8002362:	b923      	cbnz	r3, 800236e <HAL_ADC_Init+0x16>
 8002364:	62c3      	str	r3, [r0, #44]	@ 0x2c
 8002366:	f880 3024 	strb.w	r3, [r0, #36]	@ 0x24
 800236a:	f7ff fbe7 	bl	8001b3c <HAL_ADC_MspInit>
 800236e:	4620      	mov	r0, r4
 8002370:	f7ff ffcc 	bl	800230c <ADC_ConversionStop_Disable>
 8002374:	6aa3      	ldr	r3, [r4, #40]	@ 0x28
 8002376:	f013 0310 	ands.w	r3, r3, #16
 800237a:	d161      	bne.n	8002440 <HAL_ADC_Init+0xe8>
 800237c:	2800      	cmp	r0, #0
 800237e:	d15f      	bne.n	8002440 <HAL_ADC_Init+0xe8>
 8002380:	6aa2      	ldr	r2, [r4, #40]	@ 0x28
 8002382:	6861      	ldr	r1, [r4, #4]
 8002384:	f422 5288 	bic.w	r2, r2, #4352	@ 0x1100
 8002388:	f022 0202 	bic.w	r2, r2, #2
 800238c:	f042 0202 	orr.w	r2, r2, #2
 8002390:	69e5      	ldr	r5, [r4, #28]
 8002392:	68a6      	ldr	r6, [r4, #8]
 8002394:	62a2      	str	r2, [r4, #40]	@ 0x28
 8002396:	7b22      	ldrb	r2, [r4, #12]
 8002398:	4329      	orrs	r1, r5
 800239a:	f5b6 7f80 	cmp.w	r6, #256	@ 0x100
 800239e:	ea41 0142 	orr.w	r1, r1, r2, lsl #1
 80023a2:	d036      	beq.n	8002412 <HAL_ADC_Init+0xba>
 80023a4:	1e77      	subs	r7, r6, #1
 80023a6:	427d      	negs	r5, r7
 80023a8:	417d      	adcs	r5, r7
 80023aa:	022d      	lsls	r5, r5, #8
 80023ac:	7d27      	ldrb	r7, [r4, #20]
 80023ae:	2f01      	cmp	r7, #1
 80023b0:	d106      	bne.n	80023c0 <HAL_ADC_Init+0x68>
 80023b2:	bb82      	cbnz	r2, 8002416 <HAL_ADC_Init+0xbe>
 80023b4:	69a2      	ldr	r2, [r4, #24]
 80023b6:	3a01      	subs	r2, #1
 80023b8:	ea45 3242 	orr.w	r2, r5, r2, lsl #13
 80023bc:	f442 6500 	orr.w	r5, r2, #2048	@ 0x800
 80023c0:	6822      	ldr	r2, [r4, #0]
 80023c2:	f5b6 7f80 	cmp.w	r6, #256	@ 0x100
 80023c6:	6857      	ldr	r7, [r2, #4]
 80023c8:	f427 4769 	bic.w	r7, r7, #59648	@ 0xe900
 80023cc:	ea45 0507 	orr.w	r5, r5, r7
 80023d0:	6055      	str	r5, [r2, #4]
 80023d2:	6897      	ldr	r7, [r2, #8]
 80023d4:	4d1d      	ldr	r5, [pc, #116]	@ (800244c <HAL_ADC_Init+0xf4>)
 80023d6:	ea05 0507 	and.w	r5, r5, r7
 80023da:	ea45 0501 	orr.w	r5, r5, r1
 80023de:	6095      	str	r5, [r2, #8]
 80023e0:	d001      	beq.n	80023e6 <HAL_ADC_Init+0x8e>
 80023e2:	2e01      	cmp	r6, #1
 80023e4:	d102      	bne.n	80023ec <HAL_ADC_Init+0x94>
 80023e6:	6923      	ldr	r3, [r4, #16]
 80023e8:	3b01      	subs	r3, #1
 80023ea:	051b      	lsls	r3, r3, #20
 80023ec:	6ad5      	ldr	r5, [r2, #44]	@ 0x2c
 80023ee:	f425 0570 	bic.w	r5, r5, #15728640	@ 0xf00000
 80023f2:	432b      	orrs	r3, r5
 80023f4:	62d3      	str	r3, [r2, #44]	@ 0x2c
 80023f6:	6892      	ldr	r2, [r2, #8]
 80023f8:	4b15      	ldr	r3, [pc, #84]	@ (8002450 <HAL_ADC_Init+0xf8>)
 80023fa:	4013      	ands	r3, r2
 80023fc:	4299      	cmp	r1, r3
 80023fe:	d113      	bne.n	8002428 <HAL_ADC_Init+0xd0>
 8002400:	2300      	movs	r3, #0
 8002402:	62e3      	str	r3, [r4, #44]	@ 0x2c
 8002404:	6aa3      	ldr	r3, [r4, #40]	@ 0x28
 8002406:	f023 0303 	bic.w	r3, r3, #3
 800240a:	f043 0301 	orr.w	r3, r3, #1
 800240e:	62a3      	str	r3, [r4, #40]	@ 0x28
 8002410:	bdf8      	pop	{r3, r4, r5, r6, r7, pc}
 8002412:	4635      	mov	r5, r6
 8002414:	e7ca      	b.n	80023ac <HAL_ADC_Init+0x54>
 8002416:	6aa2      	ldr	r2, [r4, #40]	@ 0x28
 8002418:	f042 0220 	orr.w	r2, r2, #32
 800241c:	62a2      	str	r2, [r4, #40]	@ 0x28
 800241e:	6ae2      	ldr	r2, [r4, #44]	@ 0x2c
 8002420:	f042 0201 	orr.w	r2, r2, #1
 8002424:	62e2      	str	r2, [r4, #44]	@ 0x2c
 8002426:	e7cb      	b.n	80023c0 <HAL_ADC_Init+0x68>
 8002428:	6aa3      	ldr	r3, [r4, #40]	@ 0x28
 800242a:	f023 0312 	bic.w	r3, r3, #18
 800242e:	f043 0310 	orr.w	r3, r3, #16
 8002432:	62a3      	str	r3, [r4, #40]	@ 0x28
 8002434:	6ae3      	ldr	r3, [r4, #44]	@ 0x2c
 8002436:	f043 0301 	orr.w	r3, r3, #1
 800243a:	62e3      	str	r3, [r4, #44]	@ 0x2c
 800243c:	2001      	movs	r0, #1
 800243e:	e7e7      	b.n	8002410 <HAL_ADC_Init+0xb8>
 8002440:	6aa3      	ldr	r3, [r4, #40]	@ 0x28
 8002442:	f043 0310 	orr.w	r3, r3, #16
 8002446:	62a3      	str	r3, [r4, #40]	@ 0x28
 8002448:	e7f8      	b.n	800243c <HAL_ADC_Init+0xe4>
 800244a:	bf00      	nop
 800244c:	ffe1f7fd 	.word	0xffe1f7fd
 8002450:	ff1f0efe 	.word	0xff1f0efe

08002454 <HAL_NVIC_SetPriorityGrouping>:
 8002454:	4907      	ldr	r1, [pc, #28]	@ (8002474 <HAL_NVIC_SetPriorityGrouping+0x20>)
 8002456:	0203      	lsls	r3, r0, #8
 8002458:	68ca      	ldr	r2, [r1, #12]
 800245a:	f403 63e0 	and.w	r3, r3, #1792	@ 0x700
 800245e:	f422 62e0 	bic.w	r2, r2, #1792	@ 0x700
 8002462:	0412      	lsls	r2, r2, #16
 8002464:	0c12      	lsrs	r2, r2, #16
 8002466:	4313      	orrs	r3, r2
 8002468:	f043 63bf 	orr.w	r3, r3, #100139008	@ 0x5f80000
 800246c:	f443 3300 	orr.w	r3, r3, #131072	@ 0x20000
 8002470:	60cb      	str	r3, [r1, #12]
 8002472:	4770      	bx	lr
 8002474:	e000ed00 	.word	0xe000ed00

08002478 <HAL_NVIC_SetPriority>:
 8002478:	4b15      	ldr	r3, [pc, #84]	@ (80024d0 <HAL_NVIC_SetPriority+0x58>)
 800247a:	b530      	push	{r4, r5, lr}
 800247c:	68dc      	ldr	r4, [r3, #12]
 800247e:	f3c4 2402 	ubfx	r4, r4, #8, #3
 8002482:	f1c4 0307 	rsb	r3, r4, #7
 8002486:	1d25      	adds	r5, r4, #4
 8002488:	2b04      	cmp	r3, #4
 800248a:	bf28      	it	cs
 800248c:	2304      	movcs	r3, #4
 800248e:	2d06      	cmp	r5, #6
 8002490:	f04f 35ff 	mov.w	r5, #4294967295
 8002494:	bf94      	ite	ls
 8002496:	2400      	movls	r4, #0
 8002498:	3c03      	subhi	r4, #3
 800249a:	fa05 f303 	lsl.w	r3, r5, r3
 800249e:	ea21 0303 	bic.w	r3, r1, r3
 80024a2:	40a5      	lsls	r5, r4
 80024a4:	ea22 0205 	bic.w	r2, r2, r5
 80024a8:	40a3      	lsls	r3, r4
 80024aa:	2800      	cmp	r0, #0
 80024ac:	ea43 0302 	orr.w	r3, r3, r2
 80024b0:	bfac      	ite	ge
 80024b2:	f100 4060 	addge.w	r0, r0, #3758096384	@ 0xe0000000
 80024b6:	4a07      	ldrlt	r2, [pc, #28]	@ (80024d4 <HAL_NVIC_SetPriority+0x5c>)
 80024b8:	ea4f 1303 	mov.w	r3, r3, lsl #4
 80024bc:	b2db      	uxtb	r3, r3
 80024be:	bfab      	itete	ge
 80024c0:	f500 4061 	addge.w	r0, r0, #57600	@ 0xe100
 80024c4:	f000 000f 	andlt.w	r0, r0, #15
 80024c8:	f880 3300 	strbge.w	r3, [r0, #768]	@ 0x300
 80024cc:	5413      	strblt	r3, [r2, r0]
 80024ce:	bd30      	pop	{r4, r5, pc}
 80024d0:	e000ed00 	.word	0xe000ed00
 80024d4:	e000ed14 	.word	0xe000ed14

080024d8 <HAL_NVIC_EnableIRQ>:
 80024d8:	2800      	cmp	r0, #0
 80024da:	db07      	blt.n	80024ec <HAL_NVIC_EnableIRQ+0x14>
 80024dc:	2301      	movs	r3, #1
 80024de:	0941      	lsrs	r1, r0, #5
 80024e0:	4a03      	ldr	r2, [pc, #12]	@ (80024f0 <HAL_NVIC_EnableIRQ+0x18>)
 80024e2:	f000 001f 	and.w	r0, r0, #31
 80024e6:	4083      	lsls	r3, r0
 80024e8:	f842 3021 	str.w	r3, [r2, r1, lsl #2]
 80024ec:	4770      	bx	lr
 80024ee:	bf00      	nop
 80024f0:	e000e100 	.word	0xe000e100

080024f4 <HAL_DMA_Abort>:
 80024f4:	f890 2021 	ldrb.w	r2, [r0, #33]	@ 0x21
 80024f8:	4603      	mov	r3, r0
 80024fa:	2a02      	cmp	r2, #2
 80024fc:	d006      	beq.n	800250c <HAL_DMA_Abort+0x18>
 80024fe:	2204      	movs	r2, #4
 8002500:	6382      	str	r2, [r0, #56]	@ 0x38
 8002502:	2001      	movs	r0, #1
 8002504:	2200      	movs	r2, #0
 8002506:	f883 2020 	strb.w	r2, [r3, #32]
 800250a:	4770      	bx	lr
 800250c:	6802      	ldr	r2, [r0, #0]
 800250e:	6bc0      	ldr	r0, [r0, #60]	@ 0x3c
 8002510:	6811      	ldr	r1, [r2, #0]
 8002512:	f021 010e 	bic.w	r1, r1, #14
 8002516:	6011      	str	r1, [r2, #0]
 8002518:	6811      	ldr	r1, [r2, #0]
 800251a:	f021 0101 	bic.w	r1, r1, #1
 800251e:	6011      	str	r1, [r2, #0]
 8002520:	2101      	movs	r1, #1
 8002522:	6c1a      	ldr	r2, [r3, #64]	@ 0x40
 8002524:	fa01 f202 	lsl.w	r2, r1, r2
 8002528:	6042      	str	r2, [r0, #4]
 800252a:	2000      	movs	r0, #0
 800252c:	f883 1021 	strb.w	r1, [r3, #33]	@ 0x21
 8002530:	e7e8      	b.n	8002504 <HAL_DMA_Abort+0x10>
	...

08002534 <HAL_DMA_Abort_IT>:
 8002534:	b508      	push	{r3, lr}
 8002536:	f890 3021 	ldrb.w	r3, [r0, #33]	@ 0x21
 800253a:	2b02      	cmp	r3, #2
 800253c:	d003      	beq.n	8002546 <HAL_DMA_Abort_IT+0x12>
 800253e:	2304      	movs	r3, #4
 8002540:	6383      	str	r3, [r0, #56]	@ 0x38
 8002542:	2001      	movs	r0, #1
 8002544:	bd08      	pop	{r3, pc}
 8002546:	6803      	ldr	r3, [r0, #0]
 8002548:	681a      	ldr	r2, [r3, #0]
 800254a:	f022 020e 	bic.w	r2, r2, #14
 800254e:	601a      	str	r2, [r3, #0]
 8002550:	681a      	ldr	r2, [r3, #0]
 8002552:	f022 0201 	bic.w	r2, r2, #1
 8002556:	601a      	str	r2, [r3, #0]
 8002558:	4a17      	ldr	r2, [pc, #92]	@ (80025b8 <HAL_DMA_Abort_IT+0x84>)
 800255a:	4293      	cmp	r3, r2
 800255c:	d01f      	beq.n	800259e <HAL_DMA_Abort_IT+0x6a>
 800255e:	3214      	adds	r2, #20
 8002560:	4293      	cmp	r3, r2
 8002562:	d01e      	beq.n	80025a2 <HAL_DMA_Abort_IT+0x6e>
 8002564:	3214      	adds	r2, #20
 8002566:	4293      	cmp	r3, r2
 8002568:	d01d      	beq.n	80025a6 <HAL_DMA_Abort_IT+0x72>
 800256a:	3214      	adds	r2, #20
 800256c:	4293      	cmp	r3, r2
 800256e:	d01d      	beq.n	80025ac <HAL_DMA_Abort_IT+0x78>
 8002570:	3214      	adds	r2, #20
 8002572:	4293      	cmp	r3, r2
 8002574:	d01d      	beq.n	80025b2 <HAL_DMA_Abort_IT+0x7e>
 8002576:	3214      	adds	r2, #20
 8002578:	4293      	cmp	r3, r2
 800257a:	bf14      	ite	ne
 800257c:	f04f 7380 	movne.w	r3, #16777216	@ 0x1000000
 8002580:	f44f 1380 	moveq.w	r3, #1048576	@ 0x100000
 8002584:	4a0d      	ldr	r2, [pc, #52]	@ (80025bc <HAL_DMA_Abort_IT+0x88>)
 8002586:	6053      	str	r3, [r2, #4]
 8002588:	2301      	movs	r3, #1
 800258a:	f880 3021 	strb.w	r3, [r0, #33]	@ 0x21
 800258e:	2300      	movs	r3, #0
 8002590:	f880 3020 	strb.w	r3, [r0, #32]
 8002594:	6b43      	ldr	r3, [r0, #52]	@ 0x34
 8002596:	b103      	cbz	r3, 800259a <HAL_DMA_Abort_IT+0x66>
 8002598:	4798      	blx	r3
 800259a:	2000      	movs	r0, #0
 800259c:	e7d2      	b.n	8002544 <HAL_DMA_Abort_IT+0x10>
 800259e:	2301      	movs	r3, #1
 80025a0:	e7f0      	b.n	8002584 <HAL_DMA_Abort_IT+0x50>
 80025a2:	2310      	movs	r3, #16
 80025a4:	e7ee      	b.n	8002584 <HAL_DMA_Abort_IT+0x50>
 80025a6:	f44f 7380 	mov.w	r3, #256	@ 0x100
 80025aa:	e7eb      	b.n	8002584 <HAL_DMA_Abort_IT+0x50>
 80025ac:	f44f 5380 	mov.w	r3, #4096	@ 0x1000
 80025b0:	e7e8      	b.n	8002584 <HAL_DMA_Abort_IT+0x50>
 80025b2:	f44f 3380 	mov.w	r3, #65536	@ 0x10000
 80025b6:	e7e5      	b.n	8002584 <HAL_DMA_Abort_IT+0x50>
 80025b8:	40020008 	.word	0x40020008
 80025bc:	40020000 	.word	0x40020000

080025c0 <HAL_GPIO_Init>:
 80025c0:	e92d 4ff7 	stmdb	sp!, {r0, r1, r2, r4, r5, r6, r7, r8, r9, sl, fp, lr}
 80025c4:	2400      	movs	r4, #0
 80025c6:	f04f 0e0f 	mov.w	lr, #15
 80025ca:	4626      	mov	r6, r4
 80025cc:	f8df c184 	ldr.w	ip, [pc, #388]	@ 8002754 <HAL_GPIO_Init+0x194>
 80025d0:	4b61      	ldr	r3, [pc, #388]	@ (8002758 <HAL_GPIO_Init+0x198>)
 80025d2:	f100 0804 	add.w	r8, r0, #4
 80025d6:	680a      	ldr	r2, [r1, #0]
 80025d8:	fa32 f506 	lsrs.w	r5, r2, r6
 80025dc:	d102      	bne.n	80025e4 <HAL_GPIO_Init+0x24>
 80025de:	b003      	add	sp, #12
 80025e0:	e8bd 8ff0 	ldmia.w	sp!, {r4, r5, r6, r7, r8, r9, sl, fp, pc}
 80025e4:	2501      	movs	r5, #1
 80025e6:	fa05 f706 	lsl.w	r7, r5, r6
 80025ea:	ea02 0507 	and.w	r5, r2, r7
 80025ee:	ea37 0202 	bics.w	r2, r7, r2
 80025f2:	d176      	bne.n	80026e2 <HAL_GPIO_Init+0x122>
 80025f4:	684a      	ldr	r2, [r1, #4]
 80025f6:	2a03      	cmp	r2, #3
 80025f8:	d807      	bhi.n	800260a <HAL_GPIO_Init+0x4a>
 80025fa:	3a01      	subs	r2, #1
 80025fc:	2a02      	cmp	r2, #2
 80025fe:	f200 8083 	bhi.w	8002708 <HAL_GPIO_Init+0x148>
 8002602:	e8df f002 	tbb	[pc, r2]
 8002606:	9691      	.short	0x9691
 8002608:	9c          	.byte	0x9c
 8002609:	00          	.byte	0x00
 800260a:	2a12      	cmp	r2, #18
 800260c:	f000 8094 	beq.w	8002738 <HAL_GPIO_Init+0x178>
 8002610:	d869      	bhi.n	80026e6 <HAL_GPIO_Init+0x126>
 8002612:	2a11      	cmp	r2, #17
 8002614:	f000 808a 	beq.w	800272c <HAL_GPIO_Init+0x16c>
 8002618:	2dff      	cmp	r5, #255	@ 0xff
 800261a:	bf94      	ite	ls
 800261c:	4681      	movls	r9, r0
 800261e:	46c1      	movhi	r9, r8
 8002620:	ea4f 0286 	mov.w	r2, r6, lsl #2
 8002624:	f8d9 7000 	ldr.w	r7, [r9]
 8002628:	bf88      	it	hi
 800262a:	3a20      	subhi	r2, #32
 800262c:	fa0e fa02 	lsl.w	sl, lr, r2
 8002630:	ea27 070a 	bic.w	r7, r7, sl
 8002634:	fa04 f202 	lsl.w	r2, r4, r2
 8002638:	4317      	orrs	r7, r2
 800263a:	f8c9 7000 	str.w	r7, [r9]
 800263e:	f8d1 9004 	ldr.w	r9, [r1, #4]
 8002642:	f019 5f80 	tst.w	r9, #268435456	@ 0x10000000
 8002646:	d04c      	beq.n	80026e2 <HAL_GPIO_Init+0x122>
 8002648:	f8dc 2018 	ldr.w	r2, [ip, #24]
 800264c:	f026 0703 	bic.w	r7, r6, #3
 8002650:	f042 0201 	orr.w	r2, r2, #1
 8002654:	f8cc 2018 	str.w	r2, [ip, #24]
 8002658:	f8dc 2018 	ldr.w	r2, [ip, #24]
 800265c:	f107 4780 	add.w	r7, r7, #1073741824	@ 0x40000000
 8002660:	f002 0201 	and.w	r2, r2, #1
 8002664:	9201      	str	r2, [sp, #4]
 8002666:	f507 3780 	add.w	r7, r7, #65536	@ 0x10000
 800266a:	f006 0a03 	and.w	sl, r6, #3
 800266e:	9a01      	ldr	r2, [sp, #4]
 8002670:	ea4f 0a8a 	mov.w	sl, sl, lsl #2
 8002674:	68ba      	ldr	r2, [r7, #8]
 8002676:	fa0e fb0a 	lsl.w	fp, lr, sl
 800267a:	ea22 0b0b 	bic.w	fp, r2, fp
 800267e:	4a37      	ldr	r2, [pc, #220]	@ (800275c <HAL_GPIO_Init+0x19c>)
 8002680:	4290      	cmp	r0, r2
 8002682:	d060      	beq.n	8002746 <HAL_GPIO_Init+0x186>
 8002684:	f502 6280 	add.w	r2, r2, #1024	@ 0x400
 8002688:	4290      	cmp	r0, r2
 800268a:	d05e      	beq.n	800274a <HAL_GPIO_Init+0x18a>
 800268c:	f502 6280 	add.w	r2, r2, #1024	@ 0x400
 8002690:	4290      	cmp	r0, r2
 8002692:	d05c      	beq.n	800274e <HAL_GPIO_Init+0x18e>
 8002694:	f502 6280 	add.w	r2, r2, #1024	@ 0x400
 8002698:	4290      	cmp	r0, r2
 800269a:	bf14      	ite	ne
 800269c:	2204      	movne	r2, #4
 800269e:	2203      	moveq	r2, #3
 80026a0:	fa02 f20a 	lsl.w	r2, r2, sl
 80026a4:	ea42 020b 	orr.w	r2, r2, fp
 80026a8:	60ba      	str	r2, [r7, #8]
 80026aa:	689a      	ldr	r2, [r3, #8]
 80026ac:	f419 1f80 	tst.w	r9, #1048576	@ 0x100000
 80026b0:	bf14      	ite	ne
 80026b2:	432a      	orrne	r2, r5
 80026b4:	43aa      	biceq	r2, r5
 80026b6:	609a      	str	r2, [r3, #8]
 80026b8:	68da      	ldr	r2, [r3, #12]
 80026ba:	f419 1f00 	tst.w	r9, #2097152	@ 0x200000
 80026be:	bf14      	ite	ne
 80026c0:	432a      	orrne	r2, r5
 80026c2:	43aa      	biceq	r2, r5
 80026c4:	60da      	str	r2, [r3, #12]
 80026c6:	685a      	ldr	r2, [r3, #4]
 80026c8:	f419 3f00 	tst.w	r9, #131072	@ 0x20000
 80026cc:	bf14      	ite	ne
 80026ce:	432a      	orrne	r2, r5
 80026d0:	43aa      	biceq	r2, r5
 80026d2:	605a      	str	r2, [r3, #4]
 80026d4:	681a      	ldr	r2, [r3, #0]
 80026d6:	f419 3f80 	tst.w	r9, #65536	@ 0x10000
 80026da:	bf14      	ite	ne
 80026dc:	432a      	orrne	r2, r5
 80026de:	43aa      	biceq	r2, r5
 80026e0:	601a      	str	r2, [r3, #0]
 80026e2:	3601      	adds	r6, #1
 80026e4:	e777      	b.n	80025d6 <HAL_GPIO_Init+0x16>
 80026e6:	f8df 9078 	ldr.w	r9, [pc, #120]	@ 8002760 <HAL_GPIO_Init+0x1a0>
 80026ea:	454a      	cmp	r2, r9
 80026ec:	d00c      	beq.n	8002708 <HAL_GPIO_Init+0x148>
 80026ee:	d814      	bhi.n	800271a <HAL_GPIO_Init+0x15a>
 80026f0:	f5a9 1980 	sub.w	r9, r9, #1048576	@ 0x100000
 80026f4:	454a      	cmp	r2, r9
 80026f6:	d007      	beq.n	8002708 <HAL_GPIO_Init+0x148>
 80026f8:	f509 2970 	add.w	r9, r9, #983040	@ 0xf0000
 80026fc:	454a      	cmp	r2, r9
 80026fe:	d003      	beq.n	8002708 <HAL_GPIO_Init+0x148>
 8002700:	f5a9 1980 	sub.w	r9, r9, #1048576	@ 0x100000
 8002704:	454a      	cmp	r2, r9
 8002706:	d187      	bne.n	8002618 <HAL_GPIO_Init+0x58>
 8002708:	688a      	ldr	r2, [r1, #8]
 800270a:	b1d2      	cbz	r2, 8002742 <HAL_GPIO_Init+0x182>
 800270c:	2a01      	cmp	r2, #1
 800270e:	f04f 0408 	mov.w	r4, #8
 8002712:	bf0c      	ite	eq
 8002714:	6107      	streq	r7, [r0, #16]
 8002716:	6147      	strne	r7, [r0, #20]
 8002718:	e77e      	b.n	8002618 <HAL_GPIO_Init+0x58>
 800271a:	f8df 9048 	ldr.w	r9, [pc, #72]	@ 8002764 <HAL_GPIO_Init+0x1a4>
 800271e:	454a      	cmp	r2, r9
 8002720:	d0f2      	beq.n	8002708 <HAL_GPIO_Init+0x148>
 8002722:	f509 3980 	add.w	r9, r9, #65536	@ 0x10000
 8002726:	e7ed      	b.n	8002704 <HAL_GPIO_Init+0x144>
 8002728:	68cc      	ldr	r4, [r1, #12]
 800272a:	e775      	b.n	8002618 <HAL_GPIO_Init+0x58>
 800272c:	68cc      	ldr	r4, [r1, #12]
 800272e:	3404      	adds	r4, #4
 8002730:	e772      	b.n	8002618 <HAL_GPIO_Init+0x58>
 8002732:	68cc      	ldr	r4, [r1, #12]
 8002734:	3408      	adds	r4, #8
 8002736:	e76f      	b.n	8002618 <HAL_GPIO_Init+0x58>
 8002738:	68cc      	ldr	r4, [r1, #12]
 800273a:	340c      	adds	r4, #12
 800273c:	e76c      	b.n	8002618 <HAL_GPIO_Init+0x58>
 800273e:	2400      	movs	r4, #0
 8002740:	e76a      	b.n	8002618 <HAL_GPIO_Init+0x58>
 8002742:	2404      	movs	r4, #4
 8002744:	e768      	b.n	8002618 <HAL_GPIO_Init+0x58>
 8002746:	2200      	movs	r2, #0
 8002748:	e7aa      	b.n	80026a0 <HAL_GPIO_Init+0xe0>
 800274a:	2201      	movs	r2, #1
 800274c:	e7a8      	b.n	80026a0 <HAL_GPIO_Init+0xe0>
 800274e:	2202      	movs	r2, #2
 8002750:	e7a6      	b.n	80026a0 <HAL_GPIO_Init+0xe0>
 8002752:	bf00      	nop
 8002754:	40021000 	.word	0x40021000
 8002758:	40010400 	.word	0x40010400
 800275c:	40010800 	.word	0x40010800
 8002760:	10220000 	.word	0x10220000
 8002764:	10310000 	.word	0x10310000

08002768 <HAL_GPIO_ReadPin>:
 8002768:	6883      	ldr	r3, [r0, #8]
 800276a:	4219      	tst	r1, r3
 800276c:	bf14      	ite	ne
 800276e:	2001      	movne	r0, #1
 8002770:	2000      	moveq	r0, #0
 8002772:	4770      	bx	lr

08002774 <HAL_GPIO_WritePin>:
 8002774:	b10a      	cbz	r2, 800277a <HAL_GPIO_WritePin+0x6>
 8002776:	6101      	str	r1, [r0, #16]
 8002778:	4770      	bx	lr
 800277a:	0409      	lsls	r1, r1, #16
 800277c:	e7fb      	b.n	8002776 <HAL_GPIO_WritePin+0x2>

0800277e <HAL_GPIO_TogglePin>:
 800277e:	68c3      	ldr	r3, [r0, #12]
 8002780:	ea01 0203 	and.w	r2, r1, r3
 8002784:	ea21 0103 	bic.w	r1, r1, r3
 8002788:	ea41 4102 	orr.w	r1, r1, r2, lsl #16
 800278c:	6101      	str	r1, [r0, #16]
 800278e:	4770      	bx	lr

08002790 <HAL_I2C_Init>:
 8002790:	b570      	push	{r4, r5, r6, lr}
 8002792:	4604      	mov	r4, r0
 8002794:	b908      	cbnz	r0, 800279a <HAL_I2C_Init+0xa>
 8002796:	2001      	movs	r0, #1
 8002798:	bd70      	pop	{r4, r5, r6, pc}
 800279a:	f890 303d 	ldrb.w	r3, [r0, #61]	@ 0x3d
 800279e:	f003 02ff 	and.w	r2, r3, #255	@ 0xff
 80027a2:	b91b      	cbnz	r3, 80027ac <HAL_I2C_Init+0x1c>
 80027a4:	f880 203c 	strb.w	r2, [r0, #60]	@ 0x3c
 80027a8:	f7ff f9f6 	bl	8001b98 <HAL_I2C_MspInit>
 80027ac:	2324      	movs	r3, #36	@ 0x24
 80027ae:	f884 303d 	strb.w	r3, [r4, #61]	@ 0x3d
 80027b2:	6823      	ldr	r3, [r4, #0]
 80027b4:	681a      	ldr	r2, [r3, #0]
 80027b6:	f022 0201 	bic.w	r2, r2, #1
 80027ba:	601a      	str	r2, [r3, #0]
 80027bc:	681a      	ldr	r2, [r3, #0]
 80027be:	f442 4200 	orr.w	r2, r2, #32768	@ 0x8000
 80027c2:	601a      	str	r2, [r3, #0]
 80027c4:	681a      	ldr	r2, [r3, #0]
 80027c6:	f422 4200 	bic.w	r2, r2, #32768	@ 0x8000
 80027ca:	601a      	str	r2, [r3, #0]
 80027cc:	f000 fae6 	bl	8002d9c <HAL_RCC_GetPCLK1Freq>
 80027d0:	4b3f      	ldr	r3, [pc, #252]	@ (80028d0 <HAL_I2C_Init+0x140>)
 80027d2:	6865      	ldr	r5, [r4, #4]
 80027d4:	429d      	cmp	r5, r3
 80027d6:	bf94      	ite	ls
 80027d8:	4b3e      	ldrls	r3, [pc, #248]	@ (80028d4 <HAL_I2C_Init+0x144>)
 80027da:	4b3f      	ldrhi	r3, [pc, #252]	@ (80028d8 <HAL_I2C_Init+0x148>)
 80027dc:	4298      	cmp	r0, r3
 80027de:	bf8c      	ite	hi
 80027e0:	2300      	movhi	r3, #0
 80027e2:	2301      	movls	r3, #1
 80027e4:	2b00      	cmp	r3, #0
 80027e6:	d1d6      	bne.n	8002796 <HAL_I2C_Init+0x6>
 80027e8:	4e39      	ldr	r6, [pc, #228]	@ (80028d0 <HAL_I2C_Init+0x140>)
 80027ea:	4b3c      	ldr	r3, [pc, #240]	@ (80028dc <HAL_I2C_Init+0x14c>)
 80027ec:	42b5      	cmp	r5, r6
 80027ee:	fbb0 f3f3 	udiv	r3, r0, r3
 80027f2:	bf88      	it	hi
 80027f4:	f44f 7696 	movhi.w	r6, #300	@ 0x12c
 80027f8:	6822      	ldr	r2, [r4, #0]
 80027fa:	6851      	ldr	r1, [r2, #4]
 80027fc:	f021 013f 	bic.w	r1, r1, #63	@ 0x3f
 8002800:	ea41 0103 	orr.w	r1, r1, r3
 8002804:	bf82      	ittt	hi
 8002806:	4373      	mulhi	r3, r6
 8002808:	f44f 767a 	movhi.w	r6, #1000	@ 0x3e8
 800280c:	fbb3 f3f6 	udivhi	r3, r3, r6
 8002810:	6051      	str	r1, [r2, #4]
 8002812:	6a11      	ldr	r1, [r2, #32]
 8002814:	3301      	adds	r3, #1
 8002816:	f021 013f 	bic.w	r1, r1, #63	@ 0x3f
 800281a:	430b      	orrs	r3, r1
 800281c:	6213      	str	r3, [r2, #32]
 800281e:	69d1      	ldr	r1, [r2, #28]
 8002820:	1e43      	subs	r3, r0, #1
 8002822:	482b      	ldr	r0, [pc, #172]	@ (80028d0 <HAL_I2C_Init+0x140>)
 8002824:	f421 414f 	bic.w	r1, r1, #52992	@ 0xcf00
 8002828:	4285      	cmp	r5, r0
 800282a:	f021 01ff 	bic.w	r1, r1, #255	@ 0xff
 800282e:	d832      	bhi.n	8002896 <HAL_I2C_Init+0x106>
 8002830:	006d      	lsls	r5, r5, #1
 8002832:	fbb3 f3f5 	udiv	r3, r3, r5
 8002836:	f640 70fc 	movw	r0, #4092	@ 0xffc
 800283a:	3301      	adds	r3, #1
 800283c:	4203      	tst	r3, r0
 800283e:	d042      	beq.n	80028c6 <HAL_I2C_Init+0x136>
 8002840:	f3c3 030b 	ubfx	r3, r3, #0, #12
 8002844:	4319      	orrs	r1, r3
 8002846:	61d1      	str	r1, [r2, #28]
 8002848:	6811      	ldr	r1, [r2, #0]
 800284a:	e9d4 3007 	ldrd	r3, r0, [r4, #28]
 800284e:	f021 01c0 	bic.w	r1, r1, #192	@ 0xc0
 8002852:	4303      	orrs	r3, r0
 8002854:	430b      	orrs	r3, r1
 8002856:	6013      	str	r3, [r2, #0]
 8002858:	6891      	ldr	r1, [r2, #8]
 800285a:	e9d4 0303 	ldrd	r0, r3, [r4, #12]
 800285e:	f421 4103 	bic.w	r1, r1, #33536	@ 0x8300
 8002862:	4303      	orrs	r3, r0
 8002864:	f021 01ff 	bic.w	r1, r1, #255	@ 0xff
 8002868:	430b      	orrs	r3, r1
 800286a:	6093      	str	r3, [r2, #8]
 800286c:	68d1      	ldr	r1, [r2, #12]
 800286e:	e9d4 3005 	ldrd	r3, r0, [r4, #20]
 8002872:	f021 01ff 	bic.w	r1, r1, #255	@ 0xff
 8002876:	4303      	orrs	r3, r0
 8002878:	430b      	orrs	r3, r1
 800287a:	60d3      	str	r3, [r2, #12]
 800287c:	6813      	ldr	r3, [r2, #0]
 800287e:	2000      	movs	r0, #0
 8002880:	f043 0301 	orr.w	r3, r3, #1
 8002884:	6013      	str	r3, [r2, #0]
 8002886:	2320      	movs	r3, #32
 8002888:	6420      	str	r0, [r4, #64]	@ 0x40
 800288a:	f884 303d 	strb.w	r3, [r4, #61]	@ 0x3d
 800288e:	6320      	str	r0, [r4, #48]	@ 0x30
 8002890:	f884 003e 	strb.w	r0, [r4, #62]	@ 0x3e
 8002894:	e780      	b.n	8002798 <HAL_I2C_Init+0x8>
 8002896:	68a0      	ldr	r0, [r4, #8]
 8002898:	b950      	cbnz	r0, 80028b0 <HAL_I2C_Init+0x120>
 800289a:	eb05 0545 	add.w	r5, r5, r5, lsl #1
 800289e:	fbb3 f3f5 	udiv	r3, r3, r5
 80028a2:	3301      	adds	r3, #1
 80028a4:	f3c3 030b 	ubfx	r3, r3, #0, #12
 80028a8:	b17b      	cbz	r3, 80028ca <HAL_I2C_Init+0x13a>
 80028aa:	f443 4300 	orr.w	r3, r3, #32768	@ 0x8000
 80028ae:	e7c9      	b.n	8002844 <HAL_I2C_Init+0xb4>
 80028b0:	2019      	movs	r0, #25
 80028b2:	4368      	muls	r0, r5
 80028b4:	fbb3 f3f0 	udiv	r3, r3, r0
 80028b8:	3301      	adds	r3, #1
 80028ba:	f3c3 030b 	ubfx	r3, r3, #0, #12
 80028be:	b123      	cbz	r3, 80028ca <HAL_I2C_Init+0x13a>
 80028c0:	f443 4340 	orr.w	r3, r3, #49152	@ 0xc000
 80028c4:	e7be      	b.n	8002844 <HAL_I2C_Init+0xb4>
 80028c6:	2304      	movs	r3, #4
 80028c8:	e7bc      	b.n	8002844 <HAL_I2C_Init+0xb4>
 80028ca:	2301      	movs	r3, #1
 80028cc:	e7ba      	b.n	8002844 <HAL_I2C_Init+0xb4>
 80028ce:	bf00      	nop
 80028d0:	000186a0 	.word	0x000186a0
 80028d4:	001e847f 	.word	0x001e847f
 80028d8:	003d08ff 	.word	0x003d08ff
 80028dc:	000f4240 	.word	0x000f4240

080028e0 <HAL_RCC_OscConfig>:
 80028e0:	e92d 41f3 	stmdb	sp!, {r0, r1, r4, r5, r6, r7, r8, lr}
 80028e4:	4605      	mov	r5, r0
 80028e6:	b338      	cbz	r0, 8002938 <HAL_RCC_OscConfig+0x58>
 80028e8:	6803      	ldr	r3, [r0, #0]
 80028ea:	07db      	lsls	r3, r3, #31
 80028ec:	d410      	bmi.n	8002910 <HAL_RCC_OscConfig+0x30>
 80028ee:	682b      	ldr	r3, [r5, #0]
 80028f0:	079f      	lsls	r7, r3, #30
 80028f2:	d45e      	bmi.n	80029b2 <HAL_RCC_OscConfig+0xd2>
 80028f4:	682b      	ldr	r3, [r5, #0]
 80028f6:	0719      	lsls	r1, r3, #28
 80028f8:	f100 8095 	bmi.w	8002a26 <HAL_RCC_OscConfig+0x146>
 80028fc:	682b      	ldr	r3, [r5, #0]
 80028fe:	075a      	lsls	r2, r3, #29
 8002900:	f100 80c1 	bmi.w	8002a86 <HAL_RCC_OscConfig+0x1a6>
 8002904:	69eb      	ldr	r3, [r5, #28]
 8002906:	2b00      	cmp	r3, #0
 8002908:	f040 812c 	bne.w	8002b64 <HAL_RCC_OscConfig+0x284>
 800290c:	2000      	movs	r0, #0
 800290e:	e029      	b.n	8002964 <HAL_RCC_OscConfig+0x84>
 8002910:	4c90      	ldr	r4, [pc, #576]	@ (8002b54 <HAL_RCC_OscConfig+0x274>)
 8002912:	6863      	ldr	r3, [r4, #4]
 8002914:	f003 030c 	and.w	r3, r3, #12
 8002918:	2b04      	cmp	r3, #4
 800291a:	d007      	beq.n	800292c <HAL_RCC_OscConfig+0x4c>
 800291c:	6863      	ldr	r3, [r4, #4]
 800291e:	f003 030c 	and.w	r3, r3, #12
 8002922:	2b08      	cmp	r3, #8
 8002924:	d10a      	bne.n	800293c <HAL_RCC_OscConfig+0x5c>
 8002926:	6863      	ldr	r3, [r4, #4]
 8002928:	03de      	lsls	r6, r3, #15
 800292a:	d507      	bpl.n	800293c <HAL_RCC_OscConfig+0x5c>
 800292c:	6823      	ldr	r3, [r4, #0]
 800292e:	039c      	lsls	r4, r3, #14
 8002930:	d5dd      	bpl.n	80028ee <HAL_RCC_OscConfig+0xe>
 8002932:	686b      	ldr	r3, [r5, #4]
 8002934:	2b00      	cmp	r3, #0
 8002936:	d1da      	bne.n	80028ee <HAL_RCC_OscConfig+0xe>
 8002938:	2001      	movs	r0, #1
 800293a:	e013      	b.n	8002964 <HAL_RCC_OscConfig+0x84>
 800293c:	686b      	ldr	r3, [r5, #4]
 800293e:	f5b3 3f80 	cmp.w	r3, #65536	@ 0x10000
 8002942:	d112      	bne.n	800296a <HAL_RCC_OscConfig+0x8a>
 8002944:	6823      	ldr	r3, [r4, #0]
 8002946:	f443 3380 	orr.w	r3, r3, #65536	@ 0x10000
 800294a:	6023      	str	r3, [r4, #0]
 800294c:	f7ff fc5a 	bl	8002204 <HAL_GetTick>
 8002950:	4606      	mov	r6, r0
 8002952:	6823      	ldr	r3, [r4, #0]
 8002954:	0398      	lsls	r0, r3, #14
 8002956:	d4ca      	bmi.n	80028ee <HAL_RCC_OscConfig+0xe>
 8002958:	f7ff fc54 	bl	8002204 <HAL_GetTick>
 800295c:	1b80      	subs	r0, r0, r6
 800295e:	2864      	cmp	r0, #100	@ 0x64
 8002960:	d9f7      	bls.n	8002952 <HAL_RCC_OscConfig+0x72>
 8002962:	2003      	movs	r0, #3
 8002964:	b002      	add	sp, #8
 8002966:	e8bd 81f0 	ldmia.w	sp!, {r4, r5, r6, r7, r8, pc}
 800296a:	b99b      	cbnz	r3, 8002994 <HAL_RCC_OscConfig+0xb4>
 800296c:	6823      	ldr	r3, [r4, #0]
 800296e:	f423 3380 	bic.w	r3, r3, #65536	@ 0x10000
 8002972:	6023      	str	r3, [r4, #0]
 8002974:	6823      	ldr	r3, [r4, #0]
 8002976:	f423 2380 	bic.w	r3, r3, #262144	@ 0x40000
 800297a:	6023      	str	r3, [r4, #0]
 800297c:	f7ff fc42 	bl	8002204 <HAL_GetTick>
 8002980:	4606      	mov	r6, r0
 8002982:	6823      	ldr	r3, [r4, #0]
 8002984:	0399      	lsls	r1, r3, #14
 8002986:	d5b2      	bpl.n	80028ee <HAL_RCC_OscConfig+0xe>
 8002988:	f7ff fc3c 	bl	8002204 <HAL_GetTick>
 800298c:	1b80      	subs	r0, r0, r6
 800298e:	2864      	cmp	r0, #100	@ 0x64
 8002990:	d9f7      	bls.n	8002982 <HAL_RCC_OscConfig+0xa2>
 8002992:	e7e6      	b.n	8002962 <HAL_RCC_OscConfig+0x82>
 8002994:	f5b3 2fa0 	cmp.w	r3, #327680	@ 0x50000
 8002998:	6823      	ldr	r3, [r4, #0]
 800299a:	d103      	bne.n	80029a4 <HAL_RCC_OscConfig+0xc4>
 800299c:	f443 2380 	orr.w	r3, r3, #262144	@ 0x40000
 80029a0:	6023      	str	r3, [r4, #0]
 80029a2:	e7cf      	b.n	8002944 <HAL_RCC_OscConfig+0x64>
 80029a4:	f423 3380 	bic.w	r3, r3, #65536	@ 0x10000
 80029a8:	6023      	str	r3, [r4, #0]
 80029aa:	6823      	ldr	r3, [r4, #0]
 80029ac:	f423 2380 	bic.w	r3, r3, #262144	@ 0x40000
 80029b0:	e7cb      	b.n	800294a <HAL_RCC_OscConfig+0x6a>
 80029b2:	4c68      	ldr	r4, [pc, #416]	@ (8002b54 <HAL_RCC_OscConfig+0x274>)
 80029b4:	6863      	ldr	r3, [r4, #4]
 80029b6:	f013 0f0c 	tst.w	r3, #12
 80029ba:	d007      	beq.n	80029cc <HAL_RCC_OscConfig+0xec>
 80029bc:	6863      	ldr	r3, [r4, #4]
 80029be:	f003 030c 	and.w	r3, r3, #12
 80029c2:	2b08      	cmp	r3, #8
 80029c4:	d110      	bne.n	80029e8 <HAL_RCC_OscConfig+0x108>
 80029c6:	6863      	ldr	r3, [r4, #4]
 80029c8:	03da      	lsls	r2, r3, #15
 80029ca:	d40d      	bmi.n	80029e8 <HAL_RCC_OscConfig+0x108>
 80029cc:	6823      	ldr	r3, [r4, #0]
 80029ce:	079b      	lsls	r3, r3, #30
 80029d0:	d502      	bpl.n	80029d8 <HAL_RCC_OscConfig+0xf8>
 80029d2:	692b      	ldr	r3, [r5, #16]
 80029d4:	2b01      	cmp	r3, #1
 80029d6:	d1af      	bne.n	8002938 <HAL_RCC_OscConfig+0x58>
 80029d8:	6823      	ldr	r3, [r4, #0]
 80029da:	696a      	ldr	r2, [r5, #20]
 80029dc:	f023 03f8 	bic.w	r3, r3, #248	@ 0xf8
 80029e0:	ea43 03c2 	orr.w	r3, r3, r2, lsl #3
 80029e4:	6023      	str	r3, [r4, #0]
 80029e6:	e785      	b.n	80028f4 <HAL_RCC_OscConfig+0x14>
 80029e8:	692a      	ldr	r2, [r5, #16]
 80029ea:	4b5b      	ldr	r3, [pc, #364]	@ (8002b58 <HAL_RCC_OscConfig+0x278>)
 80029ec:	b16a      	cbz	r2, 8002a0a <HAL_RCC_OscConfig+0x12a>
 80029ee:	2201      	movs	r2, #1
 80029f0:	601a      	str	r2, [r3, #0]
 80029f2:	f7ff fc07 	bl	8002204 <HAL_GetTick>
 80029f6:	4606      	mov	r6, r0
 80029f8:	6823      	ldr	r3, [r4, #0]
 80029fa:	079f      	lsls	r7, r3, #30
 80029fc:	d4ec      	bmi.n	80029d8 <HAL_RCC_OscConfig+0xf8>
 80029fe:	f7ff fc01 	bl	8002204 <HAL_GetTick>
 8002a02:	1b80      	subs	r0, r0, r6
 8002a04:	2802      	cmp	r0, #2
 8002a06:	d9f7      	bls.n	80029f8 <HAL_RCC_OscConfig+0x118>
 8002a08:	e7ab      	b.n	8002962 <HAL_RCC_OscConfig+0x82>
 8002a0a:	601a      	str	r2, [r3, #0]
 8002a0c:	f7ff fbfa 	bl	8002204 <HAL_GetTick>
 8002a10:	4606      	mov	r6, r0
 8002a12:	6823      	ldr	r3, [r4, #0]
 8002a14:	0798      	lsls	r0, r3, #30
 8002a16:	f57f af6d 	bpl.w	80028f4 <HAL_RCC_OscConfig+0x14>
 8002a1a:	f7ff fbf3 	bl	8002204 <HAL_GetTick>
 8002a1e:	1b80      	subs	r0, r0, r6
 8002a20:	2802      	cmp	r0, #2
 8002a22:	d9f6      	bls.n	8002a12 <HAL_RCC_OscConfig+0x132>
 8002a24:	e79d      	b.n	8002962 <HAL_RCC_OscConfig+0x82>
 8002a26:	69aa      	ldr	r2, [r5, #24]
 8002a28:	4e4a      	ldr	r6, [pc, #296]	@ (8002b54 <HAL_RCC_OscConfig+0x274>)
 8002a2a:	4b4b      	ldr	r3, [pc, #300]	@ (8002b58 <HAL_RCC_OscConfig+0x278>)
 8002a2c:	b1e2      	cbz	r2, 8002a68 <HAL_RCC_OscConfig+0x188>
 8002a2e:	2201      	movs	r2, #1
 8002a30:	f8c3 2480 	str.w	r2, [r3, #1152]	@ 0x480
 8002a34:	f7ff fbe6 	bl	8002204 <HAL_GetTick>
 8002a38:	4604      	mov	r4, r0
 8002a3a:	6a73      	ldr	r3, [r6, #36]	@ 0x24
 8002a3c:	079b      	lsls	r3, r3, #30
 8002a3e:	d50d      	bpl.n	8002a5c <HAL_RCC_OscConfig+0x17c>
 8002a40:	f44f 52fa 	mov.w	r2, #8000	@ 0x1f40
 8002a44:	4b45      	ldr	r3, [pc, #276]	@ (8002b5c <HAL_RCC_OscConfig+0x27c>)
 8002a46:	681b      	ldr	r3, [r3, #0]
 8002a48:	fbb3 f3f2 	udiv	r3, r3, r2
 8002a4c:	9301      	str	r3, [sp, #4]
 8002a4e:	bf00      	nop
 8002a50:	9b01      	ldr	r3, [sp, #4]
 8002a52:	1e5a      	subs	r2, r3, #1
 8002a54:	9201      	str	r2, [sp, #4]
 8002a56:	2b00      	cmp	r3, #0
 8002a58:	d1f9      	bne.n	8002a4e <HAL_RCC_OscConfig+0x16e>
 8002a5a:	e74f      	b.n	80028fc <HAL_RCC_OscConfig+0x1c>
 8002a5c:	f7ff fbd2 	bl	8002204 <HAL_GetTick>
 8002a60:	1b00      	subs	r0, r0, r4
 8002a62:	2802      	cmp	r0, #2
 8002a64:	d9e9      	bls.n	8002a3a <HAL_RCC_OscConfig+0x15a>
 8002a66:	e77c      	b.n	8002962 <HAL_RCC_OscConfig+0x82>
 8002a68:	f8c3 2480 	str.w	r2, [r3, #1152]	@ 0x480
 8002a6c:	f7ff fbca 	bl	8002204 <HAL_GetTick>
 8002a70:	4604      	mov	r4, r0
 8002a72:	6a73      	ldr	r3, [r6, #36]	@ 0x24
 8002a74:	079f      	lsls	r7, r3, #30
 8002a76:	f57f af41 	bpl.w	80028fc <HAL_RCC_OscConfig+0x1c>
 8002a7a:	f7ff fbc3 	bl	8002204 <HAL_GetTick>
 8002a7e:	1b00      	subs	r0, r0, r4
 8002a80:	2802      	cmp	r0, #2
 8002a82:	d9f6      	bls.n	8002a72 <HAL_RCC_OscConfig+0x192>
 8002a84:	e76d      	b.n	8002962 <HAL_RCC_OscConfig+0x82>
 8002a86:	4c33      	ldr	r4, [pc, #204]	@ (8002b54 <HAL_RCC_OscConfig+0x274>)
 8002a88:	69e3      	ldr	r3, [r4, #28]
 8002a8a:	00d8      	lsls	r0, r3, #3
 8002a8c:	d424      	bmi.n	8002ad8 <HAL_RCC_OscConfig+0x1f8>
 8002a8e:	2701      	movs	r7, #1
 8002a90:	69e3      	ldr	r3, [r4, #28]
 8002a92:	f043 5380 	orr.w	r3, r3, #268435456	@ 0x10000000
 8002a96:	61e3      	str	r3, [r4, #28]
 8002a98:	69e3      	ldr	r3, [r4, #28]
 8002a9a:	f003 5380 	and.w	r3, r3, #268435456	@ 0x10000000
 8002a9e:	9300      	str	r3, [sp, #0]
 8002aa0:	9b00      	ldr	r3, [sp, #0]
 8002aa2:	4e2f      	ldr	r6, [pc, #188]	@ (8002b60 <HAL_RCC_OscConfig+0x280>)
 8002aa4:	6833      	ldr	r3, [r6, #0]
 8002aa6:	05d9      	lsls	r1, r3, #23
 8002aa8:	d518      	bpl.n	8002adc <HAL_RCC_OscConfig+0x1fc>
 8002aaa:	68eb      	ldr	r3, [r5, #12]
 8002aac:	2b01      	cmp	r3, #1
 8002aae:	d126      	bne.n	8002afe <HAL_RCC_OscConfig+0x21e>
 8002ab0:	6a23      	ldr	r3, [r4, #32]
 8002ab2:	f043 0301 	orr.w	r3, r3, #1
 8002ab6:	6223      	str	r3, [r4, #32]
 8002ab8:	f7ff fba4 	bl	8002204 <HAL_GetTick>
 8002abc:	f241 3888 	movw	r8, #5000	@ 0x1388
 8002ac0:	4606      	mov	r6, r0
 8002ac2:	6a23      	ldr	r3, [r4, #32]
 8002ac4:	079b      	lsls	r3, r3, #30
 8002ac6:	d53f      	bpl.n	8002b48 <HAL_RCC_OscConfig+0x268>
 8002ac8:	2f00      	cmp	r7, #0
 8002aca:	f43f af1b 	beq.w	8002904 <HAL_RCC_OscConfig+0x24>
 8002ace:	69e3      	ldr	r3, [r4, #28]
 8002ad0:	f023 5380 	bic.w	r3, r3, #268435456	@ 0x10000000
 8002ad4:	61e3      	str	r3, [r4, #28]
 8002ad6:	e715      	b.n	8002904 <HAL_RCC_OscConfig+0x24>
 8002ad8:	2700      	movs	r7, #0
 8002ada:	e7e2      	b.n	8002aa2 <HAL_RCC_OscConfig+0x1c2>
 8002adc:	6833      	ldr	r3, [r6, #0]
 8002ade:	f443 7380 	orr.w	r3, r3, #256	@ 0x100
 8002ae2:	6033      	str	r3, [r6, #0]
 8002ae4:	f7ff fb8e 	bl	8002204 <HAL_GetTick>
 8002ae8:	4680      	mov	r8, r0
 8002aea:	6833      	ldr	r3, [r6, #0]
 8002aec:	05da      	lsls	r2, r3, #23
 8002aee:	d4dc      	bmi.n	8002aaa <HAL_RCC_OscConfig+0x1ca>
 8002af0:	f7ff fb88 	bl	8002204 <HAL_GetTick>
 8002af4:	eba0 0008 	sub.w	r0, r0, r8
 8002af8:	2864      	cmp	r0, #100	@ 0x64
 8002afa:	d9f6      	bls.n	8002aea <HAL_RCC_OscConfig+0x20a>
 8002afc:	e731      	b.n	8002962 <HAL_RCC_OscConfig+0x82>
 8002afe:	b9ab      	cbnz	r3, 8002b2c <HAL_RCC_OscConfig+0x24c>
 8002b00:	6a23      	ldr	r3, [r4, #32]
 8002b02:	f241 3888 	movw	r8, #5000	@ 0x1388
 8002b06:	f023 0301 	bic.w	r3, r3, #1
 8002b0a:	6223      	str	r3, [r4, #32]
 8002b0c:	6a23      	ldr	r3, [r4, #32]
 8002b0e:	f023 0304 	bic.w	r3, r3, #4
 8002b12:	6223      	str	r3, [r4, #32]
 8002b14:	f7ff fb76 	bl	8002204 <HAL_GetTick>
 8002b18:	4606      	mov	r6, r0
 8002b1a:	6a23      	ldr	r3, [r4, #32]
 8002b1c:	0798      	lsls	r0, r3, #30
 8002b1e:	d5d3      	bpl.n	8002ac8 <HAL_RCC_OscConfig+0x1e8>
 8002b20:	f7ff fb70 	bl	8002204 <HAL_GetTick>
 8002b24:	1b80      	subs	r0, r0, r6
 8002b26:	4540      	cmp	r0, r8
 8002b28:	d9f7      	bls.n	8002b1a <HAL_RCC_OscConfig+0x23a>
 8002b2a:	e71a      	b.n	8002962 <HAL_RCC_OscConfig+0x82>
 8002b2c:	2b05      	cmp	r3, #5
 8002b2e:	6a23      	ldr	r3, [r4, #32]
 8002b30:	d103      	bne.n	8002b3a <HAL_RCC_OscConfig+0x25a>
 8002b32:	f043 0304 	orr.w	r3, r3, #4
 8002b36:	6223      	str	r3, [r4, #32]
 8002b38:	e7ba      	b.n	8002ab0 <HAL_RCC_OscConfig+0x1d0>
 8002b3a:	f023 0301 	bic.w	r3, r3, #1
 8002b3e:	6223      	str	r3, [r4, #32]
 8002b40:	6a23      	ldr	r3, [r4, #32]
 8002b42:	f023 0304 	bic.w	r3, r3, #4
 8002b46:	e7b6      	b.n	8002ab6 <HAL_RCC_OscConfig+0x1d6>
 8002b48:	f7ff fb5c 	bl	8002204 <HAL_GetTick>
 8002b4c:	1b80      	subs	r0, r0, r6
 8002b4e:	4540      	cmp	r0, r8
 8002b50:	d9b7      	bls.n	8002ac2 <HAL_RCC_OscConfig+0x1e2>
 8002b52:	e706      	b.n	8002962 <HAL_RCC_OscConfig+0x82>
 8002b54:	40021000 	.word	0x40021000
 8002b58:	42420000 	.word	0x42420000
 8002b5c:	20000000 	.word	0x20000000
 8002b60:	40007000 	.word	0x40007000
 8002b64:	4c2a      	ldr	r4, [pc, #168]	@ (8002c10 <HAL_RCC_OscConfig+0x330>)
 8002b66:	6862      	ldr	r2, [r4, #4]
 8002b68:	f002 020c 	and.w	r2, r2, #12
 8002b6c:	2a08      	cmp	r2, #8
 8002b6e:	d03e      	beq.n	8002bee <HAL_RCC_OscConfig+0x30e>
 8002b70:	2200      	movs	r2, #0
 8002b72:	2b02      	cmp	r3, #2
 8002b74:	4b27      	ldr	r3, [pc, #156]	@ (8002c14 <HAL_RCC_OscConfig+0x334>)
 8002b76:	661a      	str	r2, [r3, #96]	@ 0x60
 8002b78:	d12c      	bne.n	8002bd4 <HAL_RCC_OscConfig+0x2f4>
 8002b7a:	f7ff fb43 	bl	8002204 <HAL_GetTick>
 8002b7e:	4606      	mov	r6, r0
 8002b80:	6823      	ldr	r3, [r4, #0]
 8002b82:	0199      	lsls	r1, r3, #6
 8002b84:	d420      	bmi.n	8002bc8 <HAL_RCC_OscConfig+0x2e8>
 8002b86:	6a2b      	ldr	r3, [r5, #32]
 8002b88:	f5b3 3f80 	cmp.w	r3, #65536	@ 0x10000
 8002b8c:	d105      	bne.n	8002b9a <HAL_RCC_OscConfig+0x2ba>
 8002b8e:	6862      	ldr	r2, [r4, #4]
 8002b90:	68a9      	ldr	r1, [r5, #8]
 8002b92:	f422 3200 	bic.w	r2, r2, #131072	@ 0x20000
 8002b96:	430a      	orrs	r2, r1
 8002b98:	6062      	str	r2, [r4, #4]
 8002b9a:	6a69      	ldr	r1, [r5, #36]	@ 0x24
 8002b9c:	6862      	ldr	r2, [r4, #4]
 8002b9e:	430b      	orrs	r3, r1
 8002ba0:	f422 1274 	bic.w	r2, r2, #3997696	@ 0x3d0000
 8002ba4:	4313      	orrs	r3, r2
 8002ba6:	2201      	movs	r2, #1
 8002ba8:	6063      	str	r3, [r4, #4]
 8002baa:	4b1a      	ldr	r3, [pc, #104]	@ (8002c14 <HAL_RCC_OscConfig+0x334>)
 8002bac:	661a      	str	r2, [r3, #96]	@ 0x60
 8002bae:	f7ff fb29 	bl	8002204 <HAL_GetTick>
 8002bb2:	4605      	mov	r5, r0
 8002bb4:	6823      	ldr	r3, [r4, #0]
 8002bb6:	019a      	lsls	r2, r3, #6
 8002bb8:	f53f aea8 	bmi.w	800290c <HAL_RCC_OscConfig+0x2c>
 8002bbc:	f7ff fb22 	bl	8002204 <HAL_GetTick>
 8002bc0:	1b40      	subs	r0, r0, r5
 8002bc2:	2802      	cmp	r0, #2
 8002bc4:	d9f6      	bls.n	8002bb4 <HAL_RCC_OscConfig+0x2d4>
 8002bc6:	e6cc      	b.n	8002962 <HAL_RCC_OscConfig+0x82>
 8002bc8:	f7ff fb1c 	bl	8002204 <HAL_GetTick>
 8002bcc:	1b80      	subs	r0, r0, r6
 8002bce:	2802      	cmp	r0, #2
 8002bd0:	d9d6      	bls.n	8002b80 <HAL_RCC_OscConfig+0x2a0>
 8002bd2:	e6c6      	b.n	8002962 <HAL_RCC_OscConfig+0x82>
 8002bd4:	f7ff fb16 	bl	8002204 <HAL_GetTick>
 8002bd8:	4605      	mov	r5, r0
 8002bda:	6823      	ldr	r3, [r4, #0]
 8002bdc:	019b      	lsls	r3, r3, #6
 8002bde:	f57f ae95 	bpl.w	800290c <HAL_RCC_OscConfig+0x2c>
 8002be2:	f7ff fb0f 	bl	8002204 <HAL_GetTick>
 8002be6:	1b40      	subs	r0, r0, r5
 8002be8:	2802      	cmp	r0, #2
 8002bea:	d9f6      	bls.n	8002bda <HAL_RCC_OscConfig+0x2fa>
 8002bec:	e6b9      	b.n	8002962 <HAL_RCC_OscConfig+0x82>
 8002bee:	2b01      	cmp	r3, #1
 8002bf0:	f43f aea2 	beq.w	8002938 <HAL_RCC_OscConfig+0x58>
 8002bf4:	6860      	ldr	r0, [r4, #4]
 8002bf6:	6a2b      	ldr	r3, [r5, #32]
 8002bf8:	f400 3280 	and.w	r2, r0, #65536	@ 0x10000
 8002bfc:	429a      	cmp	r2, r3
 8002bfe:	f47f ae9b 	bne.w	8002938 <HAL_RCC_OscConfig+0x58>
 8002c02:	6a6b      	ldr	r3, [r5, #36]	@ 0x24
 8002c04:	f400 1070 	and.w	r0, r0, #3932160	@ 0x3c0000
 8002c08:	1ac0      	subs	r0, r0, r3
 8002c0a:	bf18      	it	ne
 8002c0c:	2001      	movne	r0, #1
 8002c0e:	e6a9      	b.n	8002964 <HAL_RCC_OscConfig+0x84>
 8002c10:	40021000 	.word	0x40021000
 8002c14:	42420000 	.word	0x42420000

08002c18 <HAL_RCC_GetSysClockFreq>:
 8002c18:	4a0d      	ldr	r2, [pc, #52]	@ (8002c50 <HAL_RCC_GetSysClockFreq+0x38>)
 8002c1a:	6853      	ldr	r3, [r2, #4]
 8002c1c:	f003 010c 	and.w	r1, r3, #12
 8002c20:	2908      	cmp	r1, #8
 8002c22:	d112      	bne.n	8002c4a <HAL_RCC_GetSysClockFreq+0x32>
 8002c24:	480b      	ldr	r0, [pc, #44]	@ (8002c54 <HAL_RCC_GetSysClockFreq+0x3c>)
 8002c26:	f3c3 4183 	ubfx	r1, r3, #18, #4
 8002c2a:	03db      	lsls	r3, r3, #15
 8002c2c:	5c40      	ldrb	r0, [r0, r1]
 8002c2e:	d509      	bpl.n	8002c44 <HAL_RCC_GetSysClockFreq+0x2c>
 8002c30:	6853      	ldr	r3, [r2, #4]
 8002c32:	4a09      	ldr	r2, [pc, #36]	@ (8002c58 <HAL_RCC_GetSysClockFreq+0x40>)
 8002c34:	f3c3 4340 	ubfx	r3, r3, #17, #1
 8002c38:	4350      	muls	r0, r2
 8002c3a:	4a08      	ldr	r2, [pc, #32]	@ (8002c5c <HAL_RCC_GetSysClockFreq+0x44>)
 8002c3c:	5cd3      	ldrb	r3, [r2, r3]
 8002c3e:	fbb0 f0f3 	udiv	r0, r0, r3
 8002c42:	4770      	bx	lr
 8002c44:	4b06      	ldr	r3, [pc, #24]	@ (8002c60 <HAL_RCC_GetSysClockFreq+0x48>)
 8002c46:	4358      	muls	r0, r3
 8002c48:	4770      	bx	lr
 8002c4a:	4803      	ldr	r0, [pc, #12]	@ (8002c58 <HAL_RCC_GetSysClockFreq+0x40>)
 8002c4c:	4770      	bx	lr
 8002c4e:	bf00      	nop
 8002c50:	40021000 	.word	0x40021000
 8002c54:	08009dfe 	.word	0x08009dfe
 8002c58:	007a1200 	.word	0x007a1200
 8002c5c:	08009dfc 	.word	0x08009dfc
 8002c60:	003d0900 	.word	0x003d0900

08002c64 <HAL_RCC_ClockConfig>:
 8002c64:	e92d 41f0 	stmdb	sp!, {r4, r5, r6, r7, r8, lr}
 8002c68:	460d      	mov	r5, r1
 8002c6a:	4604      	mov	r4, r0
 8002c6c:	b910      	cbnz	r0, 8002c74 <HAL_RCC_ClockConfig+0x10>
 8002c6e:	2001      	movs	r0, #1
 8002c70:	e8bd 81f0 	ldmia.w	sp!, {r4, r5, r6, r7, r8, pc}
 8002c74:	4a44      	ldr	r2, [pc, #272]	@ (8002d88 <HAL_RCC_ClockConfig+0x124>)
 8002c76:	6813      	ldr	r3, [r2, #0]
 8002c78:	f003 0307 	and.w	r3, r3, #7
 8002c7c:	428b      	cmp	r3, r1
 8002c7e:	d328      	bcc.n	8002cd2 <HAL_RCC_ClockConfig+0x6e>
 8002c80:	6821      	ldr	r1, [r4, #0]
 8002c82:	078e      	lsls	r6, r1, #30
 8002c84:	d430      	bmi.n	8002ce8 <HAL_RCC_ClockConfig+0x84>
 8002c86:	07ca      	lsls	r2, r1, #31
 8002c88:	d443      	bmi.n	8002d12 <HAL_RCC_ClockConfig+0xae>
 8002c8a:	4a3f      	ldr	r2, [pc, #252]	@ (8002d88 <HAL_RCC_ClockConfig+0x124>)
 8002c8c:	6813      	ldr	r3, [r2, #0]
 8002c8e:	f003 0307 	and.w	r3, r3, #7
 8002c92:	42ab      	cmp	r3, r5
 8002c94:	d865      	bhi.n	8002d62 <HAL_RCC_ClockConfig+0xfe>
 8002c96:	6822      	ldr	r2, [r4, #0]
 8002c98:	4d3c      	ldr	r5, [pc, #240]	@ (8002d8c <HAL_RCC_ClockConfig+0x128>)
 8002c9a:	f012 0f04 	tst.w	r2, #4
 8002c9e:	d16c      	bne.n	8002d7a <HAL_RCC_ClockConfig+0x116>
 8002ca0:	0713      	lsls	r3, r2, #28
 8002ca2:	d506      	bpl.n	8002cb2 <HAL_RCC_ClockConfig+0x4e>
 8002ca4:	686b      	ldr	r3, [r5, #4]
 8002ca6:	6922      	ldr	r2, [r4, #16]
 8002ca8:	f423 5360 	bic.w	r3, r3, #14336	@ 0x3800
 8002cac:	ea43 03c2 	orr.w	r3, r3, r2, lsl #3
 8002cb0:	606b      	str	r3, [r5, #4]
 8002cb2:	f7ff ffb1 	bl	8002c18 <HAL_RCC_GetSysClockFreq>
 8002cb6:	686b      	ldr	r3, [r5, #4]
 8002cb8:	4a35      	ldr	r2, [pc, #212]	@ (8002d90 <HAL_RCC_ClockConfig+0x12c>)
 8002cba:	f3c3 1303 	ubfx	r3, r3, #4, #4
 8002cbe:	5cd3      	ldrb	r3, [r2, r3]
 8002cc0:	40d8      	lsrs	r0, r3
 8002cc2:	4b34      	ldr	r3, [pc, #208]	@ (8002d94 <HAL_RCC_ClockConfig+0x130>)
 8002cc4:	6018      	str	r0, [r3, #0]
 8002cc6:	4b34      	ldr	r3, [pc, #208]	@ (8002d98 <HAL_RCC_ClockConfig+0x134>)
 8002cc8:	6818      	ldr	r0, [r3, #0]
 8002cca:	f7ff f861 	bl	8001d90 <HAL_InitTick>
 8002cce:	2000      	movs	r0, #0
 8002cd0:	e7ce      	b.n	8002c70 <HAL_RCC_ClockConfig+0xc>
 8002cd2:	6813      	ldr	r3, [r2, #0]
 8002cd4:	f023 0307 	bic.w	r3, r3, #7
 8002cd8:	430b      	orrs	r3, r1
 8002cda:	6013      	str	r3, [r2, #0]
 8002cdc:	6813      	ldr	r3, [r2, #0]
 8002cde:	f003 0307 	and.w	r3, r3, #7
 8002ce2:	428b      	cmp	r3, r1
 8002ce4:	d1c3      	bne.n	8002c6e <HAL_RCC_ClockConfig+0xa>
 8002ce6:	e7cb      	b.n	8002c80 <HAL_RCC_ClockConfig+0x1c>
 8002ce8:	4b28      	ldr	r3, [pc, #160]	@ (8002d8c <HAL_RCC_ClockConfig+0x128>)
 8002cea:	f011 0f04 	tst.w	r1, #4
 8002cee:	bf1e      	ittt	ne
 8002cf0:	685a      	ldrne	r2, [r3, #4]
 8002cf2:	f442 62e0 	orrne.w	r2, r2, #1792	@ 0x700
 8002cf6:	605a      	strne	r2, [r3, #4]
 8002cf8:	0708      	lsls	r0, r1, #28
 8002cfa:	bf42      	ittt	mi
 8002cfc:	685a      	ldrmi	r2, [r3, #4]
 8002cfe:	f442 5260 	orrmi.w	r2, r2, #14336	@ 0x3800
 8002d02:	605a      	strmi	r2, [r3, #4]
 8002d04:	685a      	ldr	r2, [r3, #4]
 8002d06:	68a0      	ldr	r0, [r4, #8]
 8002d08:	f022 02f0 	bic.w	r2, r2, #240	@ 0xf0
 8002d0c:	4302      	orrs	r2, r0
 8002d0e:	605a      	str	r2, [r3, #4]
 8002d10:	e7b9      	b.n	8002c86 <HAL_RCC_ClockConfig+0x22>
 8002d12:	6862      	ldr	r2, [r4, #4]
 8002d14:	4e1d      	ldr	r6, [pc, #116]	@ (8002d8c <HAL_RCC_ClockConfig+0x128>)
 8002d16:	2a01      	cmp	r2, #1
 8002d18:	6833      	ldr	r3, [r6, #0]
 8002d1a:	d11a      	bne.n	8002d52 <HAL_RCC_ClockConfig+0xee>
 8002d1c:	f413 3f00 	tst.w	r3, #131072	@ 0x20000
 8002d20:	d0a5      	beq.n	8002c6e <HAL_RCC_ClockConfig+0xa>
 8002d22:	6873      	ldr	r3, [r6, #4]
 8002d24:	f241 3888 	movw	r8, #5000	@ 0x1388
 8002d28:	f023 0303 	bic.w	r3, r3, #3
 8002d2c:	4313      	orrs	r3, r2
 8002d2e:	6073      	str	r3, [r6, #4]
 8002d30:	f7ff fa68 	bl	8002204 <HAL_GetTick>
 8002d34:	4607      	mov	r7, r0
 8002d36:	6873      	ldr	r3, [r6, #4]
 8002d38:	6862      	ldr	r2, [r4, #4]
 8002d3a:	f003 030c 	and.w	r3, r3, #12
 8002d3e:	ebb3 0f82 	cmp.w	r3, r2, lsl #2
 8002d42:	d0a2      	beq.n	8002c8a <HAL_RCC_ClockConfig+0x26>
 8002d44:	f7ff fa5e 	bl	8002204 <HAL_GetTick>
 8002d48:	1bc0      	subs	r0, r0, r7
 8002d4a:	4540      	cmp	r0, r8
 8002d4c:	d9f3      	bls.n	8002d36 <HAL_RCC_ClockConfig+0xd2>
 8002d4e:	2003      	movs	r0, #3
 8002d50:	e78e      	b.n	8002c70 <HAL_RCC_ClockConfig+0xc>
 8002d52:	2a02      	cmp	r2, #2
 8002d54:	d102      	bne.n	8002d5c <HAL_RCC_ClockConfig+0xf8>
 8002d56:	f013 7f00 	tst.w	r3, #33554432	@ 0x2000000
 8002d5a:	e7e1      	b.n	8002d20 <HAL_RCC_ClockConfig+0xbc>
 8002d5c:	f013 0f02 	tst.w	r3, #2
 8002d60:	e7de      	b.n	8002d20 <HAL_RCC_ClockConfig+0xbc>
 8002d62:	6813      	ldr	r3, [r2, #0]
 8002d64:	f023 0307 	bic.w	r3, r3, #7
 8002d68:	432b      	orrs	r3, r5
 8002d6a:	6013      	str	r3, [r2, #0]
 8002d6c:	6813      	ldr	r3, [r2, #0]
 8002d6e:	f003 0307 	and.w	r3, r3, #7
 8002d72:	42ab      	cmp	r3, r5
 8002d74:	f47f af7b 	bne.w	8002c6e <HAL_RCC_ClockConfig+0xa>
 8002d78:	e78d      	b.n	8002c96 <HAL_RCC_ClockConfig+0x32>
 8002d7a:	686b      	ldr	r3, [r5, #4]
 8002d7c:	68e1      	ldr	r1, [r4, #12]
 8002d7e:	f423 63e0 	bic.w	r3, r3, #1792	@ 0x700
 8002d82:	430b      	orrs	r3, r1
 8002d84:	606b      	str	r3, [r5, #4]
 8002d86:	e78b      	b.n	8002ca0 <HAL_RCC_ClockConfig+0x3c>
 8002d88:	40022000 	.word	0x40022000
 8002d8c:	40021000 	.word	0x40021000
 8002d90:	08009dec 	.word	0x08009dec
 8002d94:	20000000 	.word	0x20000000
 8002d98:	20000008 	.word	0x20000008

08002d9c <HAL_RCC_GetPCLK1Freq>:
 8002d9c:	4b04      	ldr	r3, [pc, #16]	@ (8002db0 <HAL_RCC_GetPCLK1Freq+0x14>)
 8002d9e:	4a05      	ldr	r2, [pc, #20]	@ (8002db4 <HAL_RCC_GetPCLK1Freq+0x18>)
 8002da0:	685b      	ldr	r3, [r3, #4]
 8002da2:	f3c3 2302 	ubfx	r3, r3, #8, #3
 8002da6:	5cd3      	ldrb	r3, [r2, r3]
 8002da8:	4a03      	ldr	r2, [pc, #12]	@ (8002db8 <HAL_RCC_GetPCLK1Freq+0x1c>)
 8002daa:	6810      	ldr	r0, [r2, #0]
 8002dac:	40d8      	lsrs	r0, r3
 8002dae:	4770      	bx	lr
 8002db0:	40021000 	.word	0x40021000
 8002db4:	08009de4 	.word	0x08009de4
 8002db8:	20000000 	.word	0x20000000

08002dbc <HAL_RCC_GetPCLK2Freq>:
 8002dbc:	4b04      	ldr	r3, [pc, #16]	@ (8002dd0 <HAL_RCC_GetPCLK2Freq+0x14>)
 8002dbe:	4a05      	ldr	r2, [pc, #20]	@ (8002dd4 <HAL_RCC_GetPCLK2Freq+0x18>)
 8002dc0:	685b      	ldr	r3, [r3, #4]
 8002dc2:	f3c3 23c2 	ubfx	r3, r3, #11, #3
 8002dc6:	5cd3      	ldrb	r3, [r2, r3]
 8002dc8:	4a03      	ldr	r2, [pc, #12]	@ (8002dd8 <HAL_RCC_GetPCLK2Freq+0x1c>)
 8002dca:	6810      	ldr	r0, [r2, #0]
 8002dcc:	40d8      	lsrs	r0, r3
 8002dce:	4770      	bx	lr
 8002dd0:	40021000 	.word	0x40021000
 8002dd4:	08009de4 	.word	0x08009de4
 8002dd8:	20000000 	.word	0x20000000

08002ddc <HAL_RCC_GetClockConfig>:
 8002ddc:	230f      	movs	r3, #15
 8002dde:	6003      	str	r3, [r0, #0]
 8002de0:	4b0b      	ldr	r3, [pc, #44]	@ (8002e10 <HAL_RCC_GetClockConfig+0x34>)
 8002de2:	685a      	ldr	r2, [r3, #4]
 8002de4:	f002 0203 	and.w	r2, r2, #3
 8002de8:	6042      	str	r2, [r0, #4]
 8002dea:	685a      	ldr	r2, [r3, #4]
 8002dec:	f002 02f0 	and.w	r2, r2, #240	@ 0xf0
 8002df0:	6082      	str	r2, [r0, #8]
 8002df2:	685a      	ldr	r2, [r3, #4]
 8002df4:	f402 62e0 	and.w	r2, r2, #1792	@ 0x700
 8002df8:	60c2      	str	r2, [r0, #12]
 8002dfa:	685b      	ldr	r3, [r3, #4]
 8002dfc:	08db      	lsrs	r3, r3, #3
 8002dfe:	f403 63e0 	and.w	r3, r3, #1792	@ 0x700
 8002e02:	6103      	str	r3, [r0, #16]
 8002e04:	4b03      	ldr	r3, [pc, #12]	@ (8002e14 <HAL_RCC_GetClockConfig+0x38>)
 8002e06:	681b      	ldr	r3, [r3, #0]
 8002e08:	f003 0307 	and.w	r3, r3, #7
 8002e0c:	600b      	str	r3, [r1, #0]
 8002e0e:	4770      	bx	lr
 8002e10:	40021000 	.word	0x40021000
 8002e14:	40022000 	.word	0x40022000

08002e18 <HAL_RCCEx_PeriphCLKConfig>:
 8002e18:	6803      	ldr	r3, [r0, #0]
 8002e1a:	e92d 41f3 	stmdb	sp!, {r0, r1, r4, r5, r6, r7, r8, lr}
 8002e1e:	4605      	mov	r5, r0
 8002e20:	07d8      	lsls	r0, r3, #31
 8002e22:	d521      	bpl.n	8002e68 <HAL_RCCEx_PeriphCLKConfig+0x50>
 8002e24:	4c36      	ldr	r4, [pc, #216]	@ (8002f00 <HAL_RCCEx_PeriphCLKConfig+0xe8>)
 8002e26:	69e3      	ldr	r3, [r4, #28]
 8002e28:	00d9      	lsls	r1, r3, #3
 8002e2a:	d42b      	bmi.n	8002e84 <HAL_RCCEx_PeriphCLKConfig+0x6c>
 8002e2c:	2601      	movs	r6, #1
 8002e2e:	69e3      	ldr	r3, [r4, #28]
 8002e30:	f043 5380 	orr.w	r3, r3, #268435456	@ 0x10000000
 8002e34:	61e3      	str	r3, [r4, #28]
 8002e36:	69e3      	ldr	r3, [r4, #28]
 8002e38:	f003 5380 	and.w	r3, r3, #268435456	@ 0x10000000
 8002e3c:	9301      	str	r3, [sp, #4]
 8002e3e:	9b01      	ldr	r3, [sp, #4]
 8002e40:	4f30      	ldr	r7, [pc, #192]	@ (8002f04 <HAL_RCCEx_PeriphCLKConfig+0xec>)
 8002e42:	683b      	ldr	r3, [r7, #0]
 8002e44:	05da      	lsls	r2, r3, #23
 8002e46:	d51f      	bpl.n	8002e88 <HAL_RCCEx_PeriphCLKConfig+0x70>
 8002e48:	6a23      	ldr	r3, [r4, #32]
 8002e4a:	686a      	ldr	r2, [r5, #4]
 8002e4c:	f413 7340 	ands.w	r3, r3, #768	@ 0x300
 8002e50:	d12e      	bne.n	8002eb0 <HAL_RCCEx_PeriphCLKConfig+0x98>
 8002e52:	6a23      	ldr	r3, [r4, #32]
 8002e54:	686a      	ldr	r2, [r5, #4]
 8002e56:	f423 7340 	bic.w	r3, r3, #768	@ 0x300
 8002e5a:	4313      	orrs	r3, r2
 8002e5c:	6223      	str	r3, [r4, #32]
 8002e5e:	b11e      	cbz	r6, 8002e68 <HAL_RCCEx_PeriphCLKConfig+0x50>
 8002e60:	69e3      	ldr	r3, [r4, #28]
 8002e62:	f023 5380 	bic.w	r3, r3, #268435456	@ 0x10000000
 8002e66:	61e3      	str	r3, [r4, #28]
 8002e68:	682a      	ldr	r2, [r5, #0]
 8002e6a:	0791      	lsls	r1, r2, #30
 8002e6c:	d506      	bpl.n	8002e7c <HAL_RCCEx_PeriphCLKConfig+0x64>
 8002e6e:	4924      	ldr	r1, [pc, #144]	@ (8002f00 <HAL_RCCEx_PeriphCLKConfig+0xe8>)
 8002e70:	68a8      	ldr	r0, [r5, #8]
 8002e72:	684b      	ldr	r3, [r1, #4]
 8002e74:	f423 4340 	bic.w	r3, r3, #49152	@ 0xc000
 8002e78:	4303      	orrs	r3, r0
 8002e7a:	604b      	str	r3, [r1, #4]
 8002e7c:	06d3      	lsls	r3, r2, #27
 8002e7e:	d436      	bmi.n	8002eee <HAL_RCCEx_PeriphCLKConfig+0xd6>
 8002e80:	2000      	movs	r0, #0
 8002e82:	e012      	b.n	8002eaa <HAL_RCCEx_PeriphCLKConfig+0x92>
 8002e84:	2600      	movs	r6, #0
 8002e86:	e7db      	b.n	8002e40 <HAL_RCCEx_PeriphCLKConfig+0x28>
 8002e88:	683b      	ldr	r3, [r7, #0]
 8002e8a:	f443 7380 	orr.w	r3, r3, #256	@ 0x100
 8002e8e:	603b      	str	r3, [r7, #0]
 8002e90:	f7ff f9b8 	bl	8002204 <HAL_GetTick>
 8002e94:	4680      	mov	r8, r0
 8002e96:	683b      	ldr	r3, [r7, #0]
 8002e98:	05db      	lsls	r3, r3, #23
 8002e9a:	d4d5      	bmi.n	8002e48 <HAL_RCCEx_PeriphCLKConfig+0x30>
 8002e9c:	f7ff f9b2 	bl	8002204 <HAL_GetTick>
 8002ea0:	eba0 0008 	sub.w	r0, r0, r8
 8002ea4:	2864      	cmp	r0, #100	@ 0x64
 8002ea6:	d9f6      	bls.n	8002e96 <HAL_RCCEx_PeriphCLKConfig+0x7e>
 8002ea8:	2003      	movs	r0, #3
 8002eaa:	b002      	add	sp, #8
 8002eac:	e8bd 81f0 	ldmia.w	sp!, {r4, r5, r6, r7, r8, pc}
 8002eb0:	f402 7240 	and.w	r2, r2, #768	@ 0x300
 8002eb4:	429a      	cmp	r2, r3
 8002eb6:	d0cc      	beq.n	8002e52 <HAL_RCCEx_PeriphCLKConfig+0x3a>
 8002eb8:	2001      	movs	r0, #1
 8002eba:	4a13      	ldr	r2, [pc, #76]	@ (8002f08 <HAL_RCCEx_PeriphCLKConfig+0xf0>)
 8002ebc:	6a23      	ldr	r3, [r4, #32]
 8002ebe:	f8c2 0440 	str.w	r0, [r2, #1088]	@ 0x440
 8002ec2:	2000      	movs	r0, #0
 8002ec4:	f423 7140 	bic.w	r1, r3, #768	@ 0x300
 8002ec8:	07df      	lsls	r7, r3, #31
 8002eca:	f8c2 0440 	str.w	r0, [r2, #1088]	@ 0x440
 8002ece:	6221      	str	r1, [r4, #32]
 8002ed0:	d5bf      	bpl.n	8002e52 <HAL_RCCEx_PeriphCLKConfig+0x3a>
 8002ed2:	f7ff f997 	bl	8002204 <HAL_GetTick>
 8002ed6:	f241 3888 	movw	r8, #5000	@ 0x1388
 8002eda:	4607      	mov	r7, r0
 8002edc:	6a23      	ldr	r3, [r4, #32]
 8002ede:	0798      	lsls	r0, r3, #30
 8002ee0:	d4b7      	bmi.n	8002e52 <HAL_RCCEx_PeriphCLKConfig+0x3a>
 8002ee2:	f7ff f98f 	bl	8002204 <HAL_GetTick>
 8002ee6:	1bc0      	subs	r0, r0, r7
 8002ee8:	4540      	cmp	r0, r8
 8002eea:	d9f7      	bls.n	8002edc <HAL_RCCEx_PeriphCLKConfig+0xc4>
 8002eec:	e7dc      	b.n	8002ea8 <HAL_RCCEx_PeriphCLKConfig+0x90>
 8002eee:	4a04      	ldr	r2, [pc, #16]	@ (8002f00 <HAL_RCCEx_PeriphCLKConfig+0xe8>)
 8002ef0:	68e9      	ldr	r1, [r5, #12]
 8002ef2:	6853      	ldr	r3, [r2, #4]
 8002ef4:	f423 0380 	bic.w	r3, r3, #4194304	@ 0x400000
 8002ef8:	430b      	orrs	r3, r1
 8002efa:	6053      	str	r3, [r2, #4]
 8002efc:	e7c0      	b.n	8002e80 <HAL_RCCEx_PeriphCLKConfig+0x68>
 8002efe:	bf00      	nop
 8002f00:	40021000 	.word	0x40021000
 8002f04:	40007000 	.word	0x40007000
 8002f08:	42420000 	.word	0x42420000

08002f0c <HAL_TIM_Base_Start_IT>:
 8002f0c:	f890 303d 	ldrb.w	r3, [r0, #61]	@ 0x3d
 8002f10:	2b01      	cmp	r3, #1
 8002f12:	d120      	bne.n	8002f56 <HAL_TIM_Base_Start_IT+0x4a>
 8002f14:	2302      	movs	r3, #2
 8002f16:	f880 303d 	strb.w	r3, [r0, #61]	@ 0x3d
 8002f1a:	6803      	ldr	r3, [r0, #0]
 8002f1c:	68da      	ldr	r2, [r3, #12]
 8002f1e:	f042 0201 	orr.w	r2, r2, #1
 8002f22:	60da      	str	r2, [r3, #12]
 8002f24:	4a0d      	ldr	r2, [pc, #52]	@ (8002f5c <HAL_TIM_Base_Start_IT+0x50>)
 8002f26:	4293      	cmp	r3, r2
 8002f28:	d00a      	beq.n	8002f40 <HAL_TIM_Base_Start_IT+0x34>
 8002f2a:	f1b3 4f80 	cmp.w	r3, #1073741824	@ 0x40000000
 8002f2e:	d007      	beq.n	8002f40 <HAL_TIM_Base_Start_IT+0x34>
 8002f30:	f5a2 3294 	sub.w	r2, r2, #75776	@ 0x12800
 8002f34:	4293      	cmp	r3, r2
 8002f36:	d003      	beq.n	8002f40 <HAL_TIM_Base_Start_IT+0x34>
 8002f38:	f502 6280 	add.w	r2, r2, #1024	@ 0x400
 8002f3c:	4293      	cmp	r3, r2
 8002f3e:	d104      	bne.n	8002f4a <HAL_TIM_Base_Start_IT+0x3e>
 8002f40:	689a      	ldr	r2, [r3, #8]
 8002f42:	f002 0207 	and.w	r2, r2, #7
 8002f46:	2a06      	cmp	r2, #6
 8002f48:	d003      	beq.n	8002f52 <HAL_TIM_Base_Start_IT+0x46>
 8002f4a:	681a      	ldr	r2, [r3, #0]
 8002f4c:	f042 0201 	orr.w	r2, r2, #1
 8002f50:	601a      	str	r2, [r3, #0]
 8002f52:	2000      	movs	r0, #0
 8002f54:	4770      	bx	lr
 8002f56:	2001      	movs	r0, #1
 8002f58:	4770      	bx	lr
 8002f5a:	bf00      	nop
 8002f5c:	40012c00 	.word	0x40012c00

08002f60 <HAL_TIM_OC_DelayElapsedCallback>:
 8002f60:	4770      	bx	lr

08002f62 <HAL_TIM_IC_CaptureCallback>:
 8002f62:	4770      	bx	lr

08002f64 <HAL_TIM_PWM_PulseFinishedCallback>:
 8002f64:	4770      	bx	lr

08002f66 <HAL_TIM_TriggerCallback>:
 8002f66:	4770      	bx	lr

08002f68 <HAL_TIM_IRQHandler>:
 8002f68:	6803      	ldr	r3, [r0, #0]
 8002f6a:	b570      	push	{r4, r5, r6, lr}
 8002f6c:	68dd      	ldr	r5, [r3, #12]
 8002f6e:	691e      	ldr	r6, [r3, #16]
 8002f70:	4604      	mov	r4, r0
 8002f72:	07b1      	lsls	r1, r6, #30
 8002f74:	d50d      	bpl.n	8002f92 <HAL_TIM_IRQHandler+0x2a>
 8002f76:	07aa      	lsls	r2, r5, #30
 8002f78:	d50b      	bpl.n	8002f92 <HAL_TIM_IRQHandler+0x2a>
 8002f7a:	f06f 0202 	mvn.w	r2, #2
 8002f7e:	611a      	str	r2, [r3, #16]
 8002f80:	2201      	movs	r2, #1
 8002f82:	7702      	strb	r2, [r0, #28]
 8002f84:	699b      	ldr	r3, [r3, #24]
 8002f86:	079b      	lsls	r3, r3, #30
 8002f88:	d069      	beq.n	800305e <HAL_TIM_IRQHandler+0xf6>
 8002f8a:	f7ff ffea 	bl	8002f62 <HAL_TIM_IC_CaptureCallback>
 8002f8e:	2300      	movs	r3, #0
 8002f90:	7723      	strb	r3, [r4, #28]
 8002f92:	0771      	lsls	r1, r6, #29
 8002f94:	d510      	bpl.n	8002fb8 <HAL_TIM_IRQHandler+0x50>
 8002f96:	076a      	lsls	r2, r5, #29
 8002f98:	d50e      	bpl.n	8002fb8 <HAL_TIM_IRQHandler+0x50>
 8002f9a:	f06f 0204 	mvn.w	r2, #4
 8002f9e:	6823      	ldr	r3, [r4, #0]
 8002fa0:	4620      	mov	r0, r4
 8002fa2:	611a      	str	r2, [r3, #16]
 8002fa4:	2202      	movs	r2, #2
 8002fa6:	7722      	strb	r2, [r4, #28]
 8002fa8:	699b      	ldr	r3, [r3, #24]
 8002faa:	f413 7f40 	tst.w	r3, #768	@ 0x300
 8002fae:	d05c      	beq.n	800306a <HAL_TIM_IRQHandler+0x102>
 8002fb0:	f7ff ffd7 	bl	8002f62 <HAL_TIM_IC_CaptureCallback>
 8002fb4:	2300      	movs	r3, #0
 8002fb6:	7723      	strb	r3, [r4, #28]
 8002fb8:	0733      	lsls	r3, r6, #28
 8002fba:	d50f      	bpl.n	8002fdc <HAL_TIM_IRQHandler+0x74>
 8002fbc:	0728      	lsls	r0, r5, #28
 8002fbe:	d50d      	bpl.n	8002fdc <HAL_TIM_IRQHandler+0x74>
 8002fc0:	f06f 0208 	mvn.w	r2, #8
 8002fc4:	6823      	ldr	r3, [r4, #0]
 8002fc6:	4620      	mov	r0, r4
 8002fc8:	611a      	str	r2, [r3, #16]
 8002fca:	2204      	movs	r2, #4
 8002fcc:	7722      	strb	r2, [r4, #28]
 8002fce:	69db      	ldr	r3, [r3, #28]
 8002fd0:	0799      	lsls	r1, r3, #30
 8002fd2:	d050      	beq.n	8003076 <HAL_TIM_IRQHandler+0x10e>
 8002fd4:	f7ff ffc5 	bl	8002f62 <HAL_TIM_IC_CaptureCallback>
 8002fd8:	2300      	movs	r3, #0
 8002fda:	7723      	strb	r3, [r4, #28]
 8002fdc:	06f2      	lsls	r2, r6, #27
 8002fde:	d510      	bpl.n	8003002 <HAL_TIM_IRQHandler+0x9a>
 8002fe0:	06eb      	lsls	r3, r5, #27
 8002fe2:	d50e      	bpl.n	8003002 <HAL_TIM_IRQHandler+0x9a>
 8002fe4:	f06f 0210 	mvn.w	r2, #16
 8002fe8:	6823      	ldr	r3, [r4, #0]
 8002fea:	4620      	mov	r0, r4
 8002fec:	611a      	str	r2, [r3, #16]
 8002fee:	2208      	movs	r2, #8
 8002ff0:	7722      	strb	r2, [r4, #28]
 8002ff2:	69db      	ldr	r3, [r3, #28]
 8002ff4:	f413 7f40 	tst.w	r3, #768	@ 0x300
 8002ff8:	d043      	beq.n	8003082 <HAL_TIM_IRQHandler+0x11a>
 8002ffa:	f7ff ffb2 	bl	8002f62 <HAL_TIM_IC_CaptureCallback>
 8002ffe:	2300      	movs	r3, #0
 8003000:	7723      	strb	r3, [r4, #28]
 8003002:	07f0      	lsls	r0, r6, #31
 8003004:	d508      	bpl.n	8003018 <HAL_TIM_IRQHandler+0xb0>
 8003006:	07e9      	lsls	r1, r5, #31
 8003008:	d506      	bpl.n	8003018 <HAL_TIM_IRQHandler+0xb0>
 800300a:	f06f 0201 	mvn.w	r2, #1
 800300e:	6823      	ldr	r3, [r4, #0]
 8003010:	4620      	mov	r0, r4
 8003012:	611a      	str	r2, [r3, #16]
 8003014:	f7fe fc04 	bl	8001820 <HAL_TIM_PeriodElapsedCallback>
 8003018:	0632      	lsls	r2, r6, #24
 800301a:	d508      	bpl.n	800302e <HAL_TIM_IRQHandler+0xc6>
 800301c:	062b      	lsls	r3, r5, #24
 800301e:	d506      	bpl.n	800302e <HAL_TIM_IRQHandler+0xc6>
 8003020:	f06f 0280 	mvn.w	r2, #128	@ 0x80
 8003024:	6823      	ldr	r3, [r4, #0]
 8003026:	4620      	mov	r0, r4
 8003028:	611a      	str	r2, [r3, #16]
 800302a:	f000 f962 	bl	80032f2 <HAL_TIMEx_BreakCallback>
 800302e:	0670      	lsls	r0, r6, #25
 8003030:	d508      	bpl.n	8003044 <HAL_TIM_IRQHandler+0xdc>
 8003032:	0669      	lsls	r1, r5, #25
 8003034:	d506      	bpl.n	8003044 <HAL_TIM_IRQHandler+0xdc>
 8003036:	f06f 0240 	mvn.w	r2, #64	@ 0x40
 800303a:	6823      	ldr	r3, [r4, #0]
 800303c:	4620      	mov	r0, r4
 800303e:	611a      	str	r2, [r3, #16]
 8003040:	f7ff ff91 	bl	8002f66 <HAL_TIM_TriggerCallback>
 8003044:	06b2      	lsls	r2, r6, #26
 8003046:	d522      	bpl.n	800308e <HAL_TIM_IRQHandler+0x126>
 8003048:	06ab      	lsls	r3, r5, #26
 800304a:	d520      	bpl.n	800308e <HAL_TIM_IRQHandler+0x126>
 800304c:	f06f 0220 	mvn.w	r2, #32
 8003050:	6823      	ldr	r3, [r4, #0]
 8003052:	4620      	mov	r0, r4
 8003054:	e8bd 4070 	ldmia.w	sp!, {r4, r5, r6, lr}
 8003058:	611a      	str	r2, [r3, #16]
 800305a:	f000 b949 	b.w	80032f0 <HAL_TIMEx_CommutCallback>
 800305e:	f7ff ff7f 	bl	8002f60 <HAL_TIM_OC_DelayElapsedCallback>
 8003062:	4620      	mov	r0, r4
 8003064:	f7ff ff7e 	bl	8002f64 <HAL_TIM_PWM_PulseFinishedCallback>
 8003068:	e791      	b.n	8002f8e <HAL_TIM_IRQHandler+0x26>
 800306a:	f7ff ff79 	bl	8002f60 <HAL_TIM_OC_DelayElapsedCallback>
 800306e:	4620      	mov	r0, r4
 8003070:	f7ff ff78 	bl	8002f64 <HAL_TIM_PWM_PulseFinishedCallback>
 8003074:	e79e      	b.n	8002fb4 <HAL_TIM_IRQHandler+0x4c>
 8003076:	f7ff ff73 	bl	8002f60 <HAL_TIM_OC_DelayElapsedCallback>
 800307a:	4620      	mov	r0, r4
 800307c:	f7ff ff72 	bl	8002f64 <HAL_TIM_PWM_PulseFinishedCallback>
 8003080:	e7aa      	b.n	8002fd8 <HAL_TIM_IRQHandler+0x70>
 8003082:	f7ff ff6d 	bl	8002f60 <HAL_TIM_OC_DelayElapsedCallback>
 8003086:	4620      	mov	r0, r4
 8003088:	f7ff ff6c 	bl	8002f64 <HAL_TIM_PWM_PulseFinishedCallback>
 800308c:	e7b7      	b.n	8002ffe <HAL_TIM_IRQHandler+0x96>
 800308e:	bd70      	pop	{r4, r5, r6, pc}

08003090 <TIM_Base_SetConfig>:
 8003090:	4a17      	ldr	r2, [pc, #92]	@ (80030f0 <TIM_Base_SetConfig+0x60>)
 8003092:	6803      	ldr	r3, [r0, #0]
 8003094:	4290      	cmp	r0, r2
 8003096:	d00a      	beq.n	80030ae <TIM_Base_SetConfig+0x1e>
 8003098:	f1b0 4f80 	cmp.w	r0, #1073741824	@ 0x40000000
 800309c:	d007      	beq.n	80030ae <TIM_Base_SetConfig+0x1e>
 800309e:	f5a2 3294 	sub.w	r2, r2, #75776	@ 0x12800
 80030a2:	4290      	cmp	r0, r2
 80030a4:	d003      	beq.n	80030ae <TIM_Base_SetConfig+0x1e>
 80030a6:	f502 6280 	add.w	r2, r2, #1024	@ 0x400
 80030aa:	4290      	cmp	r0, r2
 80030ac:	d107      	bne.n	80030be <TIM_Base_SetConfig+0x2e>
 80030ae:	684a      	ldr	r2, [r1, #4]
 80030b0:	f023 0370 	bic.w	r3, r3, #112	@ 0x70
 80030b4:	4313      	orrs	r3, r2
 80030b6:	68ca      	ldr	r2, [r1, #12]
 80030b8:	f423 7340 	bic.w	r3, r3, #768	@ 0x300
 80030bc:	4313      	orrs	r3, r2
 80030be:	694a      	ldr	r2, [r1, #20]
 80030c0:	f023 0380 	bic.w	r3, r3, #128	@ 0x80
 80030c4:	4313      	orrs	r3, r2
 80030c6:	6003      	str	r3, [r0, #0]
 80030c8:	688b      	ldr	r3, [r1, #8]
 80030ca:	62c3      	str	r3, [r0, #44]	@ 0x2c
 80030cc:	680b      	ldr	r3, [r1, #0]
 80030ce:	6283      	str	r3, [r0, #40]	@ 0x28
 80030d0:	4b07      	ldr	r3, [pc, #28]	@ (80030f0 <TIM_Base_SetConfig+0x60>)
 80030d2:	4298      	cmp	r0, r3
 80030d4:	bf04      	itt	eq
 80030d6:	690b      	ldreq	r3, [r1, #16]
 80030d8:	6303      	streq	r3, [r0, #48]	@ 0x30
 80030da:	2301      	movs	r3, #1
 80030dc:	6143      	str	r3, [r0, #20]
 80030de:	6903      	ldr	r3, [r0, #16]
 80030e0:	07db      	lsls	r3, r3, #31
 80030e2:	bf42      	ittt	mi
 80030e4:	6903      	ldrmi	r3, [r0, #16]
 80030e6:	f023 0301 	bicmi.w	r3, r3, #1
 80030ea:	6103      	strmi	r3, [r0, #16]
 80030ec:	4770      	bx	lr
 80030ee:	bf00      	nop
 80030f0:	40012c00 	.word	0x40012c00

080030f4 <HAL_TIM_Base_Init>:
 80030f4:	b510      	push	{r4, lr}
 80030f6:	4604      	mov	r4, r0
 80030f8:	b330      	cbz	r0, 8003148 <HAL_TIM_Base_Init+0x54>
 80030fa:	f890 303d 	ldrb.w	r3, [r0, #61]	@ 0x3d
 80030fe:	f003 02ff 	and.w	r2, r3, #255	@ 0xff
 8003102:	b91b      	cbnz	r3, 800310c <HAL_TIM_Base_Init+0x18>
 8003104:	f880 203c 	strb.w	r2, [r0, #60]	@ 0x3c
 8003108:	f7fe fd82 	bl	8001c10 <HAL_TIM_Base_MspInit>
 800310c:	2302      	movs	r3, #2
 800310e:	6820      	ldr	r0, [r4, #0]
 8003110:	f884 303d 	strb.w	r3, [r4, #61]	@ 0x3d
 8003114:	1d21      	adds	r1, r4, #4
 8003116:	f7ff ffbb 	bl	8003090 <TIM_Base_SetConfig>
 800311a:	2301      	movs	r3, #1
 800311c:	2000      	movs	r0, #0
 800311e:	f884 3046 	strb.w	r3, [r4, #70]	@ 0x46
 8003122:	f884 303e 	strb.w	r3, [r4, #62]	@ 0x3e
 8003126:	f884 303f 	strb.w	r3, [r4, #63]	@ 0x3f
 800312a:	f884 3040 	strb.w	r3, [r4, #64]	@ 0x40
 800312e:	f884 3041 	strb.w	r3, [r4, #65]	@ 0x41
 8003132:	f884 3042 	strb.w	r3, [r4, #66]	@ 0x42
 8003136:	f884 3043 	strb.w	r3, [r4, #67]	@ 0x43
 800313a:	f884 3044 	strb.w	r3, [r4, #68]	@ 0x44
 800313e:	f884 3045 	strb.w	r3, [r4, #69]	@ 0x45
 8003142:	f884 303d 	strb.w	r3, [r4, #61]	@ 0x3d
 8003146:	bd10      	pop	{r4, pc}
 8003148:	2001      	movs	r0, #1
 800314a:	e7fc      	b.n	8003146 <HAL_TIM_Base_Init+0x52>

0800314c <TIM_ETR_SetConfig>:
 800314c:	b510      	push	{r4, lr}
 800314e:	6884      	ldr	r4, [r0, #8]
 8003150:	430a      	orrs	r2, r1
 8003152:	f424 447f 	bic.w	r4, r4, #65280	@ 0xff00
 8003156:	ea42 2203 	orr.w	r2, r2, r3, lsl #8
 800315a:	4322      	orrs	r2, r4
 800315c:	6082      	str	r2, [r0, #8]
 800315e:	bd10      	pop	{r4, pc}

08003160 <HAL_TIM_ConfigClockSource>:
 8003160:	b538      	push	{r3, r4, r5, lr}
 8003162:	f890 303c 	ldrb.w	r3, [r0, #60]	@ 0x3c
 8003166:	4604      	mov	r4, r0
 8003168:	2b01      	cmp	r3, #1
 800316a:	f04f 0002 	mov.w	r0, #2
 800316e:	f000 808e 	beq.w	800328e <HAL_TIM_ConfigClockSource+0x12e>
 8003172:	2201      	movs	r2, #1
 8003174:	f884 003d 	strb.w	r0, [r4, #61]	@ 0x3d
 8003178:	6820      	ldr	r0, [r4, #0]
 800317a:	f884 203c 	strb.w	r2, [r4, #60]	@ 0x3c
 800317e:	6883      	ldr	r3, [r0, #8]
 8003180:	f423 437f 	bic.w	r3, r3, #65280	@ 0xff00
 8003184:	f023 0377 	bic.w	r3, r3, #119	@ 0x77
 8003188:	6083      	str	r3, [r0, #8]
 800318a:	680b      	ldr	r3, [r1, #0]
 800318c:	2b60      	cmp	r3, #96	@ 0x60
 800318e:	d04f      	beq.n	8003230 <HAL_TIM_ConfigClockSource+0xd0>
 8003190:	d832      	bhi.n	80031f8 <HAL_TIM_ConfigClockSource+0x98>
 8003192:	2b40      	cmp	r3, #64	@ 0x40
 8003194:	d064      	beq.n	8003260 <HAL_TIM_ConfigClockSource+0x100>
 8003196:	d816      	bhi.n	80031c6 <HAL_TIM_ConfigClockSource+0x66>
 8003198:	2b20      	cmp	r3, #32
 800319a:	d00d      	beq.n	80031b8 <HAL_TIM_ConfigClockSource+0x58>
 800319c:	d80a      	bhi.n	80031b4 <HAL_TIM_ConfigClockSource+0x54>
 800319e:	f033 0110 	bics.w	r1, r3, #16
 80031a2:	d009      	beq.n	80031b8 <HAL_TIM_ConfigClockSource+0x58>
 80031a4:	2301      	movs	r3, #1
 80031a6:	f884 303d 	strb.w	r3, [r4, #61]	@ 0x3d
 80031aa:	2300      	movs	r3, #0
 80031ac:	f884 303c 	strb.w	r3, [r4, #60]	@ 0x3c
 80031b0:	4610      	mov	r0, r2
 80031b2:	bd38      	pop	{r3, r4, r5, pc}
 80031b4:	2b30      	cmp	r3, #48	@ 0x30
 80031b6:	d1f5      	bne.n	80031a4 <HAL_TIM_ConfigClockSource+0x44>
 80031b8:	6882      	ldr	r2, [r0, #8]
 80031ba:	f022 0270 	bic.w	r2, r2, #112	@ 0x70
 80031be:	4313      	orrs	r3, r2
 80031c0:	f043 0307 	orr.w	r3, r3, #7
 80031c4:	e028      	b.n	8003218 <HAL_TIM_ConfigClockSource+0xb8>
 80031c6:	2b50      	cmp	r3, #80	@ 0x50
 80031c8:	d1ec      	bne.n	80031a4 <HAL_TIM_ConfigClockSource+0x44>
 80031ca:	684a      	ldr	r2, [r1, #4]
 80031cc:	68cd      	ldr	r5, [r1, #12]
 80031ce:	6a01      	ldr	r1, [r0, #32]
 80031d0:	6a03      	ldr	r3, [r0, #32]
 80031d2:	f021 010a 	bic.w	r1, r1, #10
 80031d6:	f023 0301 	bic.w	r3, r3, #1
 80031da:	6203      	str	r3, [r0, #32]
 80031dc:	6983      	ldr	r3, [r0, #24]
 80031de:	430a      	orrs	r2, r1
 80031e0:	f023 03f0 	bic.w	r3, r3, #240	@ 0xf0
 80031e4:	ea43 1305 	orr.w	r3, r3, r5, lsl #4
 80031e8:	6183      	str	r3, [r0, #24]
 80031ea:	6202      	str	r2, [r0, #32]
 80031ec:	6883      	ldr	r3, [r0, #8]
 80031ee:	f023 0370 	bic.w	r3, r3, #112	@ 0x70
 80031f2:	f043 0357 	orr.w	r3, r3, #87	@ 0x57
 80031f6:	e00f      	b.n	8003218 <HAL_TIM_ConfigClockSource+0xb8>
 80031f8:	f5b3 5f80 	cmp.w	r3, #4096	@ 0x1000
 80031fc:	d00d      	beq.n	800321a <HAL_TIM_ConfigClockSource+0xba>
 80031fe:	f5b3 5f00 	cmp.w	r3, #8192	@ 0x2000
 8003202:	d00c      	beq.n	800321e <HAL_TIM_ConfigClockSource+0xbe>
 8003204:	2b70      	cmp	r3, #112	@ 0x70
 8003206:	d1cd      	bne.n	80031a4 <HAL_TIM_ConfigClockSource+0x44>
 8003208:	68cb      	ldr	r3, [r1, #12]
 800320a:	e9d1 2101 	ldrd	r2, r1, [r1, #4]
 800320e:	f7ff ff9d 	bl	800314c <TIM_ETR_SetConfig>
 8003212:	6883      	ldr	r3, [r0, #8]
 8003214:	f043 0377 	orr.w	r3, r3, #119	@ 0x77
 8003218:	6083      	str	r3, [r0, #8]
 800321a:	2200      	movs	r2, #0
 800321c:	e7c2      	b.n	80031a4 <HAL_TIM_ConfigClockSource+0x44>
 800321e:	68cb      	ldr	r3, [r1, #12]
 8003220:	e9d1 2101 	ldrd	r2, r1, [r1, #4]
 8003224:	f7ff ff92 	bl	800314c <TIM_ETR_SetConfig>
 8003228:	6883      	ldr	r3, [r0, #8]
 800322a:	f443 4380 	orr.w	r3, r3, #16384	@ 0x4000
 800322e:	e7f3      	b.n	8003218 <HAL_TIM_ConfigClockSource+0xb8>
 8003230:	6a03      	ldr	r3, [r0, #32]
 8003232:	6a02      	ldr	r2, [r0, #32]
 8003234:	684d      	ldr	r5, [r1, #4]
 8003236:	f022 0210 	bic.w	r2, r2, #16
 800323a:	68c9      	ldr	r1, [r1, #12]
 800323c:	6202      	str	r2, [r0, #32]
 800323e:	6982      	ldr	r2, [r0, #24]
 8003240:	f023 03a0 	bic.w	r3, r3, #160	@ 0xa0
 8003244:	f422 4270 	bic.w	r2, r2, #61440	@ 0xf000
 8003248:	ea43 1305 	orr.w	r3, r3, r5, lsl #4
 800324c:	ea42 3201 	orr.w	r2, r2, r1, lsl #12
 8003250:	6182      	str	r2, [r0, #24]
 8003252:	6203      	str	r3, [r0, #32]
 8003254:	6883      	ldr	r3, [r0, #8]
 8003256:	f023 0370 	bic.w	r3, r3, #112	@ 0x70
 800325a:	f043 0367 	orr.w	r3, r3, #103	@ 0x67
 800325e:	e7db      	b.n	8003218 <HAL_TIM_ConfigClockSource+0xb8>
 8003260:	684a      	ldr	r2, [r1, #4]
 8003262:	68cd      	ldr	r5, [r1, #12]
 8003264:	6a01      	ldr	r1, [r0, #32]
 8003266:	6a03      	ldr	r3, [r0, #32]
 8003268:	f021 010a 	bic.w	r1, r1, #10
 800326c:	f023 0301 	bic.w	r3, r3, #1
 8003270:	6203      	str	r3, [r0, #32]
 8003272:	6983      	ldr	r3, [r0, #24]
 8003274:	430a      	orrs	r2, r1
 8003276:	f023 03f0 	bic.w	r3, r3, #240	@ 0xf0
 800327a:	ea43 1305 	orr.w	r3, r3, r5, lsl #4
 800327e:	6183      	str	r3, [r0, #24]
 8003280:	6202      	str	r2, [r0, #32]
 8003282:	6883      	ldr	r3, [r0, #8]
 8003284:	f023 0370 	bic.w	r3, r3, #112	@ 0x70
 8003288:	f043 0347 	orr.w	r3, r3, #71	@ 0x47
 800328c:	e7c4      	b.n	8003218 <HAL_TIM_ConfigClockSource+0xb8>
 800328e:	4602      	mov	r2, r0
 8003290:	e78e      	b.n	80031b0 <HAL_TIM_ConfigClockSource+0x50>
	...

08003294 <HAL_TIMEx_MasterConfigSynchronization>:
 8003294:	b530      	push	{r4, r5, lr}
 8003296:	f890 303c 	ldrb.w	r3, [r0, #60]	@ 0x3c
 800329a:	4602      	mov	r2, r0
 800329c:	2b01      	cmp	r3, #1
 800329e:	f04f 0002 	mov.w	r0, #2
 80032a2:	d022      	beq.n	80032ea <HAL_TIMEx_MasterConfigSynchronization+0x56>
 80032a4:	6813      	ldr	r3, [r2, #0]
 80032a6:	f882 003d 	strb.w	r0, [r2, #61]	@ 0x3d
 80032aa:	685c      	ldr	r4, [r3, #4]
 80032ac:	680d      	ldr	r5, [r1, #0]
 80032ae:	f024 0470 	bic.w	r4, r4, #112	@ 0x70
 80032b2:	432c      	orrs	r4, r5
 80032b4:	6898      	ldr	r0, [r3, #8]
 80032b6:	605c      	str	r4, [r3, #4]
 80032b8:	4c0c      	ldr	r4, [pc, #48]	@ (80032ec <HAL_TIMEx_MasterConfigSynchronization+0x58>)
 80032ba:	42a3      	cmp	r3, r4
 80032bc:	d00a      	beq.n	80032d4 <HAL_TIMEx_MasterConfigSynchronization+0x40>
 80032be:	f1b3 4f80 	cmp.w	r3, #1073741824	@ 0x40000000
 80032c2:	d007      	beq.n	80032d4 <HAL_TIMEx_MasterConfigSynchronization+0x40>
 80032c4:	f5a4 3494 	sub.w	r4, r4, #75776	@ 0x12800
 80032c8:	42a3      	cmp	r3, r4
 80032ca:	d003      	beq.n	80032d4 <HAL_TIMEx_MasterConfigSynchronization+0x40>
 80032cc:	f504 6480 	add.w	r4, r4, #1024	@ 0x400
 80032d0:	42a3      	cmp	r3, r4
 80032d2:	d104      	bne.n	80032de <HAL_TIMEx_MasterConfigSynchronization+0x4a>
 80032d4:	6849      	ldr	r1, [r1, #4]
 80032d6:	f020 0080 	bic.w	r0, r0, #128	@ 0x80
 80032da:	4301      	orrs	r1, r0
 80032dc:	6099      	str	r1, [r3, #8]
 80032de:	2301      	movs	r3, #1
 80032e0:	2000      	movs	r0, #0
 80032e2:	f882 303d 	strb.w	r3, [r2, #61]	@ 0x3d
 80032e6:	f882 003c 	strb.w	r0, [r2, #60]	@ 0x3c
 80032ea:	bd30      	pop	{r4, r5, pc}
 80032ec:	40012c00 	.word	0x40012c00

080032f0 <HAL_TIMEx_CommutCallback>:
 80032f0:	4770      	bx	lr

080032f2 <HAL_TIMEx_BreakCallback>:
 80032f2:	4770      	bx	lr

080032f4 <UART_EndRxTransfer>:
 80032f4:	6802      	ldr	r2, [r0, #0]
 80032f6:	f102 030c 	add.w	r3, r2, #12
 80032fa:	e853 3f00 	ldrex	r3, [r3]
 80032fe:	f423 7390 	bic.w	r3, r3, #288	@ 0x120
 8003302:	320c      	adds	r2, #12
 8003304:	e842 3100 	strex	r1, r3, [r2]
 8003308:	6802      	ldr	r2, [r0, #0]
 800330a:	2900      	cmp	r1, #0
 800330c:	d1f2      	bne.n	80032f4 <UART_EndRxTransfer>
 800330e:	f102 0314 	add.w	r3, r2, #20
 8003312:	e853 3f00 	ldrex	r3, [r3]
 8003316:	f023 0301 	bic.w	r3, r3, #1
 800331a:	f102 0c14 	add.w	ip, r2, #20
 800331e:	e84c 3100 	strex	r1, r3, [ip]
 8003322:	2900      	cmp	r1, #0
 8003324:	d1f3      	bne.n	800330e <UART_EndRxTransfer+0x1a>
 8003326:	6b03      	ldr	r3, [r0, #48]	@ 0x30
 8003328:	2b01      	cmp	r3, #1
 800332a:	d10b      	bne.n	8003344 <UART_EndRxTransfer+0x50>
 800332c:	f102 030c 	add.w	r3, r2, #12
 8003330:	e853 3f00 	ldrex	r3, [r3]
 8003334:	f023 0310 	bic.w	r3, r3, #16
 8003338:	f102 0c0c 	add.w	ip, r2, #12
 800333c:	e84c 3100 	strex	r1, r3, [ip]
 8003340:	2900      	cmp	r1, #0
 8003342:	d1f3      	bne.n	800332c <UART_EndRxTransfer+0x38>
 8003344:	2320      	movs	r3, #32
 8003346:	f880 3042 	strb.w	r3, [r0, #66]	@ 0x42
 800334a:	2300      	movs	r3, #0
 800334c:	6303      	str	r3, [r0, #48]	@ 0x30
 800334e:	4770      	bx	lr

08003350 <UART_SetConfig>:
 8003350:	b510      	push	{r4, lr}
 8003352:	4604      	mov	r4, r0
 8003354:	6803      	ldr	r3, [r0, #0]
 8003356:	68c1      	ldr	r1, [r0, #12]
 8003358:	691a      	ldr	r2, [r3, #16]
 800335a:	f422 5240 	bic.w	r2, r2, #12288	@ 0x3000
 800335e:	430a      	orrs	r2, r1
 8003360:	611a      	str	r2, [r3, #16]
 8003362:	6882      	ldr	r2, [r0, #8]
 8003364:	6900      	ldr	r0, [r0, #16]
 8003366:	68d9      	ldr	r1, [r3, #12]
 8003368:	4302      	orrs	r2, r0
 800336a:	6960      	ldr	r0, [r4, #20]
 800336c:	f421 51b0 	bic.w	r1, r1, #5632	@ 0x1600
 8003370:	f021 010c 	bic.w	r1, r1, #12
 8003374:	4302      	orrs	r2, r0
 8003376:	430a      	orrs	r2, r1
 8003378:	60da      	str	r2, [r3, #12]
 800337a:	695a      	ldr	r2, [r3, #20]
 800337c:	69a1      	ldr	r1, [r4, #24]
 800337e:	f422 7240 	bic.w	r2, r2, #768	@ 0x300
 8003382:	430a      	orrs	r2, r1
 8003384:	615a      	str	r2, [r3, #20]
 8003386:	4a0e      	ldr	r2, [pc, #56]	@ (80033c0 <UART_SetConfig+0x70>)
 8003388:	4293      	cmp	r3, r2
 800338a:	d115      	bne.n	80033b8 <UART_SetConfig+0x68>
 800338c:	f7ff fd16 	bl	8002dbc <HAL_RCC_GetPCLK2Freq>
 8003390:	2319      	movs	r3, #25
 8003392:	4343      	muls	r3, r0
 8003394:	6862      	ldr	r2, [r4, #4]
 8003396:	6820      	ldr	r0, [r4, #0]
 8003398:	0092      	lsls	r2, r2, #2
 800339a:	fbb3 f3f2 	udiv	r3, r3, r2
 800339e:	2264      	movs	r2, #100	@ 0x64
 80033a0:	fbb3 f1f2 	udiv	r1, r3, r2
 80033a4:	fb02 3311 	mls	r3, r2, r1, r3
 80033a8:	011b      	lsls	r3, r3, #4
 80033aa:	3332      	adds	r3, #50	@ 0x32
 80033ac:	fbb3 f3f2 	udiv	r3, r3, r2
 80033b0:	eb03 1301 	add.w	r3, r3, r1, lsl #4
 80033b4:	6083      	str	r3, [r0, #8]
 80033b6:	bd10      	pop	{r4, pc}
 80033b8:	f7ff fcf0 	bl	8002d9c <HAL_RCC_GetPCLK1Freq>
 80033bc:	e7e8      	b.n	8003390 <UART_SetConfig+0x40>
 80033be:	bf00      	nop
 80033c0:	40013800 	.word	0x40013800

080033c4 <UART_WaitOnFlagUntilTimeout.constprop.0>:
 80033c4:	b5f7      	push	{r0, r1, r2, r4, r5, r6, r7, lr}
 80033c6:	4605      	mov	r5, r0
 80033c8:	460c      	mov	r4, r1
 80033ca:	4617      	mov	r7, r2
 80033cc:	461e      	mov	r6, r3
 80033ce:	682a      	ldr	r2, [r5, #0]
 80033d0:	6813      	ldr	r3, [r2, #0]
 80033d2:	ea34 0303 	bics.w	r3, r4, r3
 80033d6:	d101      	bne.n	80033dc <UART_WaitOnFlagUntilTimeout.constprop.0+0x18>
 80033d8:	2000      	movs	r0, #0
 80033da:	e021      	b.n	8003420 <UART_WaitOnFlagUntilTimeout.constprop.0+0x5c>
 80033dc:	1c70      	adds	r0, r6, #1
 80033de:	d0f7      	beq.n	80033d0 <UART_WaitOnFlagUntilTimeout.constprop.0+0xc>
 80033e0:	f7fe ff10 	bl	8002204 <HAL_GetTick>
 80033e4:	1bc0      	subs	r0, r0, r7
 80033e6:	4286      	cmp	r6, r0
 80033e8:	d31c      	bcc.n	8003424 <UART_WaitOnFlagUntilTimeout.constprop.0+0x60>
 80033ea:	b1de      	cbz	r6, 8003424 <UART_WaitOnFlagUntilTimeout.constprop.0+0x60>
 80033ec:	682b      	ldr	r3, [r5, #0]
 80033ee:	68da      	ldr	r2, [r3, #12]
 80033f0:	0751      	lsls	r1, r2, #29
 80033f2:	d5ec      	bpl.n	80033ce <UART_WaitOnFlagUntilTimeout.constprop.0+0xa>
 80033f4:	2c80      	cmp	r4, #128	@ 0x80
 80033f6:	d0ea      	beq.n	80033ce <UART_WaitOnFlagUntilTimeout.constprop.0+0xa>
 80033f8:	2c40      	cmp	r4, #64	@ 0x40
 80033fa:	d0e8      	beq.n	80033ce <UART_WaitOnFlagUntilTimeout.constprop.0+0xa>
 80033fc:	681a      	ldr	r2, [r3, #0]
 80033fe:	0712      	lsls	r2, r2, #28
 8003400:	d5e5      	bpl.n	80033ce <UART_WaitOnFlagUntilTimeout.constprop.0+0xa>
 8003402:	2400      	movs	r4, #0
 8003404:	9401      	str	r4, [sp, #4]
 8003406:	681a      	ldr	r2, [r3, #0]
 8003408:	4628      	mov	r0, r5
 800340a:	9201      	str	r2, [sp, #4]
 800340c:	685b      	ldr	r3, [r3, #4]
 800340e:	9301      	str	r3, [sp, #4]
 8003410:	9b01      	ldr	r3, [sp, #4]
 8003412:	f7ff ff6f 	bl	80032f4 <UART_EndRxTransfer>
 8003416:	2308      	movs	r3, #8
 8003418:	2001      	movs	r0, #1
 800341a:	646b      	str	r3, [r5, #68]	@ 0x44
 800341c:	f885 4040 	strb.w	r4, [r5, #64]	@ 0x40
 8003420:	b003      	add	sp, #12
 8003422:	bdf0      	pop	{r4, r5, r6, r7, pc}
 8003424:	2003      	movs	r0, #3
 8003426:	e7fb      	b.n	8003420 <UART_WaitOnFlagUntilTimeout.constprop.0+0x5c>

08003428 <HAL_UART_Init>:
 8003428:	b510      	push	{r4, lr}
 800342a:	4604      	mov	r4, r0
 800342c:	b348      	cbz	r0, 8003482 <HAL_UART_Init+0x5a>
 800342e:	f890 3041 	ldrb.w	r3, [r0, #65]	@ 0x41
 8003432:	f003 02ff 	and.w	r2, r3, #255	@ 0xff
 8003436:	b91b      	cbnz	r3, 8003440 <HAL_UART_Init+0x18>
 8003438:	f880 2040 	strb.w	r2, [r0, #64]	@ 0x40
 800343c:	f7fe fbfc 	bl	8001c38 <HAL_UART_MspInit>
 8003440:	2324      	movs	r3, #36	@ 0x24
 8003442:	6822      	ldr	r2, [r4, #0]
 8003444:	f884 3041 	strb.w	r3, [r4, #65]	@ 0x41
 8003448:	68d3      	ldr	r3, [r2, #12]
 800344a:	4620      	mov	r0, r4
 800344c:	f423 5300 	bic.w	r3, r3, #8192	@ 0x2000
 8003450:	60d3      	str	r3, [r2, #12]
 8003452:	f7ff ff7d 	bl	8003350 <UART_SetConfig>
 8003456:	6823      	ldr	r3, [r4, #0]
 8003458:	2000      	movs	r0, #0
 800345a:	691a      	ldr	r2, [r3, #16]
 800345c:	f422 4290 	bic.w	r2, r2, #18432	@ 0x4800
 8003460:	611a      	str	r2, [r3, #16]
 8003462:	695a      	ldr	r2, [r3, #20]
 8003464:	f022 022a 	bic.w	r2, r2, #42	@ 0x2a
 8003468:	615a      	str	r2, [r3, #20]
 800346a:	68da      	ldr	r2, [r3, #12]
 800346c:	f442 5200 	orr.w	r2, r2, #8192	@ 0x2000
 8003470:	60da      	str	r2, [r3, #12]
 8003472:	2320      	movs	r3, #32
 8003474:	6460      	str	r0, [r4, #68]	@ 0x44
 8003476:	f884 3041 	strb.w	r3, [r4, #65]	@ 0x41
 800347a:	f884 3042 	strb.w	r3, [r4, #66]	@ 0x42
 800347e:	6360      	str	r0, [r4, #52]	@ 0x34
 8003480:	bd10      	pop	{r4, pc}
 8003482:	2001      	movs	r0, #1
 8003484:	e7fc      	b.n	8003480 <HAL_UART_Init+0x58>

08003486 <HAL_UART_Transmit>:
 8003486:	e92d 43f8 	stmdb	sp!, {r3, r4, r5, r6, r7, r8, r9, lr}
 800348a:	4698      	mov	r8, r3
 800348c:	f890 3041 	ldrb.w	r3, [r0, #65]	@ 0x41
 8003490:	4604      	mov	r4, r0
 8003492:	2b20      	cmp	r3, #32
 8003494:	460e      	mov	r6, r1
 8003496:	4617      	mov	r7, r2
 8003498:	d13f      	bne.n	800351a <HAL_UART_Transmit+0x94>
 800349a:	2900      	cmp	r1, #0
 800349c:	d03f      	beq.n	800351e <HAL_UART_Transmit+0x98>
 800349e:	2a00      	cmp	r2, #0
 80034a0:	d03d      	beq.n	800351e <HAL_UART_Transmit+0x98>
 80034a2:	2321      	movs	r3, #33	@ 0x21
 80034a4:	2500      	movs	r5, #0
 80034a6:	6445      	str	r5, [r0, #68]	@ 0x44
 80034a8:	f880 3041 	strb.w	r3, [r0, #65]	@ 0x41
 80034ac:	f7fe feaa 	bl	8002204 <HAL_GetTick>
 80034b0:	68a3      	ldr	r3, [r4, #8]
 80034b2:	4681      	mov	r9, r0
 80034b4:	f5b3 5f80 	cmp.w	r3, #4096	@ 0x1000
 80034b8:	84a7      	strh	r7, [r4, #36]	@ 0x24
 80034ba:	84e7      	strh	r7, [r4, #38]	@ 0x26
 80034bc:	d103      	bne.n	80034c6 <HAL_UART_Transmit+0x40>
 80034be:	6923      	ldr	r3, [r4, #16]
 80034c0:	b90b      	cbnz	r3, 80034c6 <HAL_UART_Transmit+0x40>
 80034c2:	4635      	mov	r5, r6
 80034c4:	461e      	mov	r6, r3
 80034c6:	8ce3      	ldrh	r3, [r4, #38]	@ 0x26
 80034c8:	b29b      	uxth	r3, r3
 80034ca:	b953      	cbnz	r3, 80034e2 <HAL_UART_Transmit+0x5c>
 80034cc:	4643      	mov	r3, r8
 80034ce:	464a      	mov	r2, r9
 80034d0:	2140      	movs	r1, #64	@ 0x40
 80034d2:	4620      	mov	r0, r4
 80034d4:	f7ff ff76 	bl	80033c4 <UART_WaitOnFlagUntilTimeout.constprop.0>
 80034d8:	2320      	movs	r3, #32
 80034da:	b950      	cbnz	r0, 80034f2 <HAL_UART_Transmit+0x6c>
 80034dc:	f884 3041 	strb.w	r3, [r4, #65]	@ 0x41
 80034e0:	e00a      	b.n	80034f8 <HAL_UART_Transmit+0x72>
 80034e2:	4643      	mov	r3, r8
 80034e4:	464a      	mov	r2, r9
 80034e6:	2180      	movs	r1, #128	@ 0x80
 80034e8:	4620      	mov	r0, r4
 80034ea:	f7ff ff6b 	bl	80033c4 <UART_WaitOnFlagUntilTimeout.constprop.0>
 80034ee:	b128      	cbz	r0, 80034fc <HAL_UART_Transmit+0x76>
 80034f0:	2320      	movs	r3, #32
 80034f2:	2003      	movs	r0, #3
 80034f4:	f884 3041 	strb.w	r3, [r4, #65]	@ 0x41
 80034f8:	e8bd 83f8 	ldmia.w	sp!, {r3, r4, r5, r6, r7, r8, r9, pc}
 80034fc:	6822      	ldr	r2, [r4, #0]
 80034fe:	b94e      	cbnz	r6, 8003514 <HAL_UART_Transmit+0x8e>
 8003500:	f835 3b02 	ldrh.w	r3, [r5], #2
 8003504:	f3c3 0308 	ubfx	r3, r3, #0, #9
 8003508:	6053      	str	r3, [r2, #4]
 800350a:	8ce1      	ldrh	r1, [r4, #38]	@ 0x26
 800350c:	3901      	subs	r1, #1
 800350e:	b289      	uxth	r1, r1
 8003510:	84e1      	strh	r1, [r4, #38]	@ 0x26
 8003512:	e7d8      	b.n	80034c6 <HAL_UART_Transmit+0x40>
 8003514:	f816 3b01 	ldrb.w	r3, [r6], #1
 8003518:	e7f6      	b.n	8003508 <HAL_UART_Transmit+0x82>
 800351a:	2002      	movs	r0, #2
 800351c:	e7ec      	b.n	80034f8 <HAL_UART_Transmit+0x72>
 800351e:	2001      	movs	r0, #1
 8003520:	e7ea      	b.n	80034f8 <HAL_UART_Transmit+0x72>

08003522 <HAL_UART_TxCpltCallback>:
 8003522:	4770      	bx	lr

08003524 <HAL_UART_ErrorCallback>:
 8003524:	4770      	bx	lr

08003526 <UART_DMAAbortOnError>:
 8003526:	b508      	push	{r3, lr}
 8003528:	2300      	movs	r3, #0
 800352a:	6a40      	ldr	r0, [r0, #36]	@ 0x24
 800352c:	85c3      	strh	r3, [r0, #46]	@ 0x2e
 800352e:	84c3      	strh	r3, [r0, #38]	@ 0x26
 8003530:	f7ff fff8 	bl	8003524 <HAL_UART_ErrorCallback>
 8003534:	bd08      	pop	{r3, pc}

08003536 <HAL_UARTEx_RxEventCallback>:
 8003536:	4770      	bx	lr

08003538 <UART_Receive_IT.isra.0>:
 8003538:	f890 3042 	ldrb.w	r3, [r0, #66]	@ 0x42
 800353c:	b507      	push	{r0, r1, r2, lr}
 800353e:	2b22      	cmp	r3, #34	@ 0x22
 8003540:	d142      	bne.n	80035c8 <UART_Receive_IT.isra.0+0x90>
 8003542:	6881      	ldr	r1, [r0, #8]
 8003544:	6802      	ldr	r2, [r0, #0]
 8003546:	f5b1 5f80 	cmp.w	r1, #4096	@ 0x1000
 800354a:	6a83      	ldr	r3, [r0, #40]	@ 0x28
 800354c:	d13f      	bne.n	80035ce <UART_Receive_IT.isra.0+0x96>
 800354e:	6901      	ldr	r1, [r0, #16]
 8003550:	2900      	cmp	r1, #0
 8003552:	d13f      	bne.n	80035d4 <UART_Receive_IT.isra.0+0x9c>
 8003554:	6852      	ldr	r2, [r2, #4]
 8003556:	f3c2 0208 	ubfx	r2, r2, #0, #9
 800355a:	f823 2b02 	strh.w	r2, [r3], #2
 800355e:	6283      	str	r3, [r0, #40]	@ 0x28
 8003560:	8dc3      	ldrh	r3, [r0, #46]	@ 0x2e
 8003562:	3b01      	subs	r3, #1
 8003564:	b29b      	uxth	r3, r3
 8003566:	85c3      	strh	r3, [r0, #46]	@ 0x2e
 8003568:	2b00      	cmp	r3, #0
 800356a:	d12d      	bne.n	80035c8 <UART_Receive_IT.isra.0+0x90>
 800356c:	6802      	ldr	r2, [r0, #0]
 800356e:	68d1      	ldr	r1, [r2, #12]
 8003570:	f021 0120 	bic.w	r1, r1, #32
 8003574:	60d1      	str	r1, [r2, #12]
 8003576:	68d1      	ldr	r1, [r2, #12]
 8003578:	f421 7180 	bic.w	r1, r1, #256	@ 0x100
 800357c:	60d1      	str	r1, [r2, #12]
 800357e:	6951      	ldr	r1, [r2, #20]
 8003580:	f021 0101 	bic.w	r1, r1, #1
 8003584:	6151      	str	r1, [r2, #20]
 8003586:	2220      	movs	r2, #32
 8003588:	f880 2042 	strb.w	r2, [r0, #66]	@ 0x42
 800358c:	6343      	str	r3, [r0, #52]	@ 0x34
 800358e:	6b02      	ldr	r2, [r0, #48]	@ 0x30
 8003590:	2a01      	cmp	r2, #1
 8003592:	6802      	ldr	r2, [r0, #0]
 8003594:	d128      	bne.n	80035e8 <UART_Receive_IT.isra.0+0xb0>
 8003596:	6303      	str	r3, [r0, #48]	@ 0x30
 8003598:	f102 030c 	add.w	r3, r2, #12
 800359c:	e853 3f00 	ldrex	r3, [r3]
 80035a0:	f023 0310 	bic.w	r3, r3, #16
 80035a4:	f102 0c0c 	add.w	ip, r2, #12
 80035a8:	e84c 3100 	strex	r1, r3, [ip]
 80035ac:	2900      	cmp	r1, #0
 80035ae:	d1f3      	bne.n	8003598 <UART_Receive_IT.isra.0+0x60>
 80035b0:	6813      	ldr	r3, [r2, #0]
 80035b2:	06db      	lsls	r3, r3, #27
 80035b4:	d505      	bpl.n	80035c2 <UART_Receive_IT.isra.0+0x8a>
 80035b6:	9101      	str	r1, [sp, #4]
 80035b8:	6813      	ldr	r3, [r2, #0]
 80035ba:	9301      	str	r3, [sp, #4]
 80035bc:	6853      	ldr	r3, [r2, #4]
 80035be:	9301      	str	r3, [sp, #4]
 80035c0:	9b01      	ldr	r3, [sp, #4]
 80035c2:	8d81      	ldrh	r1, [r0, #44]	@ 0x2c
 80035c4:	f7ff ffb7 	bl	8003536 <HAL_UARTEx_RxEventCallback>
 80035c8:	b003      	add	sp, #12
 80035ca:	f85d fb04 	ldr.w	pc, [sp], #4
 80035ce:	b939      	cbnz	r1, 80035e0 <UART_Receive_IT.isra.0+0xa8>
 80035d0:	6901      	ldr	r1, [r0, #16]
 80035d2:	b929      	cbnz	r1, 80035e0 <UART_Receive_IT.isra.0+0xa8>
 80035d4:	6852      	ldr	r2, [r2, #4]
 80035d6:	b2d2      	uxtb	r2, r2
 80035d8:	701a      	strb	r2, [r3, #0]
 80035da:	6a83      	ldr	r3, [r0, #40]	@ 0x28
 80035dc:	3301      	adds	r3, #1
 80035de:	e7be      	b.n	800355e <UART_Receive_IT.isra.0+0x26>
 80035e0:	6852      	ldr	r2, [r2, #4]
 80035e2:	f002 027f 	and.w	r2, r2, #127	@ 0x7f
 80035e6:	e7f7      	b.n	80035d8 <UART_Receive_IT.isra.0+0xa0>
 80035e8:	f7fe fd1c 	bl	8002024 <HAL_UART_RxCpltCallback>
 80035ec:	e7ec      	b.n	80035c8 <UART_Receive_IT.isra.0+0x90>
	...

080035f0 <HAL_UART_IRQHandler>:
 80035f0:	6803      	ldr	r3, [r0, #0]
 80035f2:	b573      	push	{r0, r1, r4, r5, r6, lr}
 80035f4:	681a      	ldr	r2, [r3, #0]
 80035f6:	4604      	mov	r4, r0
 80035f8:	0716      	lsls	r6, r2, #28
 80035fa:	68d9      	ldr	r1, [r3, #12]
 80035fc:	695d      	ldr	r5, [r3, #20]
 80035fe:	d108      	bne.n	8003612 <HAL_UART_IRQHandler+0x22>
 8003600:	0696      	lsls	r6, r2, #26
 8003602:	d568      	bpl.n	80036d6 <HAL_UART_IRQHandler+0xe6>
 8003604:	068d      	lsls	r5, r1, #26
 8003606:	d566      	bpl.n	80036d6 <HAL_UART_IRQHandler+0xe6>
 8003608:	b002      	add	sp, #8
 800360a:	e8bd 4070 	ldmia.w	sp!, {r4, r5, r6, lr}
 800360e:	f7ff bf93 	b.w	8003538 <UART_Receive_IT.isra.0>
 8003612:	f005 0001 	and.w	r0, r5, #1
 8003616:	f401 7590 	and.w	r5, r1, #288	@ 0x120
 800361a:	4305      	orrs	r5, r0
 800361c:	d05b      	beq.n	80036d6 <HAL_UART_IRQHandler+0xe6>
 800361e:	07d6      	lsls	r6, r2, #31
 8003620:	d505      	bpl.n	800362e <HAL_UART_IRQHandler+0x3e>
 8003622:	05cd      	lsls	r5, r1, #23
 8003624:	bf42      	ittt	mi
 8003626:	6c63      	ldrmi	r3, [r4, #68]	@ 0x44
 8003628:	f043 0301 	orrmi.w	r3, r3, #1
 800362c:	6463      	strmi	r3, [r4, #68]	@ 0x44
 800362e:	0753      	lsls	r3, r2, #29
 8003630:	d504      	bpl.n	800363c <HAL_UART_IRQHandler+0x4c>
 8003632:	b118      	cbz	r0, 800363c <HAL_UART_IRQHandler+0x4c>
 8003634:	6c63      	ldr	r3, [r4, #68]	@ 0x44
 8003636:	f043 0302 	orr.w	r3, r3, #2
 800363a:	6463      	str	r3, [r4, #68]	@ 0x44
 800363c:	0796      	lsls	r6, r2, #30
 800363e:	d504      	bpl.n	800364a <HAL_UART_IRQHandler+0x5a>
 8003640:	b118      	cbz	r0, 800364a <HAL_UART_IRQHandler+0x5a>
 8003642:	6c63      	ldr	r3, [r4, #68]	@ 0x44
 8003644:	f043 0304 	orr.w	r3, r3, #4
 8003648:	6463      	str	r3, [r4, #68]	@ 0x44
 800364a:	0715      	lsls	r5, r2, #28
 800364c:	d507      	bpl.n	800365e <HAL_UART_IRQHandler+0x6e>
 800364e:	f001 0320 	and.w	r3, r1, #32
 8003652:	4303      	orrs	r3, r0
 8003654:	bf1e      	ittt	ne
 8003656:	6c63      	ldrne	r3, [r4, #68]	@ 0x44
 8003658:	f043 0308 	orrne.w	r3, r3, #8
 800365c:	6463      	strne	r3, [r4, #68]	@ 0x44
 800365e:	6c63      	ldr	r3, [r4, #68]	@ 0x44
 8003660:	2b00      	cmp	r3, #0
 8003662:	d032      	beq.n	80036ca <HAL_UART_IRQHandler+0xda>
 8003664:	0692      	lsls	r2, r2, #26
 8003666:	d504      	bpl.n	8003672 <HAL_UART_IRQHandler+0x82>
 8003668:	068b      	lsls	r3, r1, #26
 800366a:	d502      	bpl.n	8003672 <HAL_UART_IRQHandler+0x82>
 800366c:	4620      	mov	r0, r4
 800366e:	f7ff ff63 	bl	8003538 <UART_Receive_IT.isra.0>
 8003672:	6826      	ldr	r6, [r4, #0]
 8003674:	4620      	mov	r0, r4
 8003676:	6973      	ldr	r3, [r6, #20]
 8003678:	6c62      	ldr	r2, [r4, #68]	@ 0x44
 800367a:	f003 0340 	and.w	r3, r3, #64	@ 0x40
 800367e:	f002 0208 	and.w	r2, r2, #8
 8003682:	ea53 0502 	orrs.w	r5, r3, r2
 8003686:	d022      	beq.n	80036ce <HAL_UART_IRQHandler+0xde>
 8003688:	f7ff fe34 	bl	80032f4 <UART_EndRxTransfer>
 800368c:	6973      	ldr	r3, [r6, #20]
 800368e:	065e      	lsls	r6, r3, #25
 8003690:	d518      	bpl.n	80036c4 <HAL_UART_IRQHandler+0xd4>
 8003692:	6822      	ldr	r2, [r4, #0]
 8003694:	f102 0314 	add.w	r3, r2, #20
 8003698:	e853 3f00 	ldrex	r3, [r3]
 800369c:	f023 0340 	bic.w	r3, r3, #64	@ 0x40
 80036a0:	3214      	adds	r2, #20
 80036a2:	e842 3100 	strex	r1, r3, [r2]
 80036a6:	2900      	cmp	r1, #0
 80036a8:	d1f3      	bne.n	8003692 <HAL_UART_IRQHandler+0xa2>
 80036aa:	6be0      	ldr	r0, [r4, #60]	@ 0x3c
 80036ac:	b150      	cbz	r0, 80036c4 <HAL_UART_IRQHandler+0xd4>
 80036ae:	4b74      	ldr	r3, [pc, #464]	@ (8003880 <HAL_UART_IRQHandler+0x290>)
 80036b0:	6343      	str	r3, [r0, #52]	@ 0x34
 80036b2:	f7fe ff3f 	bl	8002534 <HAL_DMA_Abort_IT>
 80036b6:	b140      	cbz	r0, 80036ca <HAL_UART_IRQHandler+0xda>
 80036b8:	6be0      	ldr	r0, [r4, #60]	@ 0x3c
 80036ba:	6b43      	ldr	r3, [r0, #52]	@ 0x34
 80036bc:	b002      	add	sp, #8
 80036be:	e8bd 4070 	ldmia.w	sp!, {r4, r5, r6, lr}
 80036c2:	4718      	bx	r3
 80036c4:	4620      	mov	r0, r4
 80036c6:	f7ff ff2d 	bl	8003524 <HAL_UART_ErrorCallback>
 80036ca:	b002      	add	sp, #8
 80036cc:	bd70      	pop	{r4, r5, r6, pc}
 80036ce:	f7ff ff29 	bl	8003524 <HAL_UART_ErrorCallback>
 80036d2:	6465      	str	r5, [r4, #68]	@ 0x44
 80036d4:	e7f9      	b.n	80036ca <HAL_UART_IRQHandler+0xda>
 80036d6:	6b20      	ldr	r0, [r4, #48]	@ 0x30
 80036d8:	2801      	cmp	r0, #1
 80036da:	f040 8094 	bne.w	8003806 <HAL_UART_IRQHandler+0x216>
 80036de:	06d5      	lsls	r5, r2, #27
 80036e0:	f140 8091 	bpl.w	8003806 <HAL_UART_IRQHandler+0x216>
 80036e4:	06c8      	lsls	r0, r1, #27
 80036e6:	f140 808e 	bpl.w	8003806 <HAL_UART_IRQHandler+0x216>
 80036ea:	2200      	movs	r2, #0
 80036ec:	9201      	str	r2, [sp, #4]
 80036ee:	681a      	ldr	r2, [r3, #0]
 80036f0:	9201      	str	r2, [sp, #4]
 80036f2:	685a      	ldr	r2, [r3, #4]
 80036f4:	9201      	str	r2, [sp, #4]
 80036f6:	9a01      	ldr	r2, [sp, #4]
 80036f8:	695a      	ldr	r2, [r3, #20]
 80036fa:	0652      	lsls	r2, r2, #25
 80036fc:	d54d      	bpl.n	800379a <HAL_UART_IRQHandler+0x1aa>
 80036fe:	6be1      	ldr	r1, [r4, #60]	@ 0x3c
 8003700:	680a      	ldr	r2, [r1, #0]
 8003702:	6852      	ldr	r2, [r2, #4]
 8003704:	b292      	uxth	r2, r2
 8003706:	2a00      	cmp	r2, #0
 8003708:	d0df      	beq.n	80036ca <HAL_UART_IRQHandler+0xda>
 800370a:	8da0      	ldrh	r0, [r4, #44]	@ 0x2c
 800370c:	4290      	cmp	r0, r2
 800370e:	d9dc      	bls.n	80036ca <HAL_UART_IRQHandler+0xda>
 8003710:	85e2      	strh	r2, [r4, #46]	@ 0x2e
 8003712:	698a      	ldr	r2, [r1, #24]
 8003714:	2a20      	cmp	r2, #32
 8003716:	d036      	beq.n	8003786 <HAL_UART_IRQHandler+0x196>
 8003718:	f103 020c 	add.w	r2, r3, #12
 800371c:	e852 2f00 	ldrex	r2, [r2]
 8003720:	f422 7280 	bic.w	r2, r2, #256	@ 0x100
 8003724:	f103 000c 	add.w	r0, r3, #12
 8003728:	e840 2100 	strex	r1, r2, [r0]
 800372c:	2900      	cmp	r1, #0
 800372e:	d1f3      	bne.n	8003718 <HAL_UART_IRQHandler+0x128>
 8003730:	f103 0214 	add.w	r2, r3, #20
 8003734:	e852 2f00 	ldrex	r2, [r2]
 8003738:	f022 0201 	bic.w	r2, r2, #1
 800373c:	f103 0014 	add.w	r0, r3, #20
 8003740:	e840 2100 	strex	r1, r2, [r0]
 8003744:	2900      	cmp	r1, #0
 8003746:	d1f3      	bne.n	8003730 <HAL_UART_IRQHandler+0x140>
 8003748:	f103 0214 	add.w	r2, r3, #20
 800374c:	e852 2f00 	ldrex	r2, [r2]
 8003750:	f022 0240 	bic.w	r2, r2, #64	@ 0x40
 8003754:	f103 0014 	add.w	r0, r3, #20
 8003758:	e840 2100 	strex	r1, r2, [r0]
 800375c:	2900      	cmp	r1, #0
 800375e:	d1f3      	bne.n	8003748 <HAL_UART_IRQHandler+0x158>
 8003760:	2220      	movs	r2, #32
 8003762:	f884 2042 	strb.w	r2, [r4, #66]	@ 0x42
 8003766:	6321      	str	r1, [r4, #48]	@ 0x30
 8003768:	f103 020c 	add.w	r2, r3, #12
 800376c:	e852 2f00 	ldrex	r2, [r2]
 8003770:	f022 0210 	bic.w	r2, r2, #16
 8003774:	f103 000c 	add.w	r0, r3, #12
 8003778:	e840 2100 	strex	r1, r2, [r0]
 800377c:	2900      	cmp	r1, #0
 800377e:	d1f3      	bne.n	8003768 <HAL_UART_IRQHandler+0x178>
 8003780:	6be0      	ldr	r0, [r4, #60]	@ 0x3c
 8003782:	f7fe feb7 	bl	80024f4 <HAL_DMA_Abort>
 8003786:	2302      	movs	r3, #2
 8003788:	6363      	str	r3, [r4, #52]	@ 0x34
 800378a:	8de3      	ldrh	r3, [r4, #46]	@ 0x2e
 800378c:	8da1      	ldrh	r1, [r4, #44]	@ 0x2c
 800378e:	1ac9      	subs	r1, r1, r3
 8003790:	b289      	uxth	r1, r1
 8003792:	4620      	mov	r0, r4
 8003794:	f7ff fecf 	bl	8003536 <HAL_UARTEx_RxEventCallback>
 8003798:	e797      	b.n	80036ca <HAL_UART_IRQHandler+0xda>
 800379a:	8de2      	ldrh	r2, [r4, #46]	@ 0x2e
 800379c:	8de0      	ldrh	r0, [r4, #46]	@ 0x2e
 800379e:	8da1      	ldrh	r1, [r4, #44]	@ 0x2c
 80037a0:	b280      	uxth	r0, r0
 80037a2:	b292      	uxth	r2, r2
 80037a4:	2800      	cmp	r0, #0
 80037a6:	d090      	beq.n	80036ca <HAL_UART_IRQHandler+0xda>
 80037a8:	1a89      	subs	r1, r1, r2
 80037aa:	b289      	uxth	r1, r1
 80037ac:	2900      	cmp	r1, #0
 80037ae:	d08c      	beq.n	80036ca <HAL_UART_IRQHandler+0xda>
 80037b0:	f103 020c 	add.w	r2, r3, #12
 80037b4:	e852 2f00 	ldrex	r2, [r2]
 80037b8:	f422 7290 	bic.w	r2, r2, #288	@ 0x120
 80037bc:	f103 050c 	add.w	r5, r3, #12
 80037c0:	e845 2000 	strex	r0, r2, [r5]
 80037c4:	2800      	cmp	r0, #0
 80037c6:	d1f3      	bne.n	80037b0 <HAL_UART_IRQHandler+0x1c0>
 80037c8:	f103 0214 	add.w	r2, r3, #20
 80037cc:	e852 2f00 	ldrex	r2, [r2]
 80037d0:	f022 0201 	bic.w	r2, r2, #1
 80037d4:	f103 0514 	add.w	r5, r3, #20
 80037d8:	e845 2000 	strex	r0, r2, [r5]
 80037dc:	2800      	cmp	r0, #0
 80037de:	d1f3      	bne.n	80037c8 <HAL_UART_IRQHandler+0x1d8>
 80037e0:	2220      	movs	r2, #32
 80037e2:	f884 2042 	strb.w	r2, [r4, #66]	@ 0x42
 80037e6:	6320      	str	r0, [r4, #48]	@ 0x30
 80037e8:	f103 020c 	add.w	r2, r3, #12
 80037ec:	e852 2f00 	ldrex	r2, [r2]
 80037f0:	f022 0210 	bic.w	r2, r2, #16
 80037f4:	f103 050c 	add.w	r5, r3, #12
 80037f8:	e845 2000 	strex	r0, r2, [r5]
 80037fc:	2800      	cmp	r0, #0
 80037fe:	d1f3      	bne.n	80037e8 <HAL_UART_IRQHandler+0x1f8>
 8003800:	2302      	movs	r3, #2
 8003802:	6363      	str	r3, [r4, #52]	@ 0x34
 8003804:	e7c5      	b.n	8003792 <HAL_UART_IRQHandler+0x1a2>
 8003806:	0616      	lsls	r6, r2, #24
 8003808:	d528      	bpl.n	800385c <HAL_UART_IRQHandler+0x26c>
 800380a:	060d      	lsls	r5, r1, #24
 800380c:	d526      	bpl.n	800385c <HAL_UART_IRQHandler+0x26c>
 800380e:	f894 2041 	ldrb.w	r2, [r4, #65]	@ 0x41
 8003812:	2a21      	cmp	r2, #33	@ 0x21
 8003814:	f47f af59 	bne.w	80036ca <HAL_UART_IRQHandler+0xda>
 8003818:	68a1      	ldr	r1, [r4, #8]
 800381a:	6a22      	ldr	r2, [r4, #32]
 800381c:	f5b1 5f80 	cmp.w	r1, #4096	@ 0x1000
 8003820:	d117      	bne.n	8003852 <HAL_UART_IRQHandler+0x262>
 8003822:	6921      	ldr	r1, [r4, #16]
 8003824:	b9a9      	cbnz	r1, 8003852 <HAL_UART_IRQHandler+0x262>
 8003826:	f832 1b02 	ldrh.w	r1, [r2], #2
 800382a:	f3c1 0108 	ubfx	r1, r1, #0, #9
 800382e:	6059      	str	r1, [r3, #4]
 8003830:	6222      	str	r2, [r4, #32]
 8003832:	8ce2      	ldrh	r2, [r4, #38]	@ 0x26
 8003834:	3a01      	subs	r2, #1
 8003836:	b292      	uxth	r2, r2
 8003838:	84e2      	strh	r2, [r4, #38]	@ 0x26
 800383a:	2a00      	cmp	r2, #0
 800383c:	f47f af45 	bne.w	80036ca <HAL_UART_IRQHandler+0xda>
 8003840:	68da      	ldr	r2, [r3, #12]
 8003842:	f022 0280 	bic.w	r2, r2, #128	@ 0x80
 8003846:	60da      	str	r2, [r3, #12]
 8003848:	68da      	ldr	r2, [r3, #12]
 800384a:	f042 0240 	orr.w	r2, r2, #64	@ 0x40
 800384e:	60da      	str	r2, [r3, #12]
 8003850:	e73b      	b.n	80036ca <HAL_UART_IRQHandler+0xda>
 8003852:	1c51      	adds	r1, r2, #1
 8003854:	6221      	str	r1, [r4, #32]
 8003856:	7812      	ldrb	r2, [r2, #0]
 8003858:	605a      	str	r2, [r3, #4]
 800385a:	e7ea      	b.n	8003832 <HAL_UART_IRQHandler+0x242>
 800385c:	0650      	lsls	r0, r2, #25
 800385e:	f57f af34 	bpl.w	80036ca <HAL_UART_IRQHandler+0xda>
 8003862:	064a      	lsls	r2, r1, #25
 8003864:	f57f af31 	bpl.w	80036ca <HAL_UART_IRQHandler+0xda>
 8003868:	68da      	ldr	r2, [r3, #12]
 800386a:	4620      	mov	r0, r4
 800386c:	f022 0240 	bic.w	r2, r2, #64	@ 0x40
 8003870:	60da      	str	r2, [r3, #12]
 8003872:	2320      	movs	r3, #32
 8003874:	f884 3041 	strb.w	r3, [r4, #65]	@ 0x41
 8003878:	f7ff fe53 	bl	8003522 <HAL_UART_TxCpltCallback>
 800387c:	e725      	b.n	80036ca <HAL_UART_IRQHandler+0xda>
 800387e:	bf00      	nop
 8003880:	08003527 	.word	0x08003527

08003884 <UART_Start_Receive_IT>:
 8003884:	2300      	movs	r3, #0
 8003886:	85c2      	strh	r2, [r0, #46]	@ 0x2e
 8003888:	6443      	str	r3, [r0, #68]	@ 0x44
 800388a:	2322      	movs	r3, #34	@ 0x22
 800388c:	8582      	strh	r2, [r0, #44]	@ 0x2c
 800388e:	6902      	ldr	r2, [r0, #16]
 8003890:	f880 3042 	strb.w	r3, [r0, #66]	@ 0x42
 8003894:	6281      	str	r1, [r0, #40]	@ 0x28
 8003896:	6803      	ldr	r3, [r0, #0]
 8003898:	b11a      	cbz	r2, 80038a2 <UART_Start_Receive_IT+0x1e>
 800389a:	68da      	ldr	r2, [r3, #12]
 800389c:	f442 7280 	orr.w	r2, r2, #256	@ 0x100
 80038a0:	60da      	str	r2, [r3, #12]
 80038a2:	695a      	ldr	r2, [r3, #20]
 80038a4:	2000      	movs	r0, #0
 80038a6:	f042 0201 	orr.w	r2, r2, #1
 80038aa:	615a      	str	r2, [r3, #20]
 80038ac:	68da      	ldr	r2, [r3, #12]
 80038ae:	f042 0220 	orr.w	r2, r2, #32
 80038b2:	60da      	str	r2, [r3, #12]
 80038b4:	4770      	bx	lr

080038b6 <HAL_UART_Receive_IT>:
 80038b6:	b470      	push	{r4, r5, r6}
 80038b8:	f890 6042 	ldrb.w	r6, [r0, #66]	@ 0x42
 80038bc:	2e20      	cmp	r6, #32
 80038be:	d106      	bne.n	80038ce <HAL_UART_Receive_IT+0x18>
 80038c0:	b141      	cbz	r1, 80038d4 <HAL_UART_Receive_IT+0x1e>
 80038c2:	b13a      	cbz	r2, 80038d4 <HAL_UART_Receive_IT+0x1e>
 80038c4:	2400      	movs	r4, #0
 80038c6:	6304      	str	r4, [r0, #48]	@ 0x30
 80038c8:	bc70      	pop	{r4, r5, r6}
 80038ca:	f7ff bfdb 	b.w	8003884 <UART_Start_Receive_IT>
 80038ce:	2002      	movs	r0, #2
 80038d0:	bc70      	pop	{r4, r5, r6}
 80038d2:	4770      	bx	lr
 80038d4:	2001      	movs	r0, #1
 80038d6:	e7fb      	b.n	80038d0 <HAL_UART_Receive_IT+0x1a>

080038d8 <SysTick_Handler>:
 80038d8:	b508      	push	{r3, lr}
 80038da:	f04f 23e0 	mov.w	r3, #3758153728	@ 0xe000e000
 80038de:	691b      	ldr	r3, [r3, #16]
 80038e0:	f001 f846 	bl	8004970 <xTaskGetSchedulerState>
 80038e4:	2801      	cmp	r0, #1
 80038e6:	d003      	beq.n	80038f0 <SysTick_Handler+0x18>
 80038e8:	e8bd 4008 	ldmia.w	sp!, {r3, lr}
 80038ec:	f001 bb2a 	b.w	8004f44 <xPortSysTickHandler>
 80038f0:	bd08      	pop	{r3, pc}
	...

080038f4 <osKernelInitialize>:
 80038f4:	f3ef 8305 	mrs	r3, IPSR
 80038f8:	b92b      	cbnz	r3, 8003906 <osKernelInitialize+0x12>
 80038fa:	4b06      	ldr	r3, [pc, #24]	@ (8003914 <osKernelInitialize+0x20>)
 80038fc:	6818      	ldr	r0, [r3, #0]
 80038fe:	b928      	cbnz	r0, 800390c <osKernelInitialize+0x18>
 8003900:	2201      	movs	r2, #1
 8003902:	601a      	str	r2, [r3, #0]
 8003904:	4770      	bx	lr
 8003906:	f06f 0005 	mvn.w	r0, #5
 800390a:	4770      	bx	lr
 800390c:	f04f 30ff 	mov.w	r0, #4294967295
 8003910:	4770      	bx	lr
 8003912:	bf00      	nop
 8003914:	20000d24 	.word	0x20000d24

08003918 <osKernelStart>:
 8003918:	b510      	push	{r4, lr}
 800391a:	f3ef 8405 	mrs	r4, IPSR
 800391e:	b95c      	cbnz	r4, 8003938 <osKernelStart+0x20>
 8003920:	4b08      	ldr	r3, [pc, #32]	@ (8003944 <osKernelStart+0x2c>)
 8003922:	681a      	ldr	r2, [r3, #0]
 8003924:	2a01      	cmp	r2, #1
 8003926:	d10a      	bne.n	800393e <osKernelStart+0x26>
 8003928:	4a07      	ldr	r2, [pc, #28]	@ (8003948 <osKernelStart+0x30>)
 800392a:	77d4      	strb	r4, [r2, #31]
 800392c:	2202      	movs	r2, #2
 800392e:	601a      	str	r2, [r3, #0]
 8003930:	f000 fd86 	bl	8004440 <vTaskStartScheduler>
 8003934:	4620      	mov	r0, r4
 8003936:	bd10      	pop	{r4, pc}
 8003938:	f06f 0005 	mvn.w	r0, #5
 800393c:	e7fb      	b.n	8003936 <osKernelStart+0x1e>
 800393e:	f04f 30ff 	mov.w	r0, #4294967295
 8003942:	e7f8      	b.n	8003936 <osKernelStart+0x1e>
 8003944:	20000d24 	.word	0x20000d24
 8003948:	e000ed00 	.word	0xe000ed00

0800394c <osThreadNew>:
 800394c:	b5f0      	push	{r4, r5, r6, r7, lr}
 800394e:	4614      	mov	r4, r2
 8003950:	2200      	movs	r2, #0
 8003952:	b087      	sub	sp, #28
 8003954:	460b      	mov	r3, r1
 8003956:	9205      	str	r2, [sp, #20]
 8003958:	f3ef 8205 	mrs	r2, IPSR
 800395c:	b9fa      	cbnz	r2, 800399e <osThreadNew+0x52>
 800395e:	b1f0      	cbz	r0, 800399e <osThreadNew+0x52>
 8003960:	b354      	cbz	r4, 80039b8 <osThreadNew+0x6c>
 8003962:	69a5      	ldr	r5, [r4, #24]
 8003964:	b125      	cbz	r5, 8003970 <osThreadNew+0x24>
 8003966:	1e69      	subs	r1, r5, #1
 8003968:	2937      	cmp	r1, #55	@ 0x37
 800396a:	d902      	bls.n	8003972 <osThreadNew+0x26>
 800396c:	2000      	movs	r0, #0
 800396e:	e017      	b.n	80039a0 <osThreadNew+0x54>
 8003970:	2518      	movs	r5, #24
 8003972:	6862      	ldr	r2, [r4, #4]
 8003974:	07d2      	lsls	r2, r2, #31
 8003976:	d4f9      	bmi.n	800396c <osThreadNew+0x20>
 8003978:	6966      	ldr	r6, [r4, #20]
 800397a:	b19e      	cbz	r6, 80039a4 <osThreadNew+0x58>
 800397c:	08b2      	lsrs	r2, r6, #2
 800397e:	6821      	ldr	r1, [r4, #0]
 8003980:	e9d4 7c02 	ldrd	r7, ip, [r4, #8]
 8003984:	b187      	cbz	r7, 80039a8 <osThreadNew+0x5c>
 8003986:	f1bc 0fa7 	cmp.w	ip, #167	@ 0xa7
 800398a:	d908      	bls.n	800399e <osThreadNew+0x52>
 800398c:	6924      	ldr	r4, [r4, #16]
 800398e:	b134      	cbz	r4, 800399e <osThreadNew+0x52>
 8003990:	b12e      	cbz	r6, 800399e <osThreadNew+0x52>
 8003992:	e9cd 4701 	strd	r4, r7, [sp, #4]
 8003996:	9500      	str	r5, [sp, #0]
 8003998:	f000 fcec 	bl	8004374 <xTaskCreateStatic>
 800399c:	9005      	str	r0, [sp, #20]
 800399e:	9805      	ldr	r0, [sp, #20]
 80039a0:	b007      	add	sp, #28
 80039a2:	bdf0      	pop	{r4, r5, r6, r7, pc}
 80039a4:	2280      	movs	r2, #128	@ 0x80
 80039a6:	e7ea      	b.n	800397e <osThreadNew+0x32>
 80039a8:	f1bc 0f00 	cmp.w	ip, #0
 80039ac:	d1f7      	bne.n	800399e <osThreadNew+0x52>
 80039ae:	6924      	ldr	r4, [r4, #16]
 80039b0:	2c00      	cmp	r4, #0
 80039b2:	d1f4      	bne.n	800399e <osThreadNew+0x52>
 80039b4:	460c      	mov	r4, r1
 80039b6:	e001      	b.n	80039bc <osThreadNew+0x70>
 80039b8:	2518      	movs	r5, #24
 80039ba:	2280      	movs	r2, #128	@ 0x80
 80039bc:	a905      	add	r1, sp, #20
 80039be:	e9cd 5100 	strd	r5, r1, [sp]
 80039c2:	b292      	uxth	r2, r2
 80039c4:	4621      	mov	r1, r4
 80039c6:	f000 fd0d 	bl	80043e4 <xTaskCreate>
 80039ca:	2801      	cmp	r0, #1
 80039cc:	bf1c      	itt	ne
 80039ce:	2300      	movne	r3, #0
 80039d0:	9305      	strne	r3, [sp, #20]
 80039d2:	e7e4      	b.n	800399e <osThreadNew+0x52>

080039d4 <osDelay>:
 80039d4:	b508      	push	{r3, lr}
 80039d6:	f3ef 8205 	mrs	r2, IPSR
 80039da:	b922      	cbnz	r2, 80039e6 <osDelay+0x12>
 80039dc:	b108      	cbz	r0, 80039e2 <osDelay+0xe>
 80039de:	f000 fe99 	bl	8004714 <vTaskDelay>
 80039e2:	2000      	movs	r0, #0
 80039e4:	bd08      	pop	{r3, pc}
 80039e6:	f06f 0005 	mvn.w	r0, #5
 80039ea:	e7fb      	b.n	80039e4 <osDelay+0x10>

080039ec <vApplicationGetIdleTaskMemory>:
 80039ec:	4b03      	ldr	r3, [pc, #12]	@ (80039fc <vApplicationGetIdleTaskMemory+0x10>)
 80039ee:	6003      	str	r3, [r0, #0]
 80039f0:	4b03      	ldr	r3, [pc, #12]	@ (8003a00 <vApplicationGetIdleTaskMemory+0x14>)
 80039f2:	600b      	str	r3, [r1, #0]
 80039f4:	2380      	movs	r3, #128	@ 0x80
 80039f6:	6013      	str	r3, [r2, #0]
 80039f8:	4770      	bx	lr
 80039fa:	bf00      	nop
 80039fc:	20000c7c 	.word	0x20000c7c
 8003a00:	20000a7c 	.word	0x20000a7c

08003a04 <vApplicationGetTimerTaskMemory>:
 8003a04:	4b03      	ldr	r3, [pc, #12]	@ (8003a14 <vApplicationGetTimerTaskMemory+0x10>)
 8003a06:	6003      	str	r3, [r0, #0]
 8003a08:	4b03      	ldr	r3, [pc, #12]	@ (8003a18 <vApplicationGetTimerTaskMemory+0x14>)
 8003a0a:	600b      	str	r3, [r1, #0]
 8003a0c:	f44f 7380 	mov.w	r3, #256	@ 0x100
 8003a10:	6013      	str	r3, [r2, #0]
 8003a12:	4770      	bx	lr
 8003a14:	200009d4 	.word	0x200009d4
 8003a18:	200005d4 	.word	0x200005d4

08003a1c <vListInitialise>:
 8003a1c:	f04f 32ff 	mov.w	r2, #4294967295
 8003a20:	f100 0308 	add.w	r3, r0, #8
 8003a24:	e9c0 2302 	strd	r2, r3, [r0, #8]
 8003a28:	6043      	str	r3, [r0, #4]
 8003a2a:	6103      	str	r3, [r0, #16]
 8003a2c:	2300      	movs	r3, #0
 8003a2e:	6003      	str	r3, [r0, #0]
 8003a30:	4770      	bx	lr

08003a32 <vListInitialiseItem>:
 8003a32:	2300      	movs	r3, #0
 8003a34:	6103      	str	r3, [r0, #16]
 8003a36:	4770      	bx	lr

08003a38 <vListInsertEnd>:
 8003a38:	6843      	ldr	r3, [r0, #4]
 8003a3a:	689a      	ldr	r2, [r3, #8]
 8003a3c:	604b      	str	r3, [r1, #4]
 8003a3e:	608a      	str	r2, [r1, #8]
 8003a40:	6051      	str	r1, [r2, #4]
 8003a42:	6099      	str	r1, [r3, #8]
 8003a44:	6803      	ldr	r3, [r0, #0]
 8003a46:	6108      	str	r0, [r1, #16]
 8003a48:	3301      	adds	r3, #1
 8003a4a:	6003      	str	r3, [r0, #0]
 8003a4c:	4770      	bx	lr

08003a4e <vListInsert>:
 8003a4e:	b530      	push	{r4, r5, lr}
 8003a50:	680c      	ldr	r4, [r1, #0]
 8003a52:	1c63      	adds	r3, r4, #1
 8003a54:	d10a      	bne.n	8003a6c <vListInsert+0x1e>
 8003a56:	6903      	ldr	r3, [r0, #16]
 8003a58:	685a      	ldr	r2, [r3, #4]
 8003a5a:	604a      	str	r2, [r1, #4]
 8003a5c:	6091      	str	r1, [r2, #8]
 8003a5e:	608b      	str	r3, [r1, #8]
 8003a60:	6059      	str	r1, [r3, #4]
 8003a62:	6803      	ldr	r3, [r0, #0]
 8003a64:	6108      	str	r0, [r1, #16]
 8003a66:	3301      	adds	r3, #1
 8003a68:	6003      	str	r3, [r0, #0]
 8003a6a:	bd30      	pop	{r4, r5, pc}
 8003a6c:	f100 0208 	add.w	r2, r0, #8
 8003a70:	4613      	mov	r3, r2
 8003a72:	6852      	ldr	r2, [r2, #4]
 8003a74:	6815      	ldr	r5, [r2, #0]
 8003a76:	42a5      	cmp	r5, r4
 8003a78:	d9fa      	bls.n	8003a70 <vListInsert+0x22>
 8003a7a:	e7ed      	b.n	8003a58 <vListInsert+0xa>

08003a7c <uxListRemove>:
 8003a7c:	6903      	ldr	r3, [r0, #16]
 8003a7e:	e9d0 1201 	ldrd	r1, r2, [r0, #4]
 8003a82:	608a      	str	r2, [r1, #8]
 8003a84:	6051      	str	r1, [r2, #4]
 8003a86:	6859      	ldr	r1, [r3, #4]
 8003a88:	4281      	cmp	r1, r0
 8003a8a:	bf08      	it	eq
 8003a8c:	605a      	streq	r2, [r3, #4]
 8003a8e:	2200      	movs	r2, #0
 8003a90:	6102      	str	r2, [r0, #16]
 8003a92:	681a      	ldr	r2, [r3, #0]
 8003a94:	3a01      	subs	r2, #1
 8003a96:	601a      	str	r2, [r3, #0]
 8003a98:	6818      	ldr	r0, [r3, #0]
 8003a9a:	4770      	bx	lr

08003a9c <prvIsQueueEmpty>:
 8003a9c:	b510      	push	{r4, lr}
 8003a9e:	4604      	mov	r4, r0
 8003aa0:	f001 f9f8 	bl	8004e94 <vPortEnterCritical>
 8003aa4:	6ba4      	ldr	r4, [r4, #56]	@ 0x38
 8003aa6:	f001 fa15 	bl	8004ed4 <vPortExitCritical>
 8003aaa:	fab4 f084 	clz	r0, r4
 8003aae:	0940      	lsrs	r0, r0, #5
 8003ab0:	bd10      	pop	{r4, pc}

08003ab2 <prvCopyDataToQueue>:
 8003ab2:	b570      	push	{r4, r5, r6, lr}
 8003ab4:	4616      	mov	r6, r2
 8003ab6:	6c02      	ldr	r2, [r0, #64]	@ 0x40
 8003ab8:	4604      	mov	r4, r0
 8003aba:	6b85      	ldr	r5, [r0, #56]	@ 0x38
 8003abc:	b942      	cbnz	r2, 8003ad0 <prvCopyDataToQueue+0x1e>
 8003abe:	6806      	ldr	r6, [r0, #0]
 8003ac0:	b99e      	cbnz	r6, 8003aea <prvCopyDataToQueue+0x38>
 8003ac2:	6880      	ldr	r0, [r0, #8]
 8003ac4:	f000 ff64 	bl	8004990 <xTaskPriorityDisinherit>
 8003ac8:	60a6      	str	r6, [r4, #8]
 8003aca:	3501      	adds	r5, #1
 8003acc:	63a5      	str	r5, [r4, #56]	@ 0x38
 8003ace:	bd70      	pop	{r4, r5, r6, pc}
 8003ad0:	b96e      	cbnz	r6, 8003aee <prvCopyDataToQueue+0x3c>
 8003ad2:	6840      	ldr	r0, [r0, #4]
 8003ad4:	f002 f8bd 	bl	8005c52 <memcpy>
 8003ad8:	6863      	ldr	r3, [r4, #4]
 8003ada:	6c22      	ldr	r2, [r4, #64]	@ 0x40
 8003adc:	4413      	add	r3, r2
 8003ade:	68a2      	ldr	r2, [r4, #8]
 8003ae0:	6063      	str	r3, [r4, #4]
 8003ae2:	4293      	cmp	r3, r2
 8003ae4:	bf24      	itt	cs
 8003ae6:	6823      	ldrcs	r3, [r4, #0]
 8003ae8:	6063      	strcs	r3, [r4, #4]
 8003aea:	2000      	movs	r0, #0
 8003aec:	e7ed      	b.n	8003aca <prvCopyDataToQueue+0x18>
 8003aee:	68c0      	ldr	r0, [r0, #12]
 8003af0:	f002 f8af 	bl	8005c52 <memcpy>
 8003af4:	6c22      	ldr	r2, [r4, #64]	@ 0x40
 8003af6:	68e3      	ldr	r3, [r4, #12]
 8003af8:	4251      	negs	r1, r2
 8003afa:	1a9b      	subs	r3, r3, r2
 8003afc:	6822      	ldr	r2, [r4, #0]
 8003afe:	60e3      	str	r3, [r4, #12]
 8003b00:	4293      	cmp	r3, r2
 8003b02:	bf3e      	ittt	cc
 8003b04:	68a3      	ldrcc	r3, [r4, #8]
 8003b06:	185b      	addcc	r3, r3, r1
 8003b08:	60e3      	strcc	r3, [r4, #12]
 8003b0a:	2e02      	cmp	r6, #2
 8003b0c:	d1ed      	bne.n	8003aea <prvCopyDataToQueue+0x38>
 8003b0e:	b10d      	cbz	r5, 8003b14 <prvCopyDataToQueue+0x62>
 8003b10:	3d01      	subs	r5, #1
 8003b12:	e7ea      	b.n	8003aea <prvCopyDataToQueue+0x38>
 8003b14:	4628      	mov	r0, r5
 8003b16:	e7d8      	b.n	8003aca <prvCopyDataToQueue+0x18>

08003b18 <prvCopyDataFromQueue>:
 8003b18:	4603      	mov	r3, r0
 8003b1a:	6c1a      	ldr	r2, [r3, #64]	@ 0x40
 8003b1c:	4608      	mov	r0, r1
 8003b1e:	b410      	push	{r4}
 8003b20:	b162      	cbz	r2, 8003b3c <prvCopyDataFromQueue+0x24>
 8003b22:	68dc      	ldr	r4, [r3, #12]
 8003b24:	6899      	ldr	r1, [r3, #8]
 8003b26:	4414      	add	r4, r2
 8003b28:	428c      	cmp	r4, r1
 8003b2a:	bf28      	it	cs
 8003b2c:	6819      	ldrcs	r1, [r3, #0]
 8003b2e:	60dc      	str	r4, [r3, #12]
 8003b30:	bf28      	it	cs
 8003b32:	60d9      	strcs	r1, [r3, #12]
 8003b34:	68d9      	ldr	r1, [r3, #12]
 8003b36:	bc10      	pop	{r4}
 8003b38:	f002 b88b 	b.w	8005c52 <memcpy>
 8003b3c:	bc10      	pop	{r4}
 8003b3e:	4770      	bx	lr

08003b40 <prvUnlockQueue>:
 8003b40:	b570      	push	{r4, r5, r6, lr}
 8003b42:	4604      	mov	r4, r0
 8003b44:	f001 f9a6 	bl	8004e94 <vPortEnterCritical>
 8003b48:	f894 5045 	ldrb.w	r5, [r4, #69]	@ 0x45
 8003b4c:	f104 0624 	add.w	r6, r4, #36	@ 0x24
 8003b50:	b26d      	sxtb	r5, r5
 8003b52:	2d00      	cmp	r5, #0
 8003b54:	dd01      	ble.n	8003b5a <prvUnlockQueue+0x1a>
 8003b56:	6a63      	ldr	r3, [r4, #36]	@ 0x24
 8003b58:	b9b3      	cbnz	r3, 8003b88 <prvUnlockQueue+0x48>
 8003b5a:	23ff      	movs	r3, #255	@ 0xff
 8003b5c:	f884 3045 	strb.w	r3, [r4, #69]	@ 0x45
 8003b60:	f001 f9b8 	bl	8004ed4 <vPortExitCritical>
 8003b64:	f001 f996 	bl	8004e94 <vPortEnterCritical>
 8003b68:	f894 5044 	ldrb.w	r5, [r4, #68]	@ 0x44
 8003b6c:	f104 0610 	add.w	r6, r4, #16
 8003b70:	b26d      	sxtb	r5, r5
 8003b72:	2d00      	cmp	r5, #0
 8003b74:	dd01      	ble.n	8003b7a <prvUnlockQueue+0x3a>
 8003b76:	6923      	ldr	r3, [r4, #16]
 8003b78:	b97b      	cbnz	r3, 8003b9a <prvUnlockQueue+0x5a>
 8003b7a:	23ff      	movs	r3, #255	@ 0xff
 8003b7c:	f884 3044 	strb.w	r3, [r4, #68]	@ 0x44
 8003b80:	e8bd 4070 	ldmia.w	sp!, {r4, r5, r6, lr}
 8003b84:	f001 b9a6 	b.w	8004ed4 <vPortExitCritical>
 8003b88:	4630      	mov	r0, r6
 8003b8a:	f000 fe63 	bl	8004854 <xTaskRemoveFromEventList>
 8003b8e:	b108      	cbz	r0, 8003b94 <prvUnlockQueue+0x54>
 8003b90:	f000 fee8 	bl	8004964 <vTaskMissedYield>
 8003b94:	3d01      	subs	r5, #1
 8003b96:	b26d      	sxtb	r5, r5
 8003b98:	e7db      	b.n	8003b52 <prvUnlockQueue+0x12>
 8003b9a:	4630      	mov	r0, r6
 8003b9c:	f000 fe5a 	bl	8004854 <xTaskRemoveFromEventList>
 8003ba0:	b108      	cbz	r0, 8003ba6 <prvUnlockQueue+0x66>
 8003ba2:	f000 fedf 	bl	8004964 <vTaskMissedYield>
 8003ba6:	3d01      	subs	r5, #1
 8003ba8:	b26d      	sxtb	r5, r5
 8003baa:	e7e2      	b.n	8003b72 <prvUnlockQueue+0x32>

08003bac <xQueueGenericReset>:
 8003bac:	b538      	push	{r3, r4, r5, lr}
 8003bae:	460d      	mov	r5, r1
 8003bb0:	4604      	mov	r4, r0
 8003bb2:	b940      	cbnz	r0, 8003bc6 <xQueueGenericReset+0x1a>
 8003bb4:	f04f 0350 	mov.w	r3, #80	@ 0x50
 8003bb8:	f383 8811 	msr	BASEPRI, r3
 8003bbc:	f3bf 8f6f 	isb	sy
 8003bc0:	f3bf 8f4f 	dsb	sy
 8003bc4:	e7fe      	b.n	8003bc4 <xQueueGenericReset+0x18>
 8003bc6:	f001 f965 	bl	8004e94 <vPortEnterCritical>
 8003bca:	e9d4 310f 	ldrd	r3, r1, [r4, #60]	@ 0x3c
 8003bce:	434b      	muls	r3, r1
 8003bd0:	6822      	ldr	r2, [r4, #0]
 8003bd2:	18d0      	adds	r0, r2, r3
 8003bd4:	1a5b      	subs	r3, r3, r1
 8003bd6:	60a0      	str	r0, [r4, #8]
 8003bd8:	6062      	str	r2, [r4, #4]
 8003bda:	2000      	movs	r0, #0
 8003bdc:	441a      	add	r2, r3
 8003bde:	23ff      	movs	r3, #255	@ 0xff
 8003be0:	63a0      	str	r0, [r4, #56]	@ 0x38
 8003be2:	60e2      	str	r2, [r4, #12]
 8003be4:	f884 3044 	strb.w	r3, [r4, #68]	@ 0x44
 8003be8:	f884 3045 	strb.w	r3, [r4, #69]	@ 0x45
 8003bec:	b9a5      	cbnz	r5, 8003c18 <xQueueGenericReset+0x6c>
 8003bee:	6923      	ldr	r3, [r4, #16]
 8003bf0:	b173      	cbz	r3, 8003c10 <xQueueGenericReset+0x64>
 8003bf2:	f104 0010 	add.w	r0, r4, #16
 8003bf6:	f000 fe2d 	bl	8004854 <xTaskRemoveFromEventList>
 8003bfa:	b148      	cbz	r0, 8003c10 <xQueueGenericReset+0x64>
 8003bfc:	f04f 23e0 	mov.w	r3, #3758153728	@ 0xe000e000
 8003c00:	f04f 5280 	mov.w	r2, #268435456	@ 0x10000000
 8003c04:	f8c3 2d04 	str.w	r2, [r3, #3332]	@ 0xd04
 8003c08:	f3bf 8f4f 	dsb	sy
 8003c0c:	f3bf 8f6f 	isb	sy
 8003c10:	f001 f960 	bl	8004ed4 <vPortExitCritical>
 8003c14:	2001      	movs	r0, #1
 8003c16:	bd38      	pop	{r3, r4, r5, pc}
 8003c18:	f104 0010 	add.w	r0, r4, #16
 8003c1c:	f7ff fefe 	bl	8003a1c <vListInitialise>
 8003c20:	f104 0024 	add.w	r0, r4, #36	@ 0x24
 8003c24:	f7ff fefa 	bl	8003a1c <vListInitialise>
 8003c28:	e7f2      	b.n	8003c10 <xQueueGenericReset+0x64>

08003c2a <xQueueGenericCreateStatic>:
 8003c2a:	b537      	push	{r0, r1, r2, r4, r5, lr}
 8003c2c:	460d      	mov	r5, r1
 8003c2e:	461c      	mov	r4, r3
 8003c30:	b940      	cbnz	r0, 8003c44 <xQueueGenericCreateStatic+0x1a>
 8003c32:	f04f 0350 	mov.w	r3, #80	@ 0x50
 8003c36:	f383 8811 	msr	BASEPRI, r3
 8003c3a:	f3bf 8f6f 	isb	sy
 8003c3e:	f3bf 8f4f 	dsb	sy
 8003c42:	e7fe      	b.n	8003c42 <xQueueGenericCreateStatic+0x18>
 8003c44:	b943      	cbnz	r3, 8003c58 <xQueueGenericCreateStatic+0x2e>
 8003c46:	f04f 0350 	mov.w	r3, #80	@ 0x50
 8003c4a:	f383 8811 	msr	BASEPRI, r3
 8003c4e:	f3bf 8f6f 	isb	sy
 8003c52:	f3bf 8f4f 	dsb	sy
 8003c56:	e7fe      	b.n	8003c56 <xQueueGenericCreateStatic+0x2c>
 8003c58:	b14a      	cbz	r2, 8003c6e <xQueueGenericCreateStatic+0x44>
 8003c5a:	b991      	cbnz	r1, 8003c82 <xQueueGenericCreateStatic+0x58>
 8003c5c:	f04f 0350 	mov.w	r3, #80	@ 0x50
 8003c60:	f383 8811 	msr	BASEPRI, r3
 8003c64:	f3bf 8f6f 	isb	sy
 8003c68:	f3bf 8f4f 	dsb	sy
 8003c6c:	e7fe      	b.n	8003c6c <xQueueGenericCreateStatic+0x42>
 8003c6e:	b141      	cbz	r1, 8003c82 <xQueueGenericCreateStatic+0x58>
 8003c70:	f04f 0350 	mov.w	r3, #80	@ 0x50
 8003c74:	f383 8811 	msr	BASEPRI, r3
 8003c78:	f3bf 8f6f 	isb	sy
 8003c7c:	f3bf 8f4f 	dsb	sy
 8003c80:	e7fe      	b.n	8003c80 <xQueueGenericCreateStatic+0x56>
 8003c82:	2350      	movs	r3, #80	@ 0x50
 8003c84:	9301      	str	r3, [sp, #4]
 8003c86:	9b01      	ldr	r3, [sp, #4]
 8003c88:	2b50      	cmp	r3, #80	@ 0x50
 8003c8a:	d008      	beq.n	8003c9e <xQueueGenericCreateStatic+0x74>
 8003c8c:	f04f 0350 	mov.w	r3, #80	@ 0x50
 8003c90:	f383 8811 	msr	BASEPRI, r3
 8003c94:	f3bf 8f6f 	isb	sy
 8003c98:	f3bf 8f4f 	dsb	sy
 8003c9c:	e7fe      	b.n	8003c9c <xQueueGenericCreateStatic+0x72>
 8003c9e:	2101      	movs	r1, #1
 8003ca0:	2d00      	cmp	r5, #0
 8003ca2:	bf08      	it	eq
 8003ca4:	4622      	moveq	r2, r4
 8003ca6:	e9c4 050f 	strd	r0, r5, [r4, #60]	@ 0x3c
 8003caa:	f884 1046 	strb.w	r1, [r4, #70]	@ 0x46
 8003cae:	4620      	mov	r0, r4
 8003cb0:	6022      	str	r2, [r4, #0]
 8003cb2:	9b01      	ldr	r3, [sp, #4]
 8003cb4:	f7ff ff7a 	bl	8003bac <xQueueGenericReset>
 8003cb8:	4620      	mov	r0, r4
 8003cba:	f89d 3018 	ldrb.w	r3, [sp, #24]
 8003cbe:	f884 304c 	strb.w	r3, [r4, #76]	@ 0x4c
 8003cc2:	b003      	add	sp, #12
 8003cc4:	bd30      	pop	{r4, r5, pc}

08003cc6 <xQueueGenericSend>:
 8003cc6:	e92d 41ff 	stmdb	sp!, {r0, r1, r2, r3, r4, r5, r6, r7, r8, lr}
 8003cca:	460f      	mov	r7, r1
 8003ccc:	461e      	mov	r6, r3
 8003cce:	4604      	mov	r4, r0
 8003cd0:	9201      	str	r2, [sp, #4]
 8003cd2:	b940      	cbnz	r0, 8003ce6 <xQueueGenericSend+0x20>
 8003cd4:	f04f 0350 	mov.w	r3, #80	@ 0x50
 8003cd8:	f383 8811 	msr	BASEPRI, r3
 8003cdc:	f3bf 8f6f 	isb	sy
 8003ce0:	f3bf 8f4f 	dsb	sy
 8003ce4:	e7fe      	b.n	8003ce4 <xQueueGenericSend+0x1e>
 8003ce6:	b951      	cbnz	r1, 8003cfe <xQueueGenericSend+0x38>
 8003ce8:	6c03      	ldr	r3, [r0, #64]	@ 0x40
 8003cea:	b143      	cbz	r3, 8003cfe <xQueueGenericSend+0x38>
 8003cec:	f04f 0350 	mov.w	r3, #80	@ 0x50
 8003cf0:	f383 8811 	msr	BASEPRI, r3
 8003cf4:	f3bf 8f6f 	isb	sy
 8003cf8:	f3bf 8f4f 	dsb	sy
 8003cfc:	e7fe      	b.n	8003cfc <xQueueGenericSend+0x36>
 8003cfe:	2e02      	cmp	r6, #2
 8003d00:	d10b      	bne.n	8003d1a <xQueueGenericSend+0x54>
 8003d02:	6be3      	ldr	r3, [r4, #60]	@ 0x3c
 8003d04:	2b01      	cmp	r3, #1
 8003d06:	d008      	beq.n	8003d1a <xQueueGenericSend+0x54>
 8003d08:	f04f 0350 	mov.w	r3, #80	@ 0x50
 8003d0c:	f383 8811 	msr	BASEPRI, r3
 8003d10:	f3bf 8f6f 	isb	sy
 8003d14:	f3bf 8f4f 	dsb	sy
 8003d18:	e7fe      	b.n	8003d18 <xQueueGenericSend+0x52>
 8003d1a:	f000 fe29 	bl	8004970 <xTaskGetSchedulerState>
 8003d1e:	4605      	mov	r5, r0
 8003d20:	b320      	cbz	r0, 8003d6c <xQueueGenericSend+0xa6>
 8003d22:	2500      	movs	r5, #0
 8003d24:	f04f 0800 	mov.w	r8, #0
 8003d28:	f001 f8b4 	bl	8004e94 <vPortEnterCritical>
 8003d2c:	6ba2      	ldr	r2, [r4, #56]	@ 0x38
 8003d2e:	6be3      	ldr	r3, [r4, #60]	@ 0x3c
 8003d30:	429a      	cmp	r2, r3
 8003d32:	d227      	bcs.n	8003d84 <xQueueGenericSend+0xbe>
 8003d34:	4632      	mov	r2, r6
 8003d36:	4639      	mov	r1, r7
 8003d38:	4620      	mov	r0, r4
 8003d3a:	f7ff feba 	bl	8003ab2 <prvCopyDataToQueue>
 8003d3e:	6a63      	ldr	r3, [r4, #36]	@ 0x24
 8003d40:	b11b      	cbz	r3, 8003d4a <xQueueGenericSend+0x84>
 8003d42:	f104 0024 	add.w	r0, r4, #36	@ 0x24
 8003d46:	f000 fd85 	bl	8004854 <xTaskRemoveFromEventList>
 8003d4a:	b148      	cbz	r0, 8003d60 <xQueueGenericSend+0x9a>
 8003d4c:	f04f 23e0 	mov.w	r3, #3758153728	@ 0xe000e000
 8003d50:	f04f 5280 	mov.w	r2, #268435456	@ 0x10000000
 8003d54:	f8c3 2d04 	str.w	r2, [r3, #3332]	@ 0xd04
 8003d58:	f3bf 8f4f 	dsb	sy
 8003d5c:	f3bf 8f6f 	isb	sy
 8003d60:	f001 f8b8 	bl	8004ed4 <vPortExitCritical>
 8003d64:	2001      	movs	r0, #1
 8003d66:	b004      	add	sp, #16
 8003d68:	e8bd 81f0 	ldmia.w	sp!, {r4, r5, r6, r7, r8, pc}
 8003d6c:	9b01      	ldr	r3, [sp, #4]
 8003d6e:	2b00      	cmp	r3, #0
 8003d70:	d0d8      	beq.n	8003d24 <xQueueGenericSend+0x5e>
 8003d72:	f04f 0350 	mov.w	r3, #80	@ 0x50
 8003d76:	f383 8811 	msr	BASEPRI, r3
 8003d7a:	f3bf 8f6f 	isb	sy
 8003d7e:	f3bf 8f4f 	dsb	sy
 8003d82:	e7fe      	b.n	8003d82 <xQueueGenericSend+0xbc>
 8003d84:	2e02      	cmp	r6, #2
 8003d86:	d0d5      	beq.n	8003d34 <xQueueGenericSend+0x6e>
 8003d88:	9b01      	ldr	r3, [sp, #4]
 8003d8a:	b91b      	cbnz	r3, 8003d94 <xQueueGenericSend+0xce>
 8003d8c:	f001 f8a2 	bl	8004ed4 <vPortExitCritical>
 8003d90:	2000      	movs	r0, #0
 8003d92:	e7e8      	b.n	8003d66 <xQueueGenericSend+0xa0>
 8003d94:	b915      	cbnz	r5, 8003d9c <xQueueGenericSend+0xd6>
 8003d96:	a802      	add	r0, sp, #8
 8003d98:	f000 fd9c 	bl	80048d4 <vTaskInternalSetTimeOutState>
 8003d9c:	f001 f89a 	bl	8004ed4 <vPortExitCritical>
 8003da0:	f000 fb9e 	bl	80044e0 <vTaskSuspendAll>
 8003da4:	f001 f876 	bl	8004e94 <vPortEnterCritical>
 8003da8:	f894 3044 	ldrb.w	r3, [r4, #68]	@ 0x44
 8003dac:	2bff      	cmp	r3, #255	@ 0xff
 8003dae:	bf08      	it	eq
 8003db0:	f884 8044 	strbeq.w	r8, [r4, #68]	@ 0x44
 8003db4:	f894 3045 	ldrb.w	r3, [r4, #69]	@ 0x45
 8003db8:	2bff      	cmp	r3, #255	@ 0xff
 8003dba:	bf08      	it	eq
 8003dbc:	f884 8045 	strbeq.w	r8, [r4, #69]	@ 0x45
 8003dc0:	f001 f888 	bl	8004ed4 <vPortExitCritical>
 8003dc4:	a901      	add	r1, sp, #4
 8003dc6:	a802      	add	r0, sp, #8
 8003dc8:	f000 fd90 	bl	80048ec <xTaskCheckForTimeOut>
 8003dcc:	bb38      	cbnz	r0, 8003e1e <xQueueGenericSend+0x158>
 8003dce:	f001 f861 	bl	8004e94 <vPortEnterCritical>
 8003dd2:	6ba2      	ldr	r2, [r4, #56]	@ 0x38
 8003dd4:	6be3      	ldr	r3, [r4, #60]	@ 0x3c
 8003dd6:	429a      	cmp	r2, r3
 8003dd8:	d10e      	bne.n	8003df8 <xQueueGenericSend+0x132>
 8003dda:	f001 f87b 	bl	8004ed4 <vPortExitCritical>
 8003dde:	9901      	ldr	r1, [sp, #4]
 8003de0:	f104 0010 	add.w	r0, r4, #16
 8003de4:	f000 fcfc 	bl	80047e0 <vTaskPlaceOnEventList>
 8003de8:	4620      	mov	r0, r4
 8003dea:	f7ff fea9 	bl	8003b40 <prvUnlockQueue>
 8003dee:	f000 fc1d 	bl	800462c <xTaskResumeAll>
 8003df2:	b148      	cbz	r0, 8003e08 <xQueueGenericSend+0x142>
 8003df4:	2501      	movs	r5, #1
 8003df6:	e797      	b.n	8003d28 <xQueueGenericSend+0x62>
 8003df8:	f001 f86c 	bl	8004ed4 <vPortExitCritical>
 8003dfc:	4620      	mov	r0, r4
 8003dfe:	f7ff fe9f 	bl	8003b40 <prvUnlockQueue>
 8003e02:	f000 fc13 	bl	800462c <xTaskResumeAll>
 8003e06:	e7f5      	b.n	8003df4 <xQueueGenericSend+0x12e>
 8003e08:	f04f 23e0 	mov.w	r3, #3758153728	@ 0xe000e000
 8003e0c:	f04f 5280 	mov.w	r2, #268435456	@ 0x10000000
 8003e10:	f8c3 2d04 	str.w	r2, [r3, #3332]	@ 0xd04
 8003e14:	f3bf 8f4f 	dsb	sy
 8003e18:	f3bf 8f6f 	isb	sy
 8003e1c:	e7ea      	b.n	8003df4 <xQueueGenericSend+0x12e>
 8003e1e:	4620      	mov	r0, r4
 8003e20:	f7ff fe8e 	bl	8003b40 <prvUnlockQueue>
 8003e24:	f000 fc02 	bl	800462c <xTaskResumeAll>
 8003e28:	e7b2      	b.n	8003d90 <xQueueGenericSend+0xca>

08003e2a <xQueueGenericSendFromISR>:
 8003e2a:	e92d 43f8 	stmdb	sp!, {r3, r4, r5, r6, r7, r8, r9, lr}
 8003e2e:	4689      	mov	r9, r1
 8003e30:	4617      	mov	r7, r2
 8003e32:	461e      	mov	r6, r3
 8003e34:	4604      	mov	r4, r0
 8003e36:	b940      	cbnz	r0, 8003e4a <xQueueGenericSendFromISR+0x20>
 8003e38:	f04f 0350 	mov.w	r3, #80	@ 0x50
 8003e3c:	f383 8811 	msr	BASEPRI, r3
 8003e40:	f3bf 8f6f 	isb	sy
 8003e44:	f3bf 8f4f 	dsb	sy
 8003e48:	e7fe      	b.n	8003e48 <xQueueGenericSendFromISR+0x1e>
 8003e4a:	b951      	cbnz	r1, 8003e62 <xQueueGenericSendFromISR+0x38>
 8003e4c:	6c03      	ldr	r3, [r0, #64]	@ 0x40
 8003e4e:	b143      	cbz	r3, 8003e62 <xQueueGenericSendFromISR+0x38>
 8003e50:	f04f 0350 	mov.w	r3, #80	@ 0x50
 8003e54:	f383 8811 	msr	BASEPRI, r3
 8003e58:	f3bf 8f6f 	isb	sy
 8003e5c:	f3bf 8f4f 	dsb	sy
 8003e60:	e7fe      	b.n	8003e60 <xQueueGenericSendFromISR+0x36>
 8003e62:	2e02      	cmp	r6, #2
 8003e64:	d10b      	bne.n	8003e7e <xQueueGenericSendFromISR+0x54>
 8003e66:	6be3      	ldr	r3, [r4, #60]	@ 0x3c
 8003e68:	2b01      	cmp	r3, #1
 8003e6a:	d008      	beq.n	8003e7e <xQueueGenericSendFromISR+0x54>
 8003e6c:	f04f 0350 	mov.w	r3, #80	@ 0x50
 8003e70:	f383 8811 	msr	BASEPRI, r3
 8003e74:	f3bf 8f6f 	isb	sy
 8003e78:	f3bf 8f4f 	dsb	sy
 8003e7c:	e7fe      	b.n	8003e7c <xQueueGenericSendFromISR+0x52>
 8003e7e:	f001 f8e1 	bl	8005044 <vPortValidateInterruptPriority>
 8003e82:	f3ef 8811 	mrs	r8, BASEPRI
 8003e86:	f04f 0350 	mov.w	r3, #80	@ 0x50
 8003e8a:	f383 8811 	msr	BASEPRI, r3
 8003e8e:	f3bf 8f6f 	isb	sy
 8003e92:	f3bf 8f4f 	dsb	sy
 8003e96:	6ba2      	ldr	r2, [r4, #56]	@ 0x38
 8003e98:	6be3      	ldr	r3, [r4, #60]	@ 0x3c
 8003e9a:	429a      	cmp	r2, r3
 8003e9c:	d301      	bcc.n	8003ea2 <xQueueGenericSendFromISR+0x78>
 8003e9e:	2e02      	cmp	r6, #2
 8003ea0:	d11e      	bne.n	8003ee0 <xQueueGenericSendFromISR+0xb6>
 8003ea2:	f894 5045 	ldrb.w	r5, [r4, #69]	@ 0x45
 8003ea6:	4632      	mov	r2, r6
 8003ea8:	4649      	mov	r1, r9
 8003eaa:	4620      	mov	r0, r4
 8003eac:	b26d      	sxtb	r5, r5
 8003eae:	6ba3      	ldr	r3, [r4, #56]	@ 0x38
 8003eb0:	f7ff fdff 	bl	8003ab2 <prvCopyDataToQueue>
 8003eb4:	1c6b      	adds	r3, r5, #1
 8003eb6:	d10e      	bne.n	8003ed6 <xQueueGenericSendFromISR+0xac>
 8003eb8:	6a63      	ldr	r3, [r4, #36]	@ 0x24
 8003eba:	b13b      	cbz	r3, 8003ecc <xQueueGenericSendFromISR+0xa2>
 8003ebc:	f104 0024 	add.w	r0, r4, #36	@ 0x24
 8003ec0:	f000 fcc8 	bl	8004854 <xTaskRemoveFromEventList>
 8003ec4:	b110      	cbz	r0, 8003ecc <xQueueGenericSendFromISR+0xa2>
 8003ec6:	b10f      	cbz	r7, 8003ecc <xQueueGenericSendFromISR+0xa2>
 8003ec8:	2301      	movs	r3, #1
 8003eca:	603b      	str	r3, [r7, #0]
 8003ecc:	2001      	movs	r0, #1
 8003ece:	f388 8811 	msr	BASEPRI, r8
 8003ed2:	e8bd 83f8 	ldmia.w	sp!, {r3, r4, r5, r6, r7, r8, r9, pc}
 8003ed6:	3501      	adds	r5, #1
 8003ed8:	b26d      	sxtb	r5, r5
 8003eda:	f884 5045 	strb.w	r5, [r4, #69]	@ 0x45
 8003ede:	e7f5      	b.n	8003ecc <xQueueGenericSendFromISR+0xa2>
 8003ee0:	2000      	movs	r0, #0
 8003ee2:	e7f4      	b.n	8003ece <xQueueGenericSendFromISR+0xa4>

08003ee4 <xQueueReceive>:
 8003ee4:	e92d 41ff 	stmdb	sp!, {r0, r1, r2, r3, r4, r5, r6, r7, r8, lr}
 8003ee8:	460e      	mov	r6, r1
 8003eea:	4604      	mov	r4, r0
 8003eec:	9201      	str	r2, [sp, #4]
 8003eee:	b940      	cbnz	r0, 8003f02 <xQueueReceive+0x1e>
 8003ef0:	f04f 0350 	mov.w	r3, #80	@ 0x50
 8003ef4:	f383 8811 	msr	BASEPRI, r3
 8003ef8:	f3bf 8f6f 	isb	sy
 8003efc:	f3bf 8f4f 	dsb	sy
 8003f00:	e7fe      	b.n	8003f00 <xQueueReceive+0x1c>
 8003f02:	b951      	cbnz	r1, 8003f1a <xQueueReceive+0x36>
 8003f04:	6c03      	ldr	r3, [r0, #64]	@ 0x40
 8003f06:	b143      	cbz	r3, 8003f1a <xQueueReceive+0x36>
 8003f08:	f04f 0350 	mov.w	r3, #80	@ 0x50
 8003f0c:	f383 8811 	msr	BASEPRI, r3
 8003f10:	f3bf 8f6f 	isb	sy
 8003f14:	f3bf 8f4f 	dsb	sy
 8003f18:	e7fe      	b.n	8003f18 <xQueueReceive+0x34>
 8003f1a:	f000 fd29 	bl	8004970 <xTaskGetSchedulerState>
 8003f1e:	4605      	mov	r5, r0
 8003f20:	b318      	cbz	r0, 8003f6a <xQueueReceive+0x86>
 8003f22:	2500      	movs	r5, #0
 8003f24:	f04f 0800 	mov.w	r8, #0
 8003f28:	f000 ffb4 	bl	8004e94 <vPortEnterCritical>
 8003f2c:	6ba7      	ldr	r7, [r4, #56]	@ 0x38
 8003f2e:	b347      	cbz	r7, 8003f82 <xQueueReceive+0x9e>
 8003f30:	4631      	mov	r1, r6
 8003f32:	4620      	mov	r0, r4
 8003f34:	3f01      	subs	r7, #1
 8003f36:	f7ff fdef 	bl	8003b18 <prvCopyDataFromQueue>
 8003f3a:	63a7      	str	r7, [r4, #56]	@ 0x38
 8003f3c:	6923      	ldr	r3, [r4, #16]
 8003f3e:	b173      	cbz	r3, 8003f5e <xQueueReceive+0x7a>
 8003f40:	f104 0010 	add.w	r0, r4, #16
 8003f44:	f000 fc86 	bl	8004854 <xTaskRemoveFromEventList>
 8003f48:	b148      	cbz	r0, 8003f5e <xQueueReceive+0x7a>
 8003f4a:	f04f 23e0 	mov.w	r3, #3758153728	@ 0xe000e000
 8003f4e:	f04f 5280 	mov.w	r2, #268435456	@ 0x10000000
 8003f52:	f8c3 2d04 	str.w	r2, [r3, #3332]	@ 0xd04
 8003f56:	f3bf 8f4f 	dsb	sy
 8003f5a:	f3bf 8f6f 	isb	sy
 8003f5e:	f000 ffb9 	bl	8004ed4 <vPortExitCritical>
 8003f62:	2001      	movs	r0, #1
 8003f64:	b004      	add	sp, #16
 8003f66:	e8bd 81f0 	ldmia.w	sp!, {r4, r5, r6, r7, r8, pc}
 8003f6a:	9b01      	ldr	r3, [sp, #4]
 8003f6c:	2b00      	cmp	r3, #0
 8003f6e:	d0d9      	beq.n	8003f24 <xQueueReceive+0x40>
 8003f70:	f04f 0350 	mov.w	r3, #80	@ 0x50
 8003f74:	f383 8811 	msr	BASEPRI, r3
 8003f78:	f3bf 8f6f 	isb	sy
 8003f7c:	f3bf 8f4f 	dsb	sy
 8003f80:	e7fe      	b.n	8003f80 <xQueueReceive+0x9c>
 8003f82:	9b01      	ldr	r3, [sp, #4]
 8003f84:	b91b      	cbnz	r3, 8003f8e <xQueueReceive+0xaa>
 8003f86:	f000 ffa5 	bl	8004ed4 <vPortExitCritical>
 8003f8a:	2000      	movs	r0, #0
 8003f8c:	e7ea      	b.n	8003f64 <xQueueReceive+0x80>
 8003f8e:	b915      	cbnz	r5, 8003f96 <xQueueReceive+0xb2>
 8003f90:	a802      	add	r0, sp, #8
 8003f92:	f000 fc9f 	bl	80048d4 <vTaskInternalSetTimeOutState>
 8003f96:	f000 ff9d 	bl	8004ed4 <vPortExitCritical>
 8003f9a:	f000 faa1 	bl	80044e0 <vTaskSuspendAll>
 8003f9e:	f000 ff79 	bl	8004e94 <vPortEnterCritical>
 8003fa2:	f894 3044 	ldrb.w	r3, [r4, #68]	@ 0x44
 8003fa6:	2bff      	cmp	r3, #255	@ 0xff
 8003fa8:	bf08      	it	eq
 8003faa:	f884 8044 	strbeq.w	r8, [r4, #68]	@ 0x44
 8003fae:	f894 3045 	ldrb.w	r3, [r4, #69]	@ 0x45
 8003fb2:	2bff      	cmp	r3, #255	@ 0xff
 8003fb4:	bf08      	it	eq
 8003fb6:	f884 8045 	strbeq.w	r8, [r4, #69]	@ 0x45
 8003fba:	f000 ff8b 	bl	8004ed4 <vPortExitCritical>
 8003fbe:	a901      	add	r1, sp, #4
 8003fc0:	a802      	add	r0, sp, #8
 8003fc2:	f000 fc93 	bl	80048ec <xTaskCheckForTimeOut>
 8003fc6:	bb00      	cbnz	r0, 800400a <xQueueReceive+0x126>
 8003fc8:	4620      	mov	r0, r4
 8003fca:	f7ff fd67 	bl	8003a9c <prvIsQueueEmpty>
 8003fce:	b1b0      	cbz	r0, 8003ffe <xQueueReceive+0x11a>
 8003fd0:	9901      	ldr	r1, [sp, #4]
 8003fd2:	f104 0024 	add.w	r0, r4, #36	@ 0x24
 8003fd6:	f000 fc03 	bl	80047e0 <vTaskPlaceOnEventList>
 8003fda:	4620      	mov	r0, r4
 8003fdc:	f7ff fdb0 	bl	8003b40 <prvUnlockQueue>
 8003fe0:	f000 fb24 	bl	800462c <xTaskResumeAll>
 8003fe4:	b948      	cbnz	r0, 8003ffa <xQueueReceive+0x116>
 8003fe6:	f04f 23e0 	mov.w	r3, #3758153728	@ 0xe000e000
 8003fea:	f04f 5280 	mov.w	r2, #268435456	@ 0x10000000
 8003fee:	f8c3 2d04 	str.w	r2, [r3, #3332]	@ 0xd04
 8003ff2:	f3bf 8f4f 	dsb	sy
 8003ff6:	f3bf 8f6f 	isb	sy
 8003ffa:	2501      	movs	r5, #1
 8003ffc:	e794      	b.n	8003f28 <xQueueReceive+0x44>
 8003ffe:	4620      	mov	r0, r4
 8004000:	f7ff fd9e 	bl	8003b40 <prvUnlockQueue>
 8004004:	f000 fb12 	bl	800462c <xTaskResumeAll>
 8004008:	e7f7      	b.n	8003ffa <xQueueReceive+0x116>
 800400a:	4620      	mov	r0, r4
 800400c:	f7ff fd98 	bl	8003b40 <prvUnlockQueue>
 8004010:	f000 fb0c 	bl	800462c <xTaskResumeAll>
 8004014:	4620      	mov	r0, r4
 8004016:	f7ff fd41 	bl	8003a9c <prvIsQueueEmpty>
 800401a:	2800      	cmp	r0, #0
 800401c:	d0ed      	beq.n	8003ffa <xQueueReceive+0x116>
 800401e:	e7b4      	b.n	8003f8a <xQueueReceive+0xa6>

08004020 <vQueueAddToRegistry>:
 8004020:	2300      	movs	r3, #0
 8004022:	b530      	push	{r4, r5, lr}
 8004024:	4a06      	ldr	r2, [pc, #24]	@ (8004040 <vQueueAddToRegistry+0x20>)
 8004026:	f852 5033 	ldr.w	r5, [r2, r3, lsl #3]
 800402a:	eb02 04c3 	add.w	r4, r2, r3, lsl #3
 800402e:	b91d      	cbnz	r5, 8004038 <vQueueAddToRegistry+0x18>
 8004030:	f842 1033 	str.w	r1, [r2, r3, lsl #3]
 8004034:	6060      	str	r0, [r4, #4]
 8004036:	bd30      	pop	{r4, r5, pc}
 8004038:	3301      	adds	r3, #1
 800403a:	2b08      	cmp	r3, #8
 800403c:	d1f3      	bne.n	8004026 <vQueueAddToRegistry+0x6>
 800403e:	e7fa      	b.n	8004036 <vQueueAddToRegistry+0x16>
 8004040:	20000d28 	.word	0x20000d28

08004044 <vQueueWaitForMessageRestricted>:
 8004044:	b570      	push	{r4, r5, r6, lr}
 8004046:	4604      	mov	r4, r0
 8004048:	460d      	mov	r5, r1
 800404a:	4616      	mov	r6, r2
 800404c:	f000 ff22 	bl	8004e94 <vPortEnterCritical>
 8004050:	f894 3044 	ldrb.w	r3, [r4, #68]	@ 0x44
 8004054:	2bff      	cmp	r3, #255	@ 0xff
 8004056:	bf04      	itt	eq
 8004058:	2300      	moveq	r3, #0
 800405a:	f884 3044 	strbeq.w	r3, [r4, #68]	@ 0x44
 800405e:	f894 3045 	ldrb.w	r3, [r4, #69]	@ 0x45
 8004062:	2bff      	cmp	r3, #255	@ 0xff
 8004064:	bf04      	itt	eq
 8004066:	2300      	moveq	r3, #0
 8004068:	f884 3045 	strbeq.w	r3, [r4, #69]	@ 0x45
 800406c:	f000 ff32 	bl	8004ed4 <vPortExitCritical>
 8004070:	6ba3      	ldr	r3, [r4, #56]	@ 0x38
 8004072:	b92b      	cbnz	r3, 8004080 <vQueueWaitForMessageRestricted+0x3c>
 8004074:	4632      	mov	r2, r6
 8004076:	4629      	mov	r1, r5
 8004078:	f104 0024 	add.w	r0, r4, #36	@ 0x24
 800407c:	f000 fbca 	bl	8004814 <vTaskPlaceOnEventListRestricted>
 8004080:	4620      	mov	r0, r4
 8004082:	e8bd 4070 	ldmia.w	sp!, {r4, r5, r6, lr}
 8004086:	f7ff bd5b 	b.w	8003b40 <prvUnlockQueue>
	...

0800408c <prvAddNewTaskToReadyList>:
 800408c:	e92d 41f0 	stmdb	sp!, {r4, r5, r6, r7, r8, lr}
 8004090:	4604      	mov	r4, r0
 8004092:	f000 feff 	bl	8004e94 <vPortEnterCritical>
 8004096:	4b30      	ldr	r3, [pc, #192]	@ (8004158 <prvAddNewTaskToReadyList+0xcc>)
 8004098:	4e30      	ldr	r6, [pc, #192]	@ (800415c <prvAddNewTaskToReadyList+0xd0>)
 800409a:	681a      	ldr	r2, [r3, #0]
 800409c:	4f30      	ldr	r7, [pc, #192]	@ (8004160 <prvAddNewTaskToReadyList+0xd4>)
 800409e:	3201      	adds	r2, #1
 80040a0:	601a      	str	r2, [r3, #0]
 80040a2:	6835      	ldr	r5, [r6, #0]
 80040a4:	2d00      	cmp	r5, #0
 80040a6:	d14b      	bne.n	8004140 <prvAddNewTaskToReadyList+0xb4>
 80040a8:	6034      	str	r4, [r6, #0]
 80040aa:	681b      	ldr	r3, [r3, #0]
 80040ac:	2b01      	cmp	r3, #1
 80040ae:	d11f      	bne.n	80040f0 <prvAddNewTaskToReadyList+0x64>
 80040b0:	46b8      	mov	r8, r7
 80040b2:	4640      	mov	r0, r8
 80040b4:	3501      	adds	r5, #1
 80040b6:	f7ff fcb1 	bl	8003a1c <vListInitialise>
 80040ba:	2d38      	cmp	r5, #56	@ 0x38
 80040bc:	f108 0814 	add.w	r8, r8, #20
 80040c0:	d1f7      	bne.n	80040b2 <prvAddNewTaskToReadyList+0x26>
 80040c2:	f8df 80a0 	ldr.w	r8, [pc, #160]	@ 8004164 <prvAddNewTaskToReadyList+0xd8>
 80040c6:	4d28      	ldr	r5, [pc, #160]	@ (8004168 <prvAddNewTaskToReadyList+0xdc>)
 80040c8:	4640      	mov	r0, r8
 80040ca:	f7ff fca7 	bl	8003a1c <vListInitialise>
 80040ce:	4628      	mov	r0, r5
 80040d0:	f7ff fca4 	bl	8003a1c <vListInitialise>
 80040d4:	4825      	ldr	r0, [pc, #148]	@ (800416c <prvAddNewTaskToReadyList+0xe0>)
 80040d6:	f7ff fca1 	bl	8003a1c <vListInitialise>
 80040da:	4825      	ldr	r0, [pc, #148]	@ (8004170 <prvAddNewTaskToReadyList+0xe4>)
 80040dc:	f7ff fc9e 	bl	8003a1c <vListInitialise>
 80040e0:	4824      	ldr	r0, [pc, #144]	@ (8004174 <prvAddNewTaskToReadyList+0xe8>)
 80040e2:	f7ff fc9b 	bl	8003a1c <vListInitialise>
 80040e6:	4b24      	ldr	r3, [pc, #144]	@ (8004178 <prvAddNewTaskToReadyList+0xec>)
 80040e8:	f8c3 8000 	str.w	r8, [r3]
 80040ec:	4b23      	ldr	r3, [pc, #140]	@ (800417c <prvAddNewTaskToReadyList+0xf0>)
 80040ee:	601d      	str	r5, [r3, #0]
 80040f0:	2014      	movs	r0, #20
 80040f2:	4a23      	ldr	r2, [pc, #140]	@ (8004180 <prvAddNewTaskToReadyList+0xf4>)
 80040f4:	6813      	ldr	r3, [r2, #0]
 80040f6:	3301      	adds	r3, #1
 80040f8:	6013      	str	r3, [r2, #0]
 80040fa:	4a22      	ldr	r2, [pc, #136]	@ (8004184 <prvAddNewTaskToReadyList+0xf8>)
 80040fc:	6463      	str	r3, [r4, #68]	@ 0x44
 80040fe:	6811      	ldr	r1, [r2, #0]
 8004100:	6ae3      	ldr	r3, [r4, #44]	@ 0x2c
 8004102:	428b      	cmp	r3, r1
 8004104:	fb00 7003 	mla	r0, r0, r3, r7
 8004108:	f104 0104 	add.w	r1, r4, #4
 800410c:	bf88      	it	hi
 800410e:	6013      	strhi	r3, [r2, #0]
 8004110:	f7ff fc92 	bl	8003a38 <vListInsertEnd>
 8004114:	f000 fede 	bl	8004ed4 <vPortExitCritical>
 8004118:	4b1b      	ldr	r3, [pc, #108]	@ (8004188 <prvAddNewTaskToReadyList+0xfc>)
 800411a:	681b      	ldr	r3, [r3, #0]
 800411c:	b173      	cbz	r3, 800413c <prvAddNewTaskToReadyList+0xb0>
 800411e:	6833      	ldr	r3, [r6, #0]
 8004120:	6ada      	ldr	r2, [r3, #44]	@ 0x2c
 8004122:	6ae3      	ldr	r3, [r4, #44]	@ 0x2c
 8004124:	429a      	cmp	r2, r3
 8004126:	d209      	bcs.n	800413c <prvAddNewTaskToReadyList+0xb0>
 8004128:	f04f 23e0 	mov.w	r3, #3758153728	@ 0xe000e000
 800412c:	f04f 5280 	mov.w	r2, #268435456	@ 0x10000000
 8004130:	f8c3 2d04 	str.w	r2, [r3, #3332]	@ 0xd04
 8004134:	f3bf 8f4f 	dsb	sy
 8004138:	f3bf 8f6f 	isb	sy
 800413c:	e8bd 81f0 	ldmia.w	sp!, {r4, r5, r6, r7, r8, pc}
 8004140:	4b11      	ldr	r3, [pc, #68]	@ (8004188 <prvAddNewTaskToReadyList+0xfc>)
 8004142:	681a      	ldr	r2, [r3, #0]
 8004144:	6ae3      	ldr	r3, [r4, #44]	@ 0x2c
 8004146:	2a00      	cmp	r2, #0
 8004148:	d1d2      	bne.n	80040f0 <prvAddNewTaskToReadyList+0x64>
 800414a:	6832      	ldr	r2, [r6, #0]
 800414c:	6ad2      	ldr	r2, [r2, #44]	@ 0x2c
 800414e:	429a      	cmp	r2, r3
 8004150:	bf98      	it	ls
 8004152:	6034      	strls	r4, [r6, #0]
 8004154:	e7cc      	b.n	80040f0 <prvAddNewTaskToReadyList+0x64>
 8004156:	bf00      	nop
 8004158:	20000d8c 	.word	0x20000d8c
 800415c:	20001260 	.word	0x20001260
 8004160:	20000e00 	.word	0x20000e00
 8004164:	20000dec 	.word	0x20000dec
 8004168:	20000dd8 	.word	0x20000dd8
 800416c:	20000dbc 	.word	0x20000dbc
 8004170:	20000da8 	.word	0x20000da8
 8004174:	20000d90 	.word	0x20000d90
 8004178:	20000dd4 	.word	0x20000dd4
 800417c:	20000dd0 	.word	0x20000dd0
 8004180:	20000d70 	.word	0x20000d70
 8004184:	20000d84 	.word	0x20000d84
 8004188:	20000d80 	.word	0x20000d80

0800418c <prvAddCurrentTaskToDelayedList>:
 800418c:	b5f8      	push	{r3, r4, r5, r6, r7, lr}
 800418e:	4606      	mov	r6, r0
 8004190:	4b14      	ldr	r3, [pc, #80]	@ (80041e4 <prvAddCurrentTaskToDelayedList+0x58>)
 8004192:	4d15      	ldr	r5, [pc, #84]	@ (80041e8 <prvAddCurrentTaskToDelayedList+0x5c>)
 8004194:	681c      	ldr	r4, [r3, #0]
 8004196:	6828      	ldr	r0, [r5, #0]
 8004198:	460f      	mov	r7, r1
 800419a:	3004      	adds	r0, #4
 800419c:	f7ff fc6e 	bl	8003a7c <uxListRemove>
 80041a0:	1c73      	adds	r3, r6, #1
 80041a2:	d107      	bne.n	80041b4 <prvAddCurrentTaskToDelayedList+0x28>
 80041a4:	b137      	cbz	r7, 80041b4 <prvAddCurrentTaskToDelayedList+0x28>
 80041a6:	6829      	ldr	r1, [r5, #0]
 80041a8:	4810      	ldr	r0, [pc, #64]	@ (80041ec <prvAddCurrentTaskToDelayedList+0x60>)
 80041aa:	3104      	adds	r1, #4
 80041ac:	e8bd 40f8 	ldmia.w	sp!, {r3, r4, r5, r6, r7, lr}
 80041b0:	f7ff bc42 	b.w	8003a38 <vListInsertEnd>
 80041b4:	682b      	ldr	r3, [r5, #0]
 80041b6:	19a4      	adds	r4, r4, r6
 80041b8:	605c      	str	r4, [r3, #4]
 80041ba:	d307      	bcc.n	80041cc <prvAddCurrentTaskToDelayedList+0x40>
 80041bc:	4b0c      	ldr	r3, [pc, #48]	@ (80041f0 <prvAddCurrentTaskToDelayedList+0x64>)
 80041be:	6818      	ldr	r0, [r3, #0]
 80041c0:	6829      	ldr	r1, [r5, #0]
 80041c2:	e8bd 40f8 	ldmia.w	sp!, {r3, r4, r5, r6, r7, lr}
 80041c6:	3104      	adds	r1, #4
 80041c8:	f7ff bc41 	b.w	8003a4e <vListInsert>
 80041cc:	4b09      	ldr	r3, [pc, #36]	@ (80041f4 <prvAddCurrentTaskToDelayedList+0x68>)
 80041ce:	6818      	ldr	r0, [r3, #0]
 80041d0:	6829      	ldr	r1, [r5, #0]
 80041d2:	3104      	adds	r1, #4
 80041d4:	f7ff fc3b 	bl	8003a4e <vListInsert>
 80041d8:	4b07      	ldr	r3, [pc, #28]	@ (80041f8 <prvAddCurrentTaskToDelayedList+0x6c>)
 80041da:	681a      	ldr	r2, [r3, #0]
 80041dc:	42a2      	cmp	r2, r4
 80041de:	bf88      	it	hi
 80041e0:	601c      	strhi	r4, [r3, #0]
 80041e2:	bdf8      	pop	{r3, r4, r5, r6, r7, pc}
 80041e4:	20000d88 	.word	0x20000d88
 80041e8:	20001260 	.word	0x20001260
 80041ec:	20000d90 	.word	0x20000d90
 80041f0:	20000dd0 	.word	0x20000dd0
 80041f4:	20000dd4 	.word	0x20000dd4
 80041f8:	20000d6c 	.word	0x20000d6c

080041fc <prvResetNextTaskUnblockTime>:
 80041fc:	4a06      	ldr	r2, [pc, #24]	@ (8004218 <prvResetNextTaskUnblockTime+0x1c>)
 80041fe:	6813      	ldr	r3, [r2, #0]
 8004200:	6819      	ldr	r1, [r3, #0]
 8004202:	4b06      	ldr	r3, [pc, #24]	@ (800421c <prvResetNextTaskUnblockTime+0x20>)
 8004204:	b919      	cbnz	r1, 800420e <prvResetNextTaskUnblockTime+0x12>
 8004206:	f04f 32ff 	mov.w	r2, #4294967295
 800420a:	601a      	str	r2, [r3, #0]
 800420c:	4770      	bx	lr
 800420e:	6812      	ldr	r2, [r2, #0]
 8004210:	68d2      	ldr	r2, [r2, #12]
 8004212:	68d2      	ldr	r2, [r2, #12]
 8004214:	6852      	ldr	r2, [r2, #4]
 8004216:	e7f8      	b.n	800420a <prvResetNextTaskUnblockTime+0xe>
 8004218:	20000dd4 	.word	0x20000dd4
 800421c:	20000d6c 	.word	0x20000d6c

08004220 <prvDeleteTCB>:
 8004220:	b510      	push	{r4, lr}
 8004222:	4604      	mov	r4, r0
 8004224:	3054      	adds	r0, #84	@ 0x54
 8004226:	f001 fc53 	bl	8005ad0 <_reclaim_reent>
 800422a:	f894 30a5 	ldrb.w	r3, [r4, #165]	@ 0xa5
 800422e:	b93b      	cbnz	r3, 8004240 <prvDeleteTCB+0x20>
 8004230:	6b20      	ldr	r0, [r4, #48]	@ 0x30
 8004232:	f000 fff3 	bl	800521c <vPortFree>
 8004236:	4620      	mov	r0, r4
 8004238:	e8bd 4010 	ldmia.w	sp!, {r4, lr}
 800423c:	f000 bfee 	b.w	800521c <vPortFree>
 8004240:	2b01      	cmp	r3, #1
 8004242:	d0f8      	beq.n	8004236 <prvDeleteTCB+0x16>
 8004244:	2b02      	cmp	r3, #2
 8004246:	d008      	beq.n	800425a <prvDeleteTCB+0x3a>
 8004248:	f04f 0350 	mov.w	r3, #80	@ 0x50
 800424c:	f383 8811 	msr	BASEPRI, r3
 8004250:	f3bf 8f6f 	isb	sy
 8004254:	f3bf 8f4f 	dsb	sy
 8004258:	e7fe      	b.n	8004258 <prvDeleteTCB+0x38>
 800425a:	bd10      	pop	{r4, pc}

0800425c <prvIdleTask>:
 800425c:	b580      	push	{r7, lr}
 800425e:	4c13      	ldr	r4, [pc, #76]	@ (80042ac <prvIdleTask+0x50>)
 8004260:	4f13      	ldr	r7, [pc, #76]	@ (80042b0 <prvIdleTask+0x54>)
 8004262:	4d14      	ldr	r5, [pc, #80]	@ (80042b4 <prvIdleTask+0x58>)
 8004264:	6823      	ldr	r3, [r4, #0]
 8004266:	b973      	cbnz	r3, 8004286 <prvIdleTask+0x2a>
 8004268:	4b13      	ldr	r3, [pc, #76]	@ (80042b8 <prvIdleTask+0x5c>)
 800426a:	681b      	ldr	r3, [r3, #0]
 800426c:	2b01      	cmp	r3, #1
 800426e:	d9f8      	bls.n	8004262 <prvIdleTask+0x6>
 8004270:	f04f 23e0 	mov.w	r3, #3758153728	@ 0xe000e000
 8004274:	f04f 5280 	mov.w	r2, #268435456	@ 0x10000000
 8004278:	f8c3 2d04 	str.w	r2, [r3, #3332]	@ 0xd04
 800427c:	f3bf 8f4f 	dsb	sy
 8004280:	f3bf 8f6f 	isb	sy
 8004284:	e7ed      	b.n	8004262 <prvIdleTask+0x6>
 8004286:	f000 fe05 	bl	8004e94 <vPortEnterCritical>
 800428a:	68fb      	ldr	r3, [r7, #12]
 800428c:	68de      	ldr	r6, [r3, #12]
 800428e:	1d30      	adds	r0, r6, #4
 8004290:	f7ff fbf4 	bl	8003a7c <uxListRemove>
 8004294:	682b      	ldr	r3, [r5, #0]
 8004296:	3b01      	subs	r3, #1
 8004298:	602b      	str	r3, [r5, #0]
 800429a:	6823      	ldr	r3, [r4, #0]
 800429c:	3b01      	subs	r3, #1
 800429e:	6023      	str	r3, [r4, #0]
 80042a0:	f000 fe18 	bl	8004ed4 <vPortExitCritical>
 80042a4:	4630      	mov	r0, r6
 80042a6:	f7ff ffbb 	bl	8004220 <prvDeleteTCB>
 80042aa:	e7db      	b.n	8004264 <prvIdleTask+0x8>
 80042ac:	20000da4 	.word	0x20000da4
 80042b0:	20000da8 	.word	0x20000da8
 80042b4:	20000d8c 	.word	0x20000d8c
 80042b8:	20000e00 	.word	0x20000e00

080042bc <prvInitialiseNewTask.constprop.0>:
 80042bc:	e92d 47f0 	stmdb	sp!, {r4, r5, r6, r7, r8, r9, sl, lr}
 80042c0:	460d      	mov	r5, r1
 80042c2:	e9dd 9409 	ldrd	r9, r4, [sp, #36]	@ 0x24
 80042c6:	0096      	lsls	r6, r2, #2
 80042c8:	4632      	mov	r2, r6
 80042ca:	4607      	mov	r7, r0
 80042cc:	21a5      	movs	r1, #165	@ 0xa5
 80042ce:	6b20      	ldr	r0, [r4, #48]	@ 0x30
 80042d0:	4698      	mov	r8, r3
 80042d2:	f001 fb40 	bl	8005956 <memset>
 80042d6:	6b23      	ldr	r3, [r4, #48]	@ 0x30
 80042d8:	3e04      	subs	r6, #4
 80042da:	441e      	add	r6, r3
 80042dc:	f026 0607 	bic.w	r6, r6, #7
 80042e0:	2d00      	cmp	r5, #0
 80042e2:	d041      	beq.n	8004368 <prvInitialiseNewTask.constprop.0+0xac>
 80042e4:	1e6b      	subs	r3, r5, #1
 80042e6:	f104 0233 	add.w	r2, r4, #51	@ 0x33
 80042ea:	350f      	adds	r5, #15
 80042ec:	f813 1f01 	ldrb.w	r1, [r3, #1]!
 80042f0:	f802 1f01 	strb.w	r1, [r2, #1]!
 80042f4:	b109      	cbz	r1, 80042fa <prvInitialiseNewTask.constprop.0+0x3e>
 80042f6:	42ab      	cmp	r3, r5
 80042f8:	d1f8      	bne.n	80042ec <prvInitialiseNewTask.constprop.0+0x30>
 80042fa:	2300      	movs	r3, #0
 80042fc:	f884 3043 	strb.w	r3, [r4, #67]	@ 0x43
 8004300:	9d08      	ldr	r5, [sp, #32]
 8004302:	f04f 0a00 	mov.w	sl, #0
 8004306:	2d37      	cmp	r5, #55	@ 0x37
 8004308:	bf28      	it	cs
 800430a:	2537      	movcs	r5, #55	@ 0x37
 800430c:	1d20      	adds	r0, r4, #4
 800430e:	62e5      	str	r5, [r4, #44]	@ 0x2c
 8004310:	64e5      	str	r5, [r4, #76]	@ 0x4c
 8004312:	f8c4 a050 	str.w	sl, [r4, #80]	@ 0x50
 8004316:	f7ff fb8c 	bl	8003a32 <vListInitialiseItem>
 800431a:	f1c5 0538 	rsb	r5, r5, #56	@ 0x38
 800431e:	f104 0018 	add.w	r0, r4, #24
 8004322:	f7ff fb86 	bl	8003a32 <vListInitialiseItem>
 8004326:	224c      	movs	r2, #76	@ 0x4c
 8004328:	4651      	mov	r1, sl
 800432a:	f8c4 a0a0 	str.w	sl, [r4, #160]	@ 0xa0
 800432e:	6124      	str	r4, [r4, #16]
 8004330:	61a5      	str	r5, [r4, #24]
 8004332:	6264      	str	r4, [r4, #36]	@ 0x24
 8004334:	f884 a0a4 	strb.w	sl, [r4, #164]	@ 0xa4
 8004338:	f104 0054 	add.w	r0, r4, #84	@ 0x54
 800433c:	f001 fb0b 	bl	8005956 <memset>
 8004340:	4b0b      	ldr	r3, [pc, #44]	@ (8004370 <prvInitialiseNewTask.constprop.0+0xb4>)
 8004342:	4639      	mov	r1, r7
 8004344:	f103 0268 	add.w	r2, r3, #104	@ 0x68
 8004348:	65a3      	str	r3, [r4, #88]	@ 0x58
 800434a:	33d0      	adds	r3, #208	@ 0xd0
 800434c:	65e2      	str	r2, [r4, #92]	@ 0x5c
 800434e:	4630      	mov	r0, r6
 8004350:	4642      	mov	r2, r8
 8004352:	6623      	str	r3, [r4, #96]	@ 0x60
 8004354:	f000 fd76 	bl	8004e44 <pxPortInitialiseStack>
 8004358:	6020      	str	r0, [r4, #0]
 800435a:	f1b9 0f00 	cmp.w	r9, #0
 800435e:	d001      	beq.n	8004364 <prvInitialiseNewTask.constprop.0+0xa8>
 8004360:	f8c9 4000 	str.w	r4, [r9]
 8004364:	e8bd 87f0 	ldmia.w	sp!, {r4, r5, r6, r7, r8, r9, sl, pc}
 8004368:	f884 5034 	strb.w	r5, [r4, #52]	@ 0x34
 800436c:	e7c8      	b.n	8004300 <prvInitialiseNewTask.constprop.0+0x44>
 800436e:	bf00      	nop
 8004370:	20001fb8 	.word	0x20001fb8

08004374 <xTaskCreateStatic>:
 8004374:	b570      	push	{r4, r5, r6, lr}
 8004376:	b086      	sub	sp, #24
 8004378:	e9dd 540b 	ldrd	r5, r4, [sp, #44]	@ 0x2c
 800437c:	b945      	cbnz	r5, 8004390 <xTaskCreateStatic+0x1c>
 800437e:	f04f 0350 	mov.w	r3, #80	@ 0x50
 8004382:	f383 8811 	msr	BASEPRI, r3
 8004386:	f3bf 8f6f 	isb	sy
 800438a:	f3bf 8f4f 	dsb	sy
 800438e:	e7fe      	b.n	800438e <xTaskCreateStatic+0x1a>
 8004390:	b944      	cbnz	r4, 80043a4 <xTaskCreateStatic+0x30>
 8004392:	f04f 0350 	mov.w	r3, #80	@ 0x50
 8004396:	f383 8811 	msr	BASEPRI, r3
 800439a:	f3bf 8f6f 	isb	sy
 800439e:	f3bf 8f4f 	dsb	sy
 80043a2:	e7fe      	b.n	80043a2 <xTaskCreateStatic+0x2e>
 80043a4:	26a8      	movs	r6, #168	@ 0xa8
 80043a6:	9605      	str	r6, [sp, #20]
 80043a8:	9e05      	ldr	r6, [sp, #20]
 80043aa:	2ea8      	cmp	r6, #168	@ 0xa8
 80043ac:	d008      	beq.n	80043c0 <xTaskCreateStatic+0x4c>
 80043ae:	f04f 0350 	mov.w	r3, #80	@ 0x50
 80043b2:	f383 8811 	msr	BASEPRI, r3
 80043b6:	f3bf 8f6f 	isb	sy
 80043ba:	f3bf 8f4f 	dsb	sy
 80043be:	e7fe      	b.n	80043be <xTaskCreateStatic+0x4a>
 80043c0:	6325      	str	r5, [r4, #48]	@ 0x30
 80043c2:	2502      	movs	r5, #2
 80043c4:	f884 50a5 	strb.w	r5, [r4, #165]	@ 0xa5
 80043c8:	ad04      	add	r5, sp, #16
 80043ca:	9501      	str	r5, [sp, #4]
 80043cc:	9d0a      	ldr	r5, [sp, #40]	@ 0x28
 80043ce:	9402      	str	r4, [sp, #8]
 80043d0:	9500      	str	r5, [sp, #0]
 80043d2:	9e05      	ldr	r6, [sp, #20]
 80043d4:	f7ff ff72 	bl	80042bc <prvInitialiseNewTask.constprop.0>
 80043d8:	4620      	mov	r0, r4
 80043da:	f7ff fe57 	bl	800408c <prvAddNewTaskToReadyList>
 80043de:	9804      	ldr	r0, [sp, #16]
 80043e0:	b006      	add	sp, #24
 80043e2:	bd70      	pop	{r4, r5, r6, pc}

080043e4 <xTaskCreate>:
 80043e4:	e92d 43f0 	stmdb	sp!, {r4, r5, r6, r7, r8, r9, lr}
 80043e8:	4607      	mov	r7, r0
 80043ea:	b085      	sub	sp, #20
 80043ec:	0090      	lsls	r0, r2, #2
 80043ee:	4688      	mov	r8, r1
 80043f0:	4616      	mov	r6, r2
 80043f2:	4699      	mov	r9, r3
 80043f4:	f000 fe7a 	bl	80050ec <pvPortMalloc>
 80043f8:	4605      	mov	r5, r0
 80043fa:	b920      	cbnz	r0, 8004406 <xTaskCreate+0x22>
 80043fc:	f04f 30ff 	mov.w	r0, #4294967295
 8004400:	b005      	add	sp, #20
 8004402:	e8bd 83f0 	ldmia.w	sp!, {r4, r5, r6, r7, r8, r9, pc}
 8004406:	20a8      	movs	r0, #168	@ 0xa8
 8004408:	f000 fe70 	bl	80050ec <pvPortMalloc>
 800440c:	4604      	mov	r4, r0
 800440e:	b198      	cbz	r0, 8004438 <xTaskCreate+0x54>
 8004410:	2300      	movs	r3, #0
 8004412:	f880 30a5 	strb.w	r3, [r0, #165]	@ 0xa5
 8004416:	9b0d      	ldr	r3, [sp, #52]	@ 0x34
 8004418:	6305      	str	r5, [r0, #48]	@ 0x30
 800441a:	9301      	str	r3, [sp, #4]
 800441c:	9b0c      	ldr	r3, [sp, #48]	@ 0x30
 800441e:	4632      	mov	r2, r6
 8004420:	4641      	mov	r1, r8
 8004422:	9002      	str	r0, [sp, #8]
 8004424:	9300      	str	r3, [sp, #0]
 8004426:	4638      	mov	r0, r7
 8004428:	464b      	mov	r3, r9
 800442a:	f7ff ff47 	bl	80042bc <prvInitialiseNewTask.constprop.0>
 800442e:	4620      	mov	r0, r4
 8004430:	f7ff fe2c 	bl	800408c <prvAddNewTaskToReadyList>
 8004434:	2001      	movs	r0, #1
 8004436:	e7e3      	b.n	8004400 <xTaskCreate+0x1c>
 8004438:	4628      	mov	r0, r5
 800443a:	f000 feef 	bl	800521c <vPortFree>
 800443e:	e7dd      	b.n	80043fc <xTaskCreate+0x18>

08004440 <vTaskStartScheduler>:
 8004440:	b510      	push	{r4, lr}
 8004442:	2400      	movs	r4, #0
 8004444:	b088      	sub	sp, #32
 8004446:	aa07      	add	r2, sp, #28
 8004448:	a906      	add	r1, sp, #24
 800444a:	a805      	add	r0, sp, #20
 800444c:	e9cd 4405 	strd	r4, r4, [sp, #20]
 8004450:	f7ff facc 	bl	80039ec <vApplicationGetIdleTaskMemory>
 8004454:	9b05      	ldr	r3, [sp, #20]
 8004456:	9a07      	ldr	r2, [sp, #28]
 8004458:	9302      	str	r3, [sp, #8]
 800445a:	9b06      	ldr	r3, [sp, #24]
 800445c:	4919      	ldr	r1, [pc, #100]	@ (80044c4 <vTaskStartScheduler+0x84>)
 800445e:	e9cd 4300 	strd	r4, r3, [sp]
 8004462:	4819      	ldr	r0, [pc, #100]	@ (80044c8 <vTaskStartScheduler+0x88>)
 8004464:	4623      	mov	r3, r4
 8004466:	f7ff ff85 	bl	8004374 <xTaskCreateStatic>
 800446a:	b340      	cbz	r0, 80044be <vTaskStartScheduler+0x7e>
 800446c:	f000 fb24 	bl	8004ab8 <xTimerCreateTimerTask>
 8004470:	2801      	cmp	r0, #1
 8004472:	d119      	bne.n	80044a8 <vTaskStartScheduler+0x68>
 8004474:	f04f 0350 	mov.w	r3, #80	@ 0x50
 8004478:	f383 8811 	msr	BASEPRI, r3
 800447c:	f3bf 8f6f 	isb	sy
 8004480:	f3bf 8f4f 	dsb	sy
 8004484:	4b11      	ldr	r3, [pc, #68]	@ (80044cc <vTaskStartScheduler+0x8c>)
 8004486:	4a12      	ldr	r2, [pc, #72]	@ (80044d0 <vTaskStartScheduler+0x90>)
 8004488:	681b      	ldr	r3, [r3, #0]
 800448a:	3354      	adds	r3, #84	@ 0x54
 800448c:	6013      	str	r3, [r2, #0]
 800448e:	f04f 32ff 	mov.w	r2, #4294967295
 8004492:	4b10      	ldr	r3, [pc, #64]	@ (80044d4 <vTaskStartScheduler+0x94>)
 8004494:	601a      	str	r2, [r3, #0]
 8004496:	4b10      	ldr	r3, [pc, #64]	@ (80044d8 <vTaskStartScheduler+0x98>)
 8004498:	6018      	str	r0, [r3, #0]
 800449a:	4b10      	ldr	r3, [pc, #64]	@ (80044dc <vTaskStartScheduler+0x9c>)
 800449c:	601c      	str	r4, [r3, #0]
 800449e:	b008      	add	sp, #32
 80044a0:	e8bd 4010 	ldmia.w	sp!, {r4, lr}
 80044a4:	f000 bd76 	b.w	8004f94 <xPortStartScheduler>
 80044a8:	3001      	adds	r0, #1
 80044aa:	d108      	bne.n	80044be <vTaskStartScheduler+0x7e>
 80044ac:	f04f 0350 	mov.w	r3, #80	@ 0x50
 80044b0:	f383 8811 	msr	BASEPRI, r3
 80044b4:	f3bf 8f6f 	isb	sy
 80044b8:	f3bf 8f4f 	dsb	sy
 80044bc:	e7fe      	b.n	80044bc <vTaskStartScheduler+0x7c>
 80044be:	b008      	add	sp, #32
 80044c0:	bd10      	pop	{r4, pc}
 80044c2:	bf00      	nop
 80044c4:	08009baa 	.word	0x08009baa
 80044c8:	0800425d 	.word	0x0800425d
 80044cc:	20001260 	.word	0x20001260
 80044d0:	2000001c 	.word	0x2000001c
 80044d4:	20000d6c 	.word	0x20000d6c
 80044d8:	20000d80 	.word	0x20000d80
 80044dc:	20000d88 	.word	0x20000d88

080044e0 <vTaskSuspendAll>:
 80044e0:	4a02      	ldr	r2, [pc, #8]	@ (80044ec <vTaskSuspendAll+0xc>)
 80044e2:	6813      	ldr	r3, [r2, #0]
 80044e4:	3301      	adds	r3, #1
 80044e6:	6013      	str	r3, [r2, #0]
 80044e8:	4770      	bx	lr
 80044ea:	bf00      	nop
 80044ec:	20000d68 	.word	0x20000d68

080044f0 <xTaskGetTickCount>:
 80044f0:	4b01      	ldr	r3, [pc, #4]	@ (80044f8 <xTaskGetTickCount+0x8>)
 80044f2:	6818      	ldr	r0, [r3, #0]
 80044f4:	4770      	bx	lr
 80044f6:	bf00      	nop
 80044f8:	20000d88 	.word	0x20000d88

080044fc <xTaskIncrementTick>:
 80044fc:	4b40      	ldr	r3, [pc, #256]	@ (8004600 <xTaskIncrementTick+0x104>)
 80044fe:	e92d 4ff7 	stmdb	sp!, {r0, r1, r2, r4, r5, r6, r7, r8, r9, sl, fp, lr}
 8004502:	681b      	ldr	r3, [r3, #0]
 8004504:	2b00      	cmp	r3, #0
 8004506:	d173      	bne.n	80045f0 <xTaskIncrementTick+0xf4>
 8004508:	4b3e      	ldr	r3, [pc, #248]	@ (8004604 <xTaskIncrementTick+0x108>)
 800450a:	681c      	ldr	r4, [r3, #0]
 800450c:	3401      	adds	r4, #1
 800450e:	601c      	str	r4, [r3, #0]
 8004510:	b9bc      	cbnz	r4, 8004542 <xTaskIncrementTick+0x46>
 8004512:	4b3d      	ldr	r3, [pc, #244]	@ (8004608 <xTaskIncrementTick+0x10c>)
 8004514:	681a      	ldr	r2, [r3, #0]
 8004516:	6812      	ldr	r2, [r2, #0]
 8004518:	b142      	cbz	r2, 800452c <xTaskIncrementTick+0x30>
 800451a:	f04f 0350 	mov.w	r3, #80	@ 0x50
 800451e:	f383 8811 	msr	BASEPRI, r3
 8004522:	f3bf 8f6f 	isb	sy
 8004526:	f3bf 8f4f 	dsb	sy
 800452a:	e7fe      	b.n	800452a <xTaskIncrementTick+0x2e>
 800452c:	4a37      	ldr	r2, [pc, #220]	@ (800460c <xTaskIncrementTick+0x110>)
 800452e:	6819      	ldr	r1, [r3, #0]
 8004530:	6810      	ldr	r0, [r2, #0]
 8004532:	6018      	str	r0, [r3, #0]
 8004534:	6011      	str	r1, [r2, #0]
 8004536:	4a36      	ldr	r2, [pc, #216]	@ (8004610 <xTaskIncrementTick+0x114>)
 8004538:	6813      	ldr	r3, [r2, #0]
 800453a:	3301      	adds	r3, #1
 800453c:	6013      	str	r3, [r2, #0]
 800453e:	f7ff fe5d 	bl	80041fc <prvResetNextTaskUnblockTime>
 8004542:	4d34      	ldr	r5, [pc, #208]	@ (8004614 <xTaskIncrementTick+0x118>)
 8004544:	f04f 0b00 	mov.w	fp, #0
 8004548:	682b      	ldr	r3, [r5, #0]
 800454a:	4e33      	ldr	r6, [pc, #204]	@ (8004618 <xTaskIncrementTick+0x11c>)
 800454c:	429c      	cmp	r4, r3
 800454e:	4f33      	ldr	r7, [pc, #204]	@ (800461c <xTaskIncrementTick+0x120>)
 8004550:	d212      	bcs.n	8004578 <xTaskIncrementTick+0x7c>
 8004552:	2114      	movs	r1, #20
 8004554:	683a      	ldr	r2, [r7, #0]
 8004556:	6ad2      	ldr	r2, [r2, #44]	@ 0x2c
 8004558:	434a      	muls	r2, r1
 800455a:	58b2      	ldr	r2, [r6, r2]
 800455c:	2a02      	cmp	r2, #2
 800455e:	4a30      	ldr	r2, [pc, #192]	@ (8004620 <xTaskIncrementTick+0x124>)
 8004560:	bf28      	it	cs
 8004562:	f04f 0b01 	movcs.w	fp, #1
 8004566:	6812      	ldr	r2, [r2, #0]
 8004568:	2a00      	cmp	r2, #0
 800456a:	bf18      	it	ne
 800456c:	f04f 0b01 	movne.w	fp, #1
 8004570:	4658      	mov	r0, fp
 8004572:	b003      	add	sp, #12
 8004574:	e8bd 8ff0 	ldmia.w	sp!, {r4, r5, r6, r7, r8, r9, sl, fp, pc}
 8004578:	f8df 908c 	ldr.w	r9, [pc, #140]	@ 8004608 <xTaskIncrementTick+0x10c>
 800457c:	f8df a0a4 	ldr.w	sl, [pc, #164]	@ 8004624 <xTaskIncrementTick+0x128>
 8004580:	f8d9 2000 	ldr.w	r2, [r9]
 8004584:	6812      	ldr	r2, [r2, #0]
 8004586:	b91a      	cbnz	r2, 8004590 <xTaskIncrementTick+0x94>
 8004588:	f04f 32ff 	mov.w	r2, #4294967295
 800458c:	602a      	str	r2, [r5, #0]
 800458e:	e7e0      	b.n	8004552 <xTaskIncrementTick+0x56>
 8004590:	f8d9 2000 	ldr.w	r2, [r9]
 8004594:	68d2      	ldr	r2, [r2, #12]
 8004596:	f8d2 800c 	ldr.w	r8, [r2, #12]
 800459a:	f8d8 1004 	ldr.w	r1, [r8, #4]
 800459e:	428c      	cmp	r4, r1
 80045a0:	d201      	bcs.n	80045a6 <xTaskIncrementTick+0xaa>
 80045a2:	6029      	str	r1, [r5, #0]
 80045a4:	e7d5      	b.n	8004552 <xTaskIncrementTick+0x56>
 80045a6:	f108 0304 	add.w	r3, r8, #4
 80045aa:	4618      	mov	r0, r3
 80045ac:	9301      	str	r3, [sp, #4]
 80045ae:	f7ff fa65 	bl	8003a7c <uxListRemove>
 80045b2:	f8d8 1028 	ldr.w	r1, [r8, #40]	@ 0x28
 80045b6:	b119      	cbz	r1, 80045c0 <xTaskIncrementTick+0xc4>
 80045b8:	f108 0018 	add.w	r0, r8, #24
 80045bc:	f7ff fa5e 	bl	8003a7c <uxListRemove>
 80045c0:	2314      	movs	r3, #20
 80045c2:	f8d8 002c 	ldr.w	r0, [r8, #44]	@ 0x2c
 80045c6:	f8da 1000 	ldr.w	r1, [sl]
 80045ca:	4288      	cmp	r0, r1
 80045cc:	bf88      	it	hi
 80045ce:	f8ca 0000 	strhi.w	r0, [sl]
 80045d2:	f108 0104 	add.w	r1, r8, #4
 80045d6:	fb03 6000 	mla	r0, r3, r0, r6
 80045da:	f7ff fa2d 	bl	8003a38 <vListInsertEnd>
 80045de:	6838      	ldr	r0, [r7, #0]
 80045e0:	f8d8 102c 	ldr.w	r1, [r8, #44]	@ 0x2c
 80045e4:	6ac2      	ldr	r2, [r0, #44]	@ 0x2c
 80045e6:	4291      	cmp	r1, r2
 80045e8:	bf28      	it	cs
 80045ea:	f04f 0b01 	movcs.w	fp, #1
 80045ee:	e7c7      	b.n	8004580 <xTaskIncrementTick+0x84>
 80045f0:	4a0d      	ldr	r2, [pc, #52]	@ (8004628 <xTaskIncrementTick+0x12c>)
 80045f2:	f04f 0b00 	mov.w	fp, #0
 80045f6:	6813      	ldr	r3, [r2, #0]
 80045f8:	3301      	adds	r3, #1
 80045fa:	6013      	str	r3, [r2, #0]
 80045fc:	e7b8      	b.n	8004570 <xTaskIncrementTick+0x74>
 80045fe:	bf00      	nop
 8004600:	20000d68 	.word	0x20000d68
 8004604:	20000d88 	.word	0x20000d88
 8004608:	20000dd4 	.word	0x20000dd4
 800460c:	20000dd0 	.word	0x20000dd0
 8004610:	20000d74 	.word	0x20000d74
 8004614:	20000d6c 	.word	0x20000d6c
 8004618:	20000e00 	.word	0x20000e00
 800461c:	20001260 	.word	0x20001260
 8004620:	20000d78 	.word	0x20000d78
 8004624:	20000d84 	.word	0x20000d84
 8004628:	20000d7c 	.word	0x20000d7c

0800462c <xTaskResumeAll>:
 800462c:	e92d 41f0 	stmdb	sp!, {r4, r5, r6, r7, r8, lr}
 8004630:	4c30      	ldr	r4, [pc, #192]	@ (80046f4 <xTaskResumeAll+0xc8>)
 8004632:	6823      	ldr	r3, [r4, #0]
 8004634:	b943      	cbnz	r3, 8004648 <xTaskResumeAll+0x1c>
 8004636:	f04f 0350 	mov.w	r3, #80	@ 0x50
 800463a:	f383 8811 	msr	BASEPRI, r3
 800463e:	f3bf 8f6f 	isb	sy
 8004642:	f3bf 8f4f 	dsb	sy
 8004646:	e7fe      	b.n	8004646 <xTaskResumeAll+0x1a>
 8004648:	f000 fc24 	bl	8004e94 <vPortEnterCritical>
 800464c:	6823      	ldr	r3, [r4, #0]
 800464e:	3b01      	subs	r3, #1
 8004650:	6023      	str	r3, [r4, #0]
 8004652:	6824      	ldr	r4, [r4, #0]
 8004654:	b12c      	cbz	r4, 8004662 <xTaskResumeAll+0x36>
 8004656:	2400      	movs	r4, #0
 8004658:	f000 fc3c 	bl	8004ed4 <vPortExitCritical>
 800465c:	4620      	mov	r0, r4
 800465e:	e8bd 81f0 	ldmia.w	sp!, {r4, r5, r6, r7, r8, pc}
 8004662:	4b25      	ldr	r3, [pc, #148]	@ (80046f8 <xTaskResumeAll+0xcc>)
 8004664:	681b      	ldr	r3, [r3, #0]
 8004666:	2b00      	cmp	r3, #0
 8004668:	d0f5      	beq.n	8004656 <xTaskResumeAll+0x2a>
 800466a:	4d24      	ldr	r5, [pc, #144]	@ (80046fc <xTaskResumeAll+0xd0>)
 800466c:	4e24      	ldr	r6, [pc, #144]	@ (8004700 <xTaskResumeAll+0xd4>)
 800466e:	f8df 8094 	ldr.w	r8, [pc, #148]	@ 8004704 <xTaskResumeAll+0xd8>
 8004672:	e01d      	b.n	80046b0 <xTaskResumeAll+0x84>
 8004674:	68eb      	ldr	r3, [r5, #12]
 8004676:	68dc      	ldr	r4, [r3, #12]
 8004678:	1d27      	adds	r7, r4, #4
 800467a:	f104 0018 	add.w	r0, r4, #24
 800467e:	f7ff f9fd 	bl	8003a7c <uxListRemove>
 8004682:	4638      	mov	r0, r7
 8004684:	f7ff f9fa 	bl	8003a7c <uxListRemove>
 8004688:	2014      	movs	r0, #20
 800468a:	6ae3      	ldr	r3, [r4, #44]	@ 0x2c
 800468c:	6832      	ldr	r2, [r6, #0]
 800468e:	fb00 8003 	mla	r0, r0, r3, r8
 8004692:	4293      	cmp	r3, r2
 8004694:	4639      	mov	r1, r7
 8004696:	bf88      	it	hi
 8004698:	6033      	strhi	r3, [r6, #0]
 800469a:	f7ff f9cd 	bl	8003a38 <vListInsertEnd>
 800469e:	4b1a      	ldr	r3, [pc, #104]	@ (8004708 <xTaskResumeAll+0xdc>)
 80046a0:	6ae2      	ldr	r2, [r4, #44]	@ 0x2c
 80046a2:	681b      	ldr	r3, [r3, #0]
 80046a4:	6adb      	ldr	r3, [r3, #44]	@ 0x2c
 80046a6:	429a      	cmp	r2, r3
 80046a8:	d302      	bcc.n	80046b0 <xTaskResumeAll+0x84>
 80046aa:	2201      	movs	r2, #1
 80046ac:	4b17      	ldr	r3, [pc, #92]	@ (800470c <xTaskResumeAll+0xe0>)
 80046ae:	601a      	str	r2, [r3, #0]
 80046b0:	682b      	ldr	r3, [r5, #0]
 80046b2:	2b00      	cmp	r3, #0
 80046b4:	d1de      	bne.n	8004674 <xTaskResumeAll+0x48>
 80046b6:	b10c      	cbz	r4, 80046bc <xTaskResumeAll+0x90>
 80046b8:	f7ff fda0 	bl	80041fc <prvResetNextTaskUnblockTime>
 80046bc:	4d14      	ldr	r5, [pc, #80]	@ (8004710 <xTaskResumeAll+0xe4>)
 80046be:	682c      	ldr	r4, [r5, #0]
 80046c0:	b144      	cbz	r4, 80046d4 <xTaskResumeAll+0xa8>
 80046c2:	2701      	movs	r7, #1
 80046c4:	4e11      	ldr	r6, [pc, #68]	@ (800470c <xTaskResumeAll+0xe0>)
 80046c6:	f7ff ff19 	bl	80044fc <xTaskIncrementTick>
 80046ca:	b100      	cbz	r0, 80046ce <xTaskResumeAll+0xa2>
 80046cc:	6037      	str	r7, [r6, #0]
 80046ce:	3c01      	subs	r4, #1
 80046d0:	d1f9      	bne.n	80046c6 <xTaskResumeAll+0x9a>
 80046d2:	602c      	str	r4, [r5, #0]
 80046d4:	4b0d      	ldr	r3, [pc, #52]	@ (800470c <xTaskResumeAll+0xe0>)
 80046d6:	681b      	ldr	r3, [r3, #0]
 80046d8:	2b00      	cmp	r3, #0
 80046da:	d0bc      	beq.n	8004656 <xTaskResumeAll+0x2a>
 80046dc:	f04f 23e0 	mov.w	r3, #3758153728	@ 0xe000e000
 80046e0:	f04f 5280 	mov.w	r2, #268435456	@ 0x10000000
 80046e4:	f8c3 2d04 	str.w	r2, [r3, #3332]	@ 0xd04
 80046e8:	f3bf 8f4f 	dsb	sy
 80046ec:	f3bf 8f6f 	isb	sy
 80046f0:	2401      	movs	r4, #1
 80046f2:	e7b1      	b.n	8004658 <xTaskResumeAll+0x2c>
 80046f4:	20000d68 	.word	0x20000d68
 80046f8:	20000d8c 	.word	0x20000d8c
 80046fc:	20000dbc 	.word	0x20000dbc
 8004700:	20000d84 	.word	0x20000d84
 8004704:	20000e00 	.word	0x20000e00
 8004708:	20001260 	.word	0x20001260
 800470c:	20000d78 	.word	0x20000d78
 8004710:	20000d7c 	.word	0x20000d7c

08004714 <vTaskDelay>:
 8004714:	b508      	push	{r3, lr}
 8004716:	b950      	cbnz	r0, 800472e <vTaskDelay+0x1a>
 8004718:	f04f 23e0 	mov.w	r3, #3758153728	@ 0xe000e000
 800471c:	f04f 5280 	mov.w	r2, #268435456	@ 0x10000000
 8004720:	f8c3 2d04 	str.w	r2, [r3, #3332]	@ 0xd04
 8004724:	f3bf 8f4f 	dsb	sy
 8004728:	f3bf 8f6f 	isb	sy
 800472c:	bd08      	pop	{r3, pc}
 800472e:	4b0a      	ldr	r3, [pc, #40]	@ (8004758 <vTaskDelay+0x44>)
 8004730:	6819      	ldr	r1, [r3, #0]
 8004732:	b141      	cbz	r1, 8004746 <vTaskDelay+0x32>
 8004734:	f04f 0350 	mov.w	r3, #80	@ 0x50
 8004738:	f383 8811 	msr	BASEPRI, r3
 800473c:	f3bf 8f6f 	isb	sy
 8004740:	f3bf 8f4f 	dsb	sy
 8004744:	e7fe      	b.n	8004744 <vTaskDelay+0x30>
 8004746:	f7ff fecb 	bl	80044e0 <vTaskSuspendAll>
 800474a:	f7ff fd1f 	bl	800418c <prvAddCurrentTaskToDelayedList>
 800474e:	f7ff ff6d 	bl	800462c <xTaskResumeAll>
 8004752:	2800      	cmp	r0, #0
 8004754:	d0e0      	beq.n	8004718 <vTaskDelay+0x4>
 8004756:	e7e9      	b.n	800472c <vTaskDelay+0x18>
 8004758:	20000d68 	.word	0x20000d68

0800475c <vTaskSwitchContext>:
 800475c:	4b1a      	ldr	r3, [pc, #104]	@ (80047c8 <vTaskSwitchContext+0x6c>)
 800475e:	b570      	push	{r4, r5, r6, lr}
 8004760:	681a      	ldr	r2, [r3, #0]
 8004762:	4b1a      	ldr	r3, [pc, #104]	@ (80047cc <vTaskSwitchContext+0x70>)
 8004764:	b112      	cbz	r2, 800476c <vTaskSwitchContext+0x10>
 8004766:	2201      	movs	r2, #1
 8004768:	601a      	str	r2, [r3, #0]
 800476a:	bd70      	pop	{r4, r5, r6, pc}
 800476c:	2614      	movs	r6, #20
 800476e:	4d18      	ldr	r5, [pc, #96]	@ (80047d0 <vTaskSwitchContext+0x74>)
 8004770:	601a      	str	r2, [r3, #0]
 8004772:	682a      	ldr	r2, [r5, #0]
 8004774:	4917      	ldr	r1, [pc, #92]	@ (80047d4 <vTaskSwitchContext+0x78>)
 8004776:	fb06 f302 	mul.w	r3, r6, r2
 800477a:	58cc      	ldr	r4, [r1, r3]
 800477c:	18c8      	adds	r0, r1, r3
 800477e:	b1b4      	cbz	r4, 80047ae <vTaskSwitchContext+0x52>
 8004780:	6844      	ldr	r4, [r0, #4]
 8004782:	3308      	adds	r3, #8
 8004784:	6864      	ldr	r4, [r4, #4]
 8004786:	440b      	add	r3, r1
 8004788:	429c      	cmp	r4, r3
 800478a:	bf08      	it	eq
 800478c:	6863      	ldreq	r3, [r4, #4]
 800478e:	6044      	str	r4, [r0, #4]
 8004790:	bf08      	it	eq
 8004792:	6043      	streq	r3, [r0, #4]
 8004794:	2314      	movs	r3, #20
 8004796:	fb03 1102 	mla	r1, r3, r2, r1
 800479a:	684b      	ldr	r3, [r1, #4]
 800479c:	68d9      	ldr	r1, [r3, #12]
 800479e:	4b0e      	ldr	r3, [pc, #56]	@ (80047d8 <vTaskSwitchContext+0x7c>)
 80047a0:	6019      	str	r1, [r3, #0]
 80047a2:	602a      	str	r2, [r5, #0]
 80047a4:	681b      	ldr	r3, [r3, #0]
 80047a6:	4a0d      	ldr	r2, [pc, #52]	@ (80047dc <vTaskSwitchContext+0x80>)
 80047a8:	3354      	adds	r3, #84	@ 0x54
 80047aa:	6013      	str	r3, [r2, #0]
 80047ac:	e7dd      	b.n	800476a <vTaskSwitchContext+0xe>
 80047ae:	b942      	cbnz	r2, 80047c2 <vTaskSwitchContext+0x66>
 80047b0:	f04f 0350 	mov.w	r3, #80	@ 0x50
 80047b4:	f383 8811 	msr	BASEPRI, r3
 80047b8:	f3bf 8f6f 	isb	sy
 80047bc:	f3bf 8f4f 	dsb	sy
 80047c0:	e7fe      	b.n	80047c0 <vTaskSwitchContext+0x64>
 80047c2:	3a01      	subs	r2, #1
 80047c4:	e7d7      	b.n	8004776 <vTaskSwitchContext+0x1a>
 80047c6:	bf00      	nop
 80047c8:	20000d68 	.word	0x20000d68
 80047cc:	20000d78 	.word	0x20000d78
 80047d0:	20000d84 	.word	0x20000d84
 80047d4:	20000e00 	.word	0x20000e00
 80047d8:	20001260 	.word	0x20001260
 80047dc:	2000001c 	.word	0x2000001c

080047e0 <vTaskPlaceOnEventList>:
 80047e0:	b510      	push	{r4, lr}
 80047e2:	460c      	mov	r4, r1
 80047e4:	b940      	cbnz	r0, 80047f8 <vTaskPlaceOnEventList+0x18>
 80047e6:	f04f 0350 	mov.w	r3, #80	@ 0x50
 80047ea:	f383 8811 	msr	BASEPRI, r3
 80047ee:	f3bf 8f6f 	isb	sy
 80047f2:	f3bf 8f4f 	dsb	sy
 80047f6:	e7fe      	b.n	80047f6 <vTaskPlaceOnEventList+0x16>
 80047f8:	4b05      	ldr	r3, [pc, #20]	@ (8004810 <vTaskPlaceOnEventList+0x30>)
 80047fa:	6819      	ldr	r1, [r3, #0]
 80047fc:	3118      	adds	r1, #24
 80047fe:	f7ff f926 	bl	8003a4e <vListInsert>
 8004802:	4620      	mov	r0, r4
 8004804:	e8bd 4010 	ldmia.w	sp!, {r4, lr}
 8004808:	2101      	movs	r1, #1
 800480a:	f7ff bcbf 	b.w	800418c <prvAddCurrentTaskToDelayedList>
 800480e:	bf00      	nop
 8004810:	20001260 	.word	0x20001260

08004814 <vTaskPlaceOnEventListRestricted>:
 8004814:	b538      	push	{r3, r4, r5, lr}
 8004816:	460d      	mov	r5, r1
 8004818:	4614      	mov	r4, r2
 800481a:	b940      	cbnz	r0, 800482e <vTaskPlaceOnEventListRestricted+0x1a>
 800481c:	f04f 0350 	mov.w	r3, #80	@ 0x50
 8004820:	f383 8811 	msr	BASEPRI, r3
 8004824:	f3bf 8f6f 	isb	sy
 8004828:	f3bf 8f4f 	dsb	sy
 800482c:	e7fe      	b.n	800482c <vTaskPlaceOnEventListRestricted+0x18>
 800482e:	4b08      	ldr	r3, [pc, #32]	@ (8004850 <vTaskPlaceOnEventListRestricted+0x3c>)
 8004830:	6819      	ldr	r1, [r3, #0]
 8004832:	3118      	adds	r1, #24
 8004834:	f7ff f900 	bl	8003a38 <vListInsertEnd>
 8004838:	2c00      	cmp	r4, #0
 800483a:	4621      	mov	r1, r4
 800483c:	bf08      	it	eq
 800483e:	4628      	moveq	r0, r5
 8004840:	e8bd 4038 	ldmia.w	sp!, {r3, r4, r5, lr}
 8004844:	bf18      	it	ne
 8004846:	f04f 30ff 	movne.w	r0, #4294967295
 800484a:	f7ff bc9f 	b.w	800418c <prvAddCurrentTaskToDelayedList>
 800484e:	bf00      	nop
 8004850:	20001260 	.word	0x20001260

08004854 <xTaskRemoveFromEventList>:
 8004854:	b538      	push	{r3, r4, r5, lr}
 8004856:	68c3      	ldr	r3, [r0, #12]
 8004858:	68dc      	ldr	r4, [r3, #12]
 800485a:	b944      	cbnz	r4, 800486e <xTaskRemoveFromEventList+0x1a>
 800485c:	f04f 0350 	mov.w	r3, #80	@ 0x50
 8004860:	f383 8811 	msr	BASEPRI, r3
 8004864:	f3bf 8f6f 	isb	sy
 8004868:	f3bf 8f4f 	dsb	sy
 800486c:	e7fe      	b.n	800486c <xTaskRemoveFromEventList+0x18>
 800486e:	f104 0518 	add.w	r5, r4, #24
 8004872:	4628      	mov	r0, r5
 8004874:	f7ff f902 	bl	8003a7c <uxListRemove>
 8004878:	4b10      	ldr	r3, [pc, #64]	@ (80048bc <xTaskRemoveFromEventList+0x68>)
 800487a:	681b      	ldr	r3, [r3, #0]
 800487c:	b9db      	cbnz	r3, 80048b6 <xTaskRemoveFromEventList+0x62>
 800487e:	1d25      	adds	r5, r4, #4
 8004880:	4628      	mov	r0, r5
 8004882:	f7ff f8fb 	bl	8003a7c <uxListRemove>
 8004886:	4a0e      	ldr	r2, [pc, #56]	@ (80048c0 <xTaskRemoveFromEventList+0x6c>)
 8004888:	2014      	movs	r0, #20
 800488a:	6811      	ldr	r1, [r2, #0]
 800488c:	6ae3      	ldr	r3, [r4, #44]	@ 0x2c
 800488e:	428b      	cmp	r3, r1
 8004890:	4629      	mov	r1, r5
 8004892:	bf88      	it	hi
 8004894:	6013      	strhi	r3, [r2, #0]
 8004896:	4a0b      	ldr	r2, [pc, #44]	@ (80048c4 <xTaskRemoveFromEventList+0x70>)
 8004898:	fb00 2003 	mla	r0, r0, r3, r2
 800489c:	f7ff f8cc 	bl	8003a38 <vListInsertEnd>
 80048a0:	4b09      	ldr	r3, [pc, #36]	@ (80048c8 <xTaskRemoveFromEventList+0x74>)
 80048a2:	6ae2      	ldr	r2, [r4, #44]	@ 0x2c
 80048a4:	681b      	ldr	r3, [r3, #0]
 80048a6:	6adb      	ldr	r3, [r3, #44]	@ 0x2c
 80048a8:	429a      	cmp	r2, r3
 80048aa:	bf85      	ittet	hi
 80048ac:	2001      	movhi	r0, #1
 80048ae:	4b07      	ldrhi	r3, [pc, #28]	@ (80048cc <xTaskRemoveFromEventList+0x78>)
 80048b0:	2000      	movls	r0, #0
 80048b2:	6018      	strhi	r0, [r3, #0]
 80048b4:	bd38      	pop	{r3, r4, r5, pc}
 80048b6:	4629      	mov	r1, r5
 80048b8:	4805      	ldr	r0, [pc, #20]	@ (80048d0 <xTaskRemoveFromEventList+0x7c>)
 80048ba:	e7ef      	b.n	800489c <xTaskRemoveFromEventList+0x48>
 80048bc:	20000d68 	.word	0x20000d68
 80048c0:	20000d84 	.word	0x20000d84
 80048c4:	20000e00 	.word	0x20000e00
 80048c8:	20001260 	.word	0x20001260
 80048cc:	20000d78 	.word	0x20000d78
 80048d0:	20000dbc 	.word	0x20000dbc

080048d4 <vTaskInternalSetTimeOutState>:
 80048d4:	4b03      	ldr	r3, [pc, #12]	@ (80048e4 <vTaskInternalSetTimeOutState+0x10>)
 80048d6:	681b      	ldr	r3, [r3, #0]
 80048d8:	6003      	str	r3, [r0, #0]
 80048da:	4b03      	ldr	r3, [pc, #12]	@ (80048e8 <vTaskInternalSetTimeOutState+0x14>)
 80048dc:	681b      	ldr	r3, [r3, #0]
 80048de:	6043      	str	r3, [r0, #4]
 80048e0:	4770      	bx	lr
 80048e2:	bf00      	nop
 80048e4:	20000d74 	.word	0x20000d74
 80048e8:	20000d88 	.word	0x20000d88

080048ec <xTaskCheckForTimeOut>:
 80048ec:	b570      	push	{r4, r5, r6, lr}
 80048ee:	460c      	mov	r4, r1
 80048f0:	4605      	mov	r5, r0
 80048f2:	b940      	cbnz	r0, 8004906 <xTaskCheckForTimeOut+0x1a>
 80048f4:	f04f 0350 	mov.w	r3, #80	@ 0x50
 80048f8:	f383 8811 	msr	BASEPRI, r3
 80048fc:	f3bf 8f6f 	isb	sy
 8004900:	f3bf 8f4f 	dsb	sy
 8004904:	e7fe      	b.n	8004904 <xTaskCheckForTimeOut+0x18>
 8004906:	b941      	cbnz	r1, 800491a <xTaskCheckForTimeOut+0x2e>
 8004908:	f04f 0350 	mov.w	r3, #80	@ 0x50
 800490c:	f383 8811 	msr	BASEPRI, r3
 8004910:	f3bf 8f6f 	isb	sy
 8004914:	f3bf 8f4f 	dsb	sy
 8004918:	e7fe      	b.n	8004918 <xTaskCheckForTimeOut+0x2c>
 800491a:	f000 fabb 	bl	8004e94 <vPortEnterCritical>
 800491e:	4b0f      	ldr	r3, [pc, #60]	@ (800495c <xTaskCheckForTimeOut+0x70>)
 8004920:	6819      	ldr	r1, [r3, #0]
 8004922:	6823      	ldr	r3, [r4, #0]
 8004924:	1c5a      	adds	r2, r3, #1
 8004926:	d010      	beq.n	800494a <xTaskCheckForTimeOut+0x5e>
 8004928:	480d      	ldr	r0, [pc, #52]	@ (8004960 <xTaskCheckForTimeOut+0x74>)
 800492a:	682e      	ldr	r6, [r5, #0]
 800492c:	6800      	ldr	r0, [r0, #0]
 800492e:	686a      	ldr	r2, [r5, #4]
 8004930:	4286      	cmp	r6, r0
 8004932:	d001      	beq.n	8004938 <xTaskCheckForTimeOut+0x4c>
 8004934:	428a      	cmp	r2, r1
 8004936:	d90f      	bls.n	8004958 <xTaskCheckForTimeOut+0x6c>
 8004938:	1a88      	subs	r0, r1, r2
 800493a:	4283      	cmp	r3, r0
 800493c:	d90a      	bls.n	8004954 <xTaskCheckForTimeOut+0x68>
 800493e:	1a5b      	subs	r3, r3, r1
 8004940:	4413      	add	r3, r2
 8004942:	4628      	mov	r0, r5
 8004944:	6023      	str	r3, [r4, #0]
 8004946:	f7ff ffc5 	bl	80048d4 <vTaskInternalSetTimeOutState>
 800494a:	2400      	movs	r4, #0
 800494c:	f000 fac2 	bl	8004ed4 <vPortExitCritical>
 8004950:	4620      	mov	r0, r4
 8004952:	bd70      	pop	{r4, r5, r6, pc}
 8004954:	2300      	movs	r3, #0
 8004956:	6023      	str	r3, [r4, #0]
 8004958:	2401      	movs	r4, #1
 800495a:	e7f7      	b.n	800494c <xTaskCheckForTimeOut+0x60>
 800495c:	20000d88 	.word	0x20000d88
 8004960:	20000d74 	.word	0x20000d74

08004964 <vTaskMissedYield>:
 8004964:	2201      	movs	r2, #1
 8004966:	4b01      	ldr	r3, [pc, #4]	@ (800496c <vTaskMissedYield+0x8>)
 8004968:	601a      	str	r2, [r3, #0]
 800496a:	4770      	bx	lr
 800496c:	20000d78 	.word	0x20000d78

08004970 <xTaskGetSchedulerState>:
 8004970:	4b05      	ldr	r3, [pc, #20]	@ (8004988 <xTaskGetSchedulerState+0x18>)
 8004972:	681b      	ldr	r3, [r3, #0]
 8004974:	b133      	cbz	r3, 8004984 <xTaskGetSchedulerState+0x14>
 8004976:	4b05      	ldr	r3, [pc, #20]	@ (800498c <xTaskGetSchedulerState+0x1c>)
 8004978:	6818      	ldr	r0, [r3, #0]
 800497a:	fab0 f080 	clz	r0, r0
 800497e:	0940      	lsrs	r0, r0, #5
 8004980:	0040      	lsls	r0, r0, #1
 8004982:	4770      	bx	lr
 8004984:	2001      	movs	r0, #1
 8004986:	4770      	bx	lr
 8004988:	20000d80 	.word	0x20000d80
 800498c:	20000d68 	.word	0x20000d68

08004990 <xTaskPriorityDisinherit>:
 8004990:	b538      	push	{r3, r4, r5, lr}
 8004992:	b908      	cbnz	r0, 8004998 <xTaskPriorityDisinherit+0x8>
 8004994:	2000      	movs	r0, #0
 8004996:	bd38      	pop	{r3, r4, r5, pc}
 8004998:	4b1b      	ldr	r3, [pc, #108]	@ (8004a08 <xTaskPriorityDisinherit+0x78>)
 800499a:	681c      	ldr	r4, [r3, #0]
 800499c:	4284      	cmp	r4, r0
 800499e:	d008      	beq.n	80049b2 <xTaskPriorityDisinherit+0x22>
 80049a0:	f04f 0350 	mov.w	r3, #80	@ 0x50
 80049a4:	f383 8811 	msr	BASEPRI, r3
 80049a8:	f3bf 8f6f 	isb	sy
 80049ac:	f3bf 8f4f 	dsb	sy
 80049b0:	e7fe      	b.n	80049b0 <xTaskPriorityDisinherit+0x20>
 80049b2:	6d23      	ldr	r3, [r4, #80]	@ 0x50
 80049b4:	b943      	cbnz	r3, 80049c8 <xTaskPriorityDisinherit+0x38>
 80049b6:	f04f 0350 	mov.w	r3, #80	@ 0x50
 80049ba:	f383 8811 	msr	BASEPRI, r3
 80049be:	f3bf 8f6f 	isb	sy
 80049c2:	f3bf 8f4f 	dsb	sy
 80049c6:	e7fe      	b.n	80049c6 <xTaskPriorityDisinherit+0x36>
 80049c8:	6ae1      	ldr	r1, [r4, #44]	@ 0x2c
 80049ca:	6ce2      	ldr	r2, [r4, #76]	@ 0x4c
 80049cc:	3b01      	subs	r3, #1
 80049ce:	4291      	cmp	r1, r2
 80049d0:	6523      	str	r3, [r4, #80]	@ 0x50
 80049d2:	d0df      	beq.n	8004994 <xTaskPriorityDisinherit+0x4>
 80049d4:	2b00      	cmp	r3, #0
 80049d6:	d1dd      	bne.n	8004994 <xTaskPriorityDisinherit+0x4>
 80049d8:	1d25      	adds	r5, r4, #4
 80049da:	4628      	mov	r0, r5
 80049dc:	f7ff f84e 	bl	8003a7c <uxListRemove>
 80049e0:	2014      	movs	r0, #20
 80049e2:	6ce3      	ldr	r3, [r4, #76]	@ 0x4c
 80049e4:	f1c3 0238 	rsb	r2, r3, #56	@ 0x38
 80049e8:	61a2      	str	r2, [r4, #24]
 80049ea:	4a08      	ldr	r2, [pc, #32]	@ (8004a0c <xTaskPriorityDisinherit+0x7c>)
 80049ec:	62e3      	str	r3, [r4, #44]	@ 0x2c
 80049ee:	6811      	ldr	r1, [r2, #0]
 80049f0:	428b      	cmp	r3, r1
 80049f2:	bf88      	it	hi
 80049f4:	6013      	strhi	r3, [r2, #0]
 80049f6:	4a06      	ldr	r2, [pc, #24]	@ (8004a10 <xTaskPriorityDisinherit+0x80>)
 80049f8:	4629      	mov	r1, r5
 80049fa:	fb00 2003 	mla	r0, r0, r3, r2
 80049fe:	f7ff f81b 	bl	8003a38 <vListInsertEnd>
 8004a02:	2001      	movs	r0, #1
 8004a04:	e7c7      	b.n	8004996 <xTaskPriorityDisinherit+0x6>
 8004a06:	bf00      	nop
 8004a08:	20001260 	.word	0x20001260
 8004a0c:	20000d84 	.word	0x20000d84
 8004a10:	20000e00 	.word	0x20000e00

08004a14 <prvInsertTimerInActiveList>:
 8004a14:	4291      	cmp	r1, r2
 8004a16:	b508      	push	{r3, lr}
 8004a18:	6041      	str	r1, [r0, #4]
 8004a1a:	6100      	str	r0, [r0, #16]
 8004a1c:	d80a      	bhi.n	8004a34 <prvInsertTimerInActiveList+0x20>
 8004a1e:	1ad2      	subs	r2, r2, r3
 8004a20:	6983      	ldr	r3, [r0, #24]
 8004a22:	429a      	cmp	r2, r3
 8004a24:	d20d      	bcs.n	8004a42 <prvInsertTimerInActiveList+0x2e>
 8004a26:	4b08      	ldr	r3, [pc, #32]	@ (8004a48 <prvInsertTimerInActiveList+0x34>)
 8004a28:	1d01      	adds	r1, r0, #4
 8004a2a:	6818      	ldr	r0, [r3, #0]
 8004a2c:	f7ff f80f 	bl	8003a4e <vListInsert>
 8004a30:	2000      	movs	r0, #0
 8004a32:	bd08      	pop	{r3, pc}
 8004a34:	429a      	cmp	r2, r3
 8004a36:	d201      	bcs.n	8004a3c <prvInsertTimerInActiveList+0x28>
 8004a38:	4299      	cmp	r1, r3
 8004a3a:	d202      	bcs.n	8004a42 <prvInsertTimerInActiveList+0x2e>
 8004a3c:	4b03      	ldr	r3, [pc, #12]	@ (8004a4c <prvInsertTimerInActiveList+0x38>)
 8004a3e:	1d01      	adds	r1, r0, #4
 8004a40:	e7f3      	b.n	8004a2a <prvInsertTimerInActiveList+0x16>
 8004a42:	2001      	movs	r0, #1
 8004a44:	e7f5      	b.n	8004a32 <prvInsertTimerInActiveList+0x1e>
 8004a46:	bf00      	nop
 8004a48:	20001360 	.word	0x20001360
 8004a4c:	20001364 	.word	0x20001364

08004a50 <prvCheckForValidListAndQueue>:
 8004a50:	b5f7      	push	{r0, r1, r2, r4, r5, r6, r7, lr}
 8004a52:	4c11      	ldr	r4, [pc, #68]	@ (8004a98 <prvCheckForValidListAndQueue+0x48>)
 8004a54:	f000 fa1e 	bl	8004e94 <vPortEnterCritical>
 8004a58:	6825      	ldr	r5, [r4, #0]
 8004a5a:	b9bd      	cbnz	r5, 8004a8c <prvCheckForValidListAndQueue+0x3c>
 8004a5c:	4f0f      	ldr	r7, [pc, #60]	@ (8004a9c <prvCheckForValidListAndQueue+0x4c>)
 8004a5e:	4e10      	ldr	r6, [pc, #64]	@ (8004aa0 <prvCheckForValidListAndQueue+0x50>)
 8004a60:	4638      	mov	r0, r7
 8004a62:	f7fe ffdb 	bl	8003a1c <vListInitialise>
 8004a66:	4630      	mov	r0, r6
 8004a68:	f7fe ffd8 	bl	8003a1c <vListInitialise>
 8004a6c:	4b0d      	ldr	r3, [pc, #52]	@ (8004aa4 <prvCheckForValidListAndQueue+0x54>)
 8004a6e:	2110      	movs	r1, #16
 8004a70:	601f      	str	r7, [r3, #0]
 8004a72:	4b0d      	ldr	r3, [pc, #52]	@ (8004aa8 <prvCheckForValidListAndQueue+0x58>)
 8004a74:	200a      	movs	r0, #10
 8004a76:	601e      	str	r6, [r3, #0]
 8004a78:	4a0c      	ldr	r2, [pc, #48]	@ (8004aac <prvCheckForValidListAndQueue+0x5c>)
 8004a7a:	4b0d      	ldr	r3, [pc, #52]	@ (8004ab0 <prvCheckForValidListAndQueue+0x60>)
 8004a7c:	9500      	str	r5, [sp, #0]
 8004a7e:	f7ff f8d4 	bl	8003c2a <xQueueGenericCreateStatic>
 8004a82:	6020      	str	r0, [r4, #0]
 8004a84:	b110      	cbz	r0, 8004a8c <prvCheckForValidListAndQueue+0x3c>
 8004a86:	490b      	ldr	r1, [pc, #44]	@ (8004ab4 <prvCheckForValidListAndQueue+0x64>)
 8004a88:	f7ff faca 	bl	8004020 <vQueueAddToRegistry>
 8004a8c:	b003      	add	sp, #12
 8004a8e:	e8bd 40f0 	ldmia.w	sp!, {r4, r5, r6, r7, lr}
 8004a92:	f000 ba1f 	b.w	8004ed4 <vPortExitCritical>
 8004a96:	bf00      	nop
 8004a98:	2000135c 	.word	0x2000135c
 8004a9c:	2000137c 	.word	0x2000137c
 8004aa0:	20001368 	.word	0x20001368
 8004aa4:	20001364 	.word	0x20001364
 8004aa8:	20001360 	.word	0x20001360
 8004aac:	200012b4 	.word	0x200012b4
 8004ab0:	20001264 	.word	0x20001264
 8004ab4:	08009baf 	.word	0x08009baf

08004ab8 <xTimerCreateTimerTask>:
 8004ab8:	b510      	push	{r4, lr}
 8004aba:	b088      	sub	sp, #32
 8004abc:	f7ff ffc8 	bl	8004a50 <prvCheckForValidListAndQueue>
 8004ac0:	4b12      	ldr	r3, [pc, #72]	@ (8004b0c <xTimerCreateTimerTask+0x54>)
 8004ac2:	681b      	ldr	r3, [r3, #0]
 8004ac4:	b1b3      	cbz	r3, 8004af4 <xTimerCreateTimerTask+0x3c>
 8004ac6:	2400      	movs	r4, #0
 8004ac8:	aa07      	add	r2, sp, #28
 8004aca:	a906      	add	r1, sp, #24
 8004acc:	a805      	add	r0, sp, #20
 8004ace:	e9cd 4405 	strd	r4, r4, [sp, #20]
 8004ad2:	f7fe ff97 	bl	8003a04 <vApplicationGetTimerTaskMemory>
 8004ad6:	9b05      	ldr	r3, [sp, #20]
 8004ad8:	9a07      	ldr	r2, [sp, #28]
 8004ada:	9302      	str	r3, [sp, #8]
 8004adc:	9b06      	ldr	r3, [sp, #24]
 8004ade:	490c      	ldr	r1, [pc, #48]	@ (8004b10 <xTimerCreateTimerTask+0x58>)
 8004ae0:	9301      	str	r3, [sp, #4]
 8004ae2:	2302      	movs	r3, #2
 8004ae4:	480b      	ldr	r0, [pc, #44]	@ (8004b14 <xTimerCreateTimerTask+0x5c>)
 8004ae6:	9300      	str	r3, [sp, #0]
 8004ae8:	4623      	mov	r3, r4
 8004aea:	f7ff fc43 	bl	8004374 <xTaskCreateStatic>
 8004aee:	4b0a      	ldr	r3, [pc, #40]	@ (8004b18 <xTimerCreateTimerTask+0x60>)
 8004af0:	6018      	str	r0, [r3, #0]
 8004af2:	b940      	cbnz	r0, 8004b06 <xTimerCreateTimerTask+0x4e>
 8004af4:	f04f 0350 	mov.w	r3, #80	@ 0x50
 8004af8:	f383 8811 	msr	BASEPRI, r3
 8004afc:	f3bf 8f6f 	isb	sy
 8004b00:	f3bf 8f4f 	dsb	sy
 8004b04:	e7fe      	b.n	8004b04 <xTimerCreateTimerTask+0x4c>
 8004b06:	2001      	movs	r0, #1
 8004b08:	b008      	add	sp, #32
 8004b0a:	bd10      	pop	{r4, pc}
 8004b0c:	2000135c 	.word	0x2000135c
 8004b10:	08009bb4 	.word	0x08009bb4
 8004b14:	08004c19 	.word	0x08004c19
 8004b18:	20001358 	.word	0x20001358

08004b1c <xTimerGenericCommand>:
 8004b1c:	b57f      	push	{r0, r1, r2, r3, r4, r5, r6, lr}
 8004b1e:	4616      	mov	r6, r2
 8004b20:	4604      	mov	r4, r0
 8004b22:	461a      	mov	r2, r3
 8004b24:	b940      	cbnz	r0, 8004b38 <xTimerGenericCommand+0x1c>
 8004b26:	f04f 0350 	mov.w	r3, #80	@ 0x50
 8004b2a:	f383 8811 	msr	BASEPRI, r3
 8004b2e:	f3bf 8f6f 	isb	sy
 8004b32:	f3bf 8f4f 	dsb	sy
 8004b36:	e7fe      	b.n	8004b36 <xTimerGenericCommand+0x1a>
 8004b38:	4d0d      	ldr	r5, [pc, #52]	@ (8004b70 <xTimerGenericCommand+0x54>)
 8004b3a:	6828      	ldr	r0, [r5, #0]
 8004b3c:	b180      	cbz	r0, 8004b60 <xTimerGenericCommand+0x44>
 8004b3e:	2905      	cmp	r1, #5
 8004b40:	e9cd 1600 	strd	r1, r6, [sp]
 8004b44:	9402      	str	r4, [sp, #8]
 8004b46:	dc0d      	bgt.n	8004b64 <xTimerGenericCommand+0x48>
 8004b48:	f7ff ff12 	bl	8004970 <xTaskGetSchedulerState>
 8004b4c:	2300      	movs	r3, #0
 8004b4e:	2802      	cmp	r0, #2
 8004b50:	bf18      	it	ne
 8004b52:	461a      	movne	r2, r3
 8004b54:	4669      	mov	r1, sp
 8004b56:	bf08      	it	eq
 8004b58:	9a08      	ldreq	r2, [sp, #32]
 8004b5a:	6828      	ldr	r0, [r5, #0]
 8004b5c:	f7ff f8b3 	bl	8003cc6 <xQueueGenericSend>
 8004b60:	b004      	add	sp, #16
 8004b62:	bd70      	pop	{r4, r5, r6, pc}
 8004b64:	2300      	movs	r3, #0
 8004b66:	4669      	mov	r1, sp
 8004b68:	f7ff f95f 	bl	8003e2a <xQueueGenericSendFromISR>
 8004b6c:	e7f8      	b.n	8004b60 <xTimerGenericCommand+0x44>
 8004b6e:	bf00      	nop
 8004b70:	2000135c 	.word	0x2000135c

08004b74 <prvSampleTimeNow>:
 8004b74:	e92d 47f3 	stmdb	sp!, {r0, r1, r4, r5, r6, r7, r8, r9, sl, lr}
 8004b78:	4606      	mov	r6, r0
 8004b7a:	f7ff fcb9 	bl	80044f0 <xTaskGetTickCount>
 8004b7e:	f8df 808c 	ldr.w	r8, [pc, #140]	@ 8004c0c <prvSampleTimeNow+0x98>
 8004b82:	4605      	mov	r5, r0
 8004b84:	f8d8 3000 	ldr.w	r3, [r8]
 8004b88:	4283      	cmp	r3, r0
 8004b8a:	d909      	bls.n	8004ba0 <prvSampleTimeNow+0x2c>
 8004b8c:	4f20      	ldr	r7, [pc, #128]	@ (8004c10 <prvSampleTimeNow+0x9c>)
 8004b8e:	683b      	ldr	r3, [r7, #0]
 8004b90:	681a      	ldr	r2, [r3, #0]
 8004b92:	b96a      	cbnz	r2, 8004bb0 <prvSampleTimeNow+0x3c>
 8004b94:	4a1f      	ldr	r2, [pc, #124]	@ (8004c14 <prvSampleTimeNow+0xa0>)
 8004b96:	6811      	ldr	r1, [r2, #0]
 8004b98:	6013      	str	r3, [r2, #0]
 8004b9a:	6039      	str	r1, [r7, #0]
 8004b9c:	2301      	movs	r3, #1
 8004b9e:	e000      	b.n	8004ba2 <prvSampleTimeNow+0x2e>
 8004ba0:	2300      	movs	r3, #0
 8004ba2:	4628      	mov	r0, r5
 8004ba4:	6033      	str	r3, [r6, #0]
 8004ba6:	f8c8 5000 	str.w	r5, [r8]
 8004baa:	b002      	add	sp, #8
 8004bac:	e8bd 87f0 	ldmia.w	sp!, {r4, r5, r6, r7, r8, r9, sl, pc}
 8004bb0:	68db      	ldr	r3, [r3, #12]
 8004bb2:	68dc      	ldr	r4, [r3, #12]
 8004bb4:	f8d3 9000 	ldr.w	r9, [r3]
 8004bb8:	f104 0a04 	add.w	sl, r4, #4
 8004bbc:	4650      	mov	r0, sl
 8004bbe:	f7fe ff5d 	bl	8003a7c <uxListRemove>
 8004bc2:	6a23      	ldr	r3, [r4, #32]
 8004bc4:	4620      	mov	r0, r4
 8004bc6:	4798      	blx	r3
 8004bc8:	f894 3028 	ldrb.w	r3, [r4, #40]	@ 0x28
 8004bcc:	075b      	lsls	r3, r3, #29
 8004bce:	d5de      	bpl.n	8004b8e <prvSampleTimeNow+0x1a>
 8004bd0:	69a3      	ldr	r3, [r4, #24]
 8004bd2:	444b      	add	r3, r9
 8004bd4:	4599      	cmp	r9, r3
 8004bd6:	d206      	bcs.n	8004be6 <prvSampleTimeNow+0x72>
 8004bd8:	4651      	mov	r1, sl
 8004bda:	6838      	ldr	r0, [r7, #0]
 8004bdc:	6063      	str	r3, [r4, #4]
 8004bde:	6124      	str	r4, [r4, #16]
 8004be0:	f7fe ff35 	bl	8003a4e <vListInsert>
 8004be4:	e7d3      	b.n	8004b8e <prvSampleTimeNow+0x1a>
 8004be6:	2300      	movs	r3, #0
 8004be8:	464a      	mov	r2, r9
 8004bea:	4619      	mov	r1, r3
 8004bec:	4620      	mov	r0, r4
 8004bee:	9300      	str	r3, [sp, #0]
 8004bf0:	f7ff ff94 	bl	8004b1c <xTimerGenericCommand>
 8004bf4:	2800      	cmp	r0, #0
 8004bf6:	d1ca      	bne.n	8004b8e <prvSampleTimeNow+0x1a>
 8004bf8:	f04f 0350 	mov.w	r3, #80	@ 0x50
 8004bfc:	f383 8811 	msr	BASEPRI, r3
 8004c00:	f3bf 8f6f 	isb	sy
 8004c04:	f3bf 8f4f 	dsb	sy
 8004c08:	e7fe      	b.n	8004c08 <prvSampleTimeNow+0x94>
 8004c0a:	bf00      	nop
 8004c0c:	20001354 	.word	0x20001354
 8004c10:	20001364 	.word	0x20001364
 8004c14:	20001360 	.word	0x20001360

08004c18 <prvTimerTask>:
 8004c18:	e92d 43f0 	stmdb	sp!, {r4, r5, r6, r7, r8, r9, lr}
 8004c1c:	4d6e      	ldr	r5, [pc, #440]	@ (8004dd8 <prvTimerTask+0x1c0>)
 8004c1e:	4e6f      	ldr	r6, [pc, #444]	@ (8004ddc <prvTimerTask+0x1c4>)
 8004c20:	b089      	sub	sp, #36	@ 0x24
 8004c22:	682b      	ldr	r3, [r5, #0]
 8004c24:	f8d3 8000 	ldr.w	r8, [r3]
 8004c28:	f1b8 0f00 	cmp.w	r8, #0
 8004c2c:	d035      	beq.n	8004c9a <prvTimerTask+0x82>
 8004c2e:	2400      	movs	r4, #0
 8004c30:	68db      	ldr	r3, [r3, #12]
 8004c32:	f8d3 8000 	ldr.w	r8, [r3]
 8004c36:	f7ff fc53 	bl	80044e0 <vTaskSuspendAll>
 8004c3a:	a804      	add	r0, sp, #16
 8004c3c:	f7ff ff9a 	bl	8004b74 <prvSampleTimeNow>
 8004c40:	9b04      	ldr	r3, [sp, #16]
 8004c42:	4681      	mov	r9, r0
 8004c44:	2b00      	cmp	r3, #0
 8004c46:	d169      	bne.n	8004d1c <prvTimerTask+0x104>
 8004c48:	2c00      	cmp	r4, #0
 8004c4a:	d14c      	bne.n	8004ce6 <prvTimerTask+0xce>
 8004c4c:	4540      	cmp	r0, r8
 8004c4e:	d350      	bcc.n	8004cf2 <prvTimerTask+0xda>
 8004c50:	f7ff fcec 	bl	800462c <xTaskResumeAll>
 8004c54:	682b      	ldr	r3, [r5, #0]
 8004c56:	68db      	ldr	r3, [r3, #12]
 8004c58:	68df      	ldr	r7, [r3, #12]
 8004c5a:	1d38      	adds	r0, r7, #4
 8004c5c:	f7fe ff0e 	bl	8003a7c <uxListRemove>
 8004c60:	f897 3028 	ldrb.w	r3, [r7, #40]	@ 0x28
 8004c64:	0758      	lsls	r0, r3, #29
 8004c66:	d51a      	bpl.n	8004c9e <prvTimerTask+0x86>
 8004c68:	69b9      	ldr	r1, [r7, #24]
 8004c6a:	4643      	mov	r3, r8
 8004c6c:	464a      	mov	r2, r9
 8004c6e:	4638      	mov	r0, r7
 8004c70:	4441      	add	r1, r8
 8004c72:	f7ff fecf 	bl	8004a14 <prvInsertTimerInActiveList>
 8004c76:	b1b0      	cbz	r0, 8004ca6 <prvTimerTask+0x8e>
 8004c78:	4623      	mov	r3, r4
 8004c7a:	4642      	mov	r2, r8
 8004c7c:	4621      	mov	r1, r4
 8004c7e:	4638      	mov	r0, r7
 8004c80:	9400      	str	r4, [sp, #0]
 8004c82:	f7ff ff4b 	bl	8004b1c <xTimerGenericCommand>
 8004c86:	b970      	cbnz	r0, 8004ca6 <prvTimerTask+0x8e>
 8004c88:	f04f 0350 	mov.w	r3, #80	@ 0x50
 8004c8c:	f383 8811 	msr	BASEPRI, r3
 8004c90:	f3bf 8f6f 	isb	sy
 8004c94:	f3bf 8f4f 	dsb	sy
 8004c98:	e7fe      	b.n	8004c98 <prvTimerTask+0x80>
 8004c9a:	2401      	movs	r4, #1
 8004c9c:	e7cb      	b.n	8004c36 <prvTimerTask+0x1e>
 8004c9e:	f023 0301 	bic.w	r3, r3, #1
 8004ca2:	f887 3028 	strb.w	r3, [r7, #40]	@ 0x28
 8004ca6:	4638      	mov	r0, r7
 8004ca8:	6a3b      	ldr	r3, [r7, #32]
 8004caa:	4798      	blx	r3
 8004cac:	2200      	movs	r2, #0
 8004cae:	6830      	ldr	r0, [r6, #0]
 8004cb0:	a904      	add	r1, sp, #16
 8004cb2:	f7ff f917 	bl	8003ee4 <xQueueReceive>
 8004cb6:	2800      	cmp	r0, #0
 8004cb8:	d0b3      	beq.n	8004c22 <prvTimerTask+0xa>
 8004cba:	9b04      	ldr	r3, [sp, #16]
 8004cbc:	9806      	ldr	r0, [sp, #24]
 8004cbe:	2b00      	cmp	r3, #0
 8004cc0:	db2f      	blt.n	8004d22 <prvTimerTask+0x10a>
 8004cc2:	9c06      	ldr	r4, [sp, #24]
 8004cc4:	6963      	ldr	r3, [r4, #20]
 8004cc6:	2b00      	cmp	r3, #0
 8004cc8:	d132      	bne.n	8004d30 <prvTimerTask+0x118>
 8004cca:	a803      	add	r0, sp, #12
 8004ccc:	f7ff ff52 	bl	8004b74 <prvSampleTimeNow>
 8004cd0:	9b04      	ldr	r3, [sp, #16]
 8004cd2:	4602      	mov	r2, r0
 8004cd4:	2b09      	cmp	r3, #9
 8004cd6:	d8e9      	bhi.n	8004cac <prvTimerTask+0x94>
 8004cd8:	e8df f003 	tbb	[pc, r3]
 8004cdc:	572e2e2e 	.word	0x572e2e2e
 8004ce0:	2e2e765e 	.word	0x2e2e765e
 8004ce4:	5e57      	.short	0x5e57
 8004ce6:	4b3e      	ldr	r3, [pc, #248]	@ (8004de0 <prvTimerTask+0x1c8>)
 8004ce8:	681b      	ldr	r3, [r3, #0]
 8004cea:	681c      	ldr	r4, [r3, #0]
 8004cec:	fab4 f484 	clz	r4, r4
 8004cf0:	0964      	lsrs	r4, r4, #5
 8004cf2:	4622      	mov	r2, r4
 8004cf4:	6830      	ldr	r0, [r6, #0]
 8004cf6:	eba8 0109 	sub.w	r1, r8, r9
 8004cfa:	f7ff f9a3 	bl	8004044 <vQueueWaitForMessageRestricted>
 8004cfe:	f7ff fc95 	bl	800462c <xTaskResumeAll>
 8004d02:	2800      	cmp	r0, #0
 8004d04:	d1d2      	bne.n	8004cac <prvTimerTask+0x94>
 8004d06:	f04f 23e0 	mov.w	r3, #3758153728	@ 0xe000e000
 8004d0a:	f04f 5280 	mov.w	r2, #268435456	@ 0x10000000
 8004d0e:	f8c3 2d04 	str.w	r2, [r3, #3332]	@ 0xd04
 8004d12:	f3bf 8f4f 	dsb	sy
 8004d16:	f3bf 8f6f 	isb	sy
 8004d1a:	e7c7      	b.n	8004cac <prvTimerTask+0x94>
 8004d1c:	f7ff fc86 	bl	800462c <xTaskResumeAll>
 8004d20:	e7c4      	b.n	8004cac <prvTimerTask+0x94>
 8004d22:	9b05      	ldr	r3, [sp, #20]
 8004d24:	9907      	ldr	r1, [sp, #28]
 8004d26:	4798      	blx	r3
 8004d28:	9b04      	ldr	r3, [sp, #16]
 8004d2a:	2b00      	cmp	r3, #0
 8004d2c:	dbbe      	blt.n	8004cac <prvTimerTask+0x94>
 8004d2e:	e7c8      	b.n	8004cc2 <prvTimerTask+0xaa>
 8004d30:	1d20      	adds	r0, r4, #4
 8004d32:	f7fe fea3 	bl	8003a7c <uxListRemove>
 8004d36:	e7c8      	b.n	8004cca <prvTimerTask+0xb2>
 8004d38:	f894 3028 	ldrb.w	r3, [r4, #40]	@ 0x28
 8004d3c:	69a1      	ldr	r1, [r4, #24]
 8004d3e:	f043 0301 	orr.w	r3, r3, #1
 8004d42:	f884 3028 	strb.w	r3, [r4, #40]	@ 0x28
 8004d46:	9b05      	ldr	r3, [sp, #20]
 8004d48:	4620      	mov	r0, r4
 8004d4a:	4419      	add	r1, r3
 8004d4c:	f7ff fe62 	bl	8004a14 <prvInsertTimerInActiveList>
 8004d50:	2800      	cmp	r0, #0
 8004d52:	d0ab      	beq.n	8004cac <prvTimerTask+0x94>
 8004d54:	6a23      	ldr	r3, [r4, #32]
 8004d56:	4620      	mov	r0, r4
 8004d58:	4798      	blx	r3
 8004d5a:	f894 3028 	ldrb.w	r3, [r4, #40]	@ 0x28
 8004d5e:	0759      	lsls	r1, r3, #29
 8004d60:	d5a4      	bpl.n	8004cac <prvTimerTask+0x94>
 8004d62:	2300      	movs	r3, #0
 8004d64:	69a2      	ldr	r2, [r4, #24]
 8004d66:	9905      	ldr	r1, [sp, #20]
 8004d68:	4620      	mov	r0, r4
 8004d6a:	440a      	add	r2, r1
 8004d6c:	9300      	str	r3, [sp, #0]
 8004d6e:	4619      	mov	r1, r3
 8004d70:	f7ff fed4 	bl	8004b1c <xTimerGenericCommand>
 8004d74:	2800      	cmp	r0, #0
 8004d76:	d199      	bne.n	8004cac <prvTimerTask+0x94>
 8004d78:	f04f 0350 	mov.w	r3, #80	@ 0x50
 8004d7c:	f383 8811 	msr	BASEPRI, r3
 8004d80:	f3bf 8f6f 	isb	sy
 8004d84:	f3bf 8f4f 	dsb	sy
 8004d88:	e7fe      	b.n	8004d88 <prvTimerTask+0x170>
 8004d8a:	f894 3028 	ldrb.w	r3, [r4, #40]	@ 0x28
 8004d8e:	f023 0301 	bic.w	r3, r3, #1
 8004d92:	f884 3028 	strb.w	r3, [r4, #40]	@ 0x28
 8004d96:	e789      	b.n	8004cac <prvTimerTask+0x94>
 8004d98:	f894 3028 	ldrb.w	r3, [r4, #40]	@ 0x28
 8004d9c:	f043 0301 	orr.w	r3, r3, #1
 8004da0:	f884 3028 	strb.w	r3, [r4, #40]	@ 0x28
 8004da4:	9905      	ldr	r1, [sp, #20]
 8004da6:	61a1      	str	r1, [r4, #24]
 8004da8:	b941      	cbnz	r1, 8004dbc <prvTimerTask+0x1a4>
 8004daa:	f04f 0350 	mov.w	r3, #80	@ 0x50
 8004dae:	f383 8811 	msr	BASEPRI, r3
 8004db2:	f3bf 8f6f 	isb	sy
 8004db6:	f3bf 8f4f 	dsb	sy
 8004dba:	e7fe      	b.n	8004dba <prvTimerTask+0x1a2>
 8004dbc:	4603      	mov	r3, r0
 8004dbe:	4401      	add	r1, r0
 8004dc0:	4620      	mov	r0, r4
 8004dc2:	f7ff fe27 	bl	8004a14 <prvInsertTimerInActiveList>
 8004dc6:	e771      	b.n	8004cac <prvTimerTask+0x94>
 8004dc8:	f894 3028 	ldrb.w	r3, [r4, #40]	@ 0x28
 8004dcc:	079a      	lsls	r2, r3, #30
 8004dce:	d4de      	bmi.n	8004d8e <prvTimerTask+0x176>
 8004dd0:	4620      	mov	r0, r4
 8004dd2:	f000 fa23 	bl	800521c <vPortFree>
 8004dd6:	e769      	b.n	8004cac <prvTimerTask+0x94>
 8004dd8:	20001364 	.word	0x20001364
 8004ddc:	2000135c 	.word	0x2000135c
 8004de0:	20001360 	.word	0x20001360

08004de4 <prvPortStartFirstTask>:
 8004de4:	4806      	ldr	r0, [pc, #24]	@ (8004e00 <prvPortStartFirstTask+0x1c>)
 8004de6:	6800      	ldr	r0, [r0, #0]
 8004de8:	6800      	ldr	r0, [r0, #0]
 8004dea:	f380 8808 	msr	MSP, r0
 8004dee:	b662      	cpsie	i
 8004df0:	b661      	cpsie	f
 8004df2:	f3bf 8f4f 	dsb	sy
 8004df6:	f3bf 8f6f 	isb	sy
 8004dfa:	df00      	svc	0
 8004dfc:	bf00      	nop
 8004dfe:	0000      	.short	0x0000
 8004e00:	e000ed08 	.word	0xe000ed08

08004e04 <prvTaskExitError>:
 8004e04:	2300      	movs	r3, #0
 8004e06:	b082      	sub	sp, #8
 8004e08:	9301      	str	r3, [sp, #4]
 8004e0a:	4b0d      	ldr	r3, [pc, #52]	@ (8004e40 <prvTaskExitError+0x3c>)
 8004e0c:	681b      	ldr	r3, [r3, #0]
 8004e0e:	3301      	adds	r3, #1
 8004e10:	d008      	beq.n	8004e24 <prvTaskExitError+0x20>
 8004e12:	f04f 0350 	mov.w	r3, #80	@ 0x50
 8004e16:	f383 8811 	msr	BASEPRI, r3
 8004e1a:	f3bf 8f6f 	isb	sy
 8004e1e:	f3bf 8f4f 	dsb	sy
 8004e22:	e7fe      	b.n	8004e22 <prvTaskExitError+0x1e>
 8004e24:	f04f 0350 	mov.w	r3, #80	@ 0x50
 8004e28:	f383 8811 	msr	BASEPRI, r3
 8004e2c:	f3bf 8f6f 	isb	sy
 8004e30:	f3bf 8f4f 	dsb	sy
 8004e34:	9b01      	ldr	r3, [sp, #4]
 8004e36:	2b00      	cmp	r3, #0
 8004e38:	d0fc      	beq.n	8004e34 <prvTaskExitError+0x30>
 8004e3a:	b002      	add	sp, #8
 8004e3c:	4770      	bx	lr
 8004e3e:	bf00      	nop
 8004e40:	2000000c 	.word	0x2000000c

08004e44 <pxPortInitialiseStack>:
 8004e44:	f04f 7380 	mov.w	r3, #16777216	@ 0x1000000
 8004e48:	f840 3c04 	str.w	r3, [r0, #-4]
 8004e4c:	4b05      	ldr	r3, [pc, #20]	@ (8004e64 <pxPortInitialiseStack+0x20>)
 8004e4e:	f021 0101 	bic.w	r1, r1, #1
 8004e52:	f840 1c08 	str.w	r1, [r0, #-8]
 8004e56:	f840 3c0c 	str.w	r3, [r0, #-12]
 8004e5a:	f840 2c20 	str.w	r2, [r0, #-32]
 8004e5e:	3840      	subs	r0, #64	@ 0x40
 8004e60:	4770      	bx	lr
 8004e62:	bf00      	nop
 8004e64:	08004e05 	.word	0x08004e05
	...

08004e70 <SVC_Handler>:
 8004e70:	4b07      	ldr	r3, [pc, #28]	@ (8004e90 <pxCurrentTCBConst2>)
 8004e72:	6819      	ldr	r1, [r3, #0]
 8004e74:	6808      	ldr	r0, [r1, #0]
 8004e76:	e8b0 0ff0 	ldmia.w	r0!, {r4, r5, r6, r7, r8, r9, sl, fp}
 8004e7a:	f380 8809 	msr	PSP, r0
 8004e7e:	f3bf 8f6f 	isb	sy
 8004e82:	f04f 0000 	mov.w	r0, #0
 8004e86:	f380 8811 	msr	BASEPRI, r0
 8004e8a:	f04e 0e0d 	orr.w	lr, lr, #13
 8004e8e:	4770      	bx	lr

08004e90 <pxCurrentTCBConst2>:
 8004e90:	20001260 	.word	0x20001260

08004e94 <vPortEnterCritical>:
 8004e94:	f04f 0350 	mov.w	r3, #80	@ 0x50
 8004e98:	f383 8811 	msr	BASEPRI, r3
 8004e9c:	f3bf 8f6f 	isb	sy
 8004ea0:	f3bf 8f4f 	dsb	sy
 8004ea4:	4a0a      	ldr	r2, [pc, #40]	@ (8004ed0 <vPortEnterCritical+0x3c>)
 8004ea6:	6813      	ldr	r3, [r2, #0]
 8004ea8:	3301      	adds	r3, #1
 8004eaa:	2b01      	cmp	r3, #1
 8004eac:	6013      	str	r3, [r2, #0]
 8004eae:	d10e      	bne.n	8004ece <vPortEnterCritical+0x3a>
 8004eb0:	f04f 23e0 	mov.w	r3, #3758153728	@ 0xe000e000
 8004eb4:	f8d3 3d04 	ldr.w	r3, [r3, #3332]	@ 0xd04
 8004eb8:	b2db      	uxtb	r3, r3
 8004eba:	b143      	cbz	r3, 8004ece <vPortEnterCritical+0x3a>
 8004ebc:	f04f 0350 	mov.w	r3, #80	@ 0x50
 8004ec0:	f383 8811 	msr	BASEPRI, r3
 8004ec4:	f3bf 8f6f 	isb	sy
 8004ec8:	f3bf 8f4f 	dsb	sy
 8004ecc:	e7fe      	b.n	8004ecc <vPortEnterCritical+0x38>
 8004ece:	4770      	bx	lr
 8004ed0:	2000000c 	.word	0x2000000c

08004ed4 <vPortExitCritical>:
 8004ed4:	4a08      	ldr	r2, [pc, #32]	@ (8004ef8 <vPortExitCritical+0x24>)
 8004ed6:	6813      	ldr	r3, [r2, #0]
 8004ed8:	b943      	cbnz	r3, 8004eec <vPortExitCritical+0x18>
 8004eda:	f04f 0350 	mov.w	r3, #80	@ 0x50
 8004ede:	f383 8811 	msr	BASEPRI, r3
 8004ee2:	f3bf 8f6f 	isb	sy
 8004ee6:	f3bf 8f4f 	dsb	sy
 8004eea:	e7fe      	b.n	8004eea <vPortExitCritical+0x16>
 8004eec:	3b01      	subs	r3, #1
 8004eee:	6013      	str	r3, [r2, #0]
 8004ef0:	b90b      	cbnz	r3, 8004ef6 <vPortExitCritical+0x22>
 8004ef2:	f383 8811 	msr	BASEPRI, r3
 8004ef6:	4770      	bx	lr
 8004ef8:	2000000c 	.word	0x2000000c
 8004efc:	00000000 	.word	0x00000000

08004f00 <PendSV_Handler>:
 8004f00:	f3ef 8009 	mrs	r0, PSP
 8004f04:	f3bf 8f6f 	isb	sy
 8004f08:	4b0d      	ldr	r3, [pc, #52]	@ (8004f40 <pxCurrentTCBConst>)
 8004f0a:	681a      	ldr	r2, [r3, #0]
 8004f0c:	e920 0ff0 	stmdb	r0!, {r4, r5, r6, r7, r8, r9, sl, fp}
 8004f10:	6010      	str	r0, [r2, #0]
 8004f12:	e92d 4008 	stmdb	sp!, {r3, lr}
 8004f16:	f04f 0050 	mov.w	r0, #80	@ 0x50
 8004f1a:	f380 8811 	msr	BASEPRI, r0
 8004f1e:	f7ff fc1d 	bl	800475c <vTaskSwitchContext>
 8004f22:	f04f 0000 	mov.w	r0, #0
 8004f26:	f380 8811 	msr	BASEPRI, r0
 8004f2a:	e8bd 4008 	ldmia.w	sp!, {r3, lr}
 8004f2e:	6819      	ldr	r1, [r3, #0]
 8004f30:	6808      	ldr	r0, [r1, #0]
 8004f32:	e8b0 0ff0 	ldmia.w	r0!, {r4, r5, r6, r7, r8, r9, sl, fp}
 8004f36:	f380 8809 	msr	PSP, r0
 8004f3a:	f3bf 8f6f 	isb	sy
 8004f3e:	4770      	bx	lr

08004f40 <pxCurrentTCBConst>:
 8004f40:	20001260 	.word	0x20001260

08004f44 <xPortSysTickHandler>:
 8004f44:	b508      	push	{r3, lr}
 8004f46:	f04f 0350 	mov.w	r3, #80	@ 0x50
 8004f4a:	f383 8811 	msr	BASEPRI, r3
 8004f4e:	f3bf 8f6f 	isb	sy
 8004f52:	f3bf 8f4f 	dsb	sy
 8004f56:	f7ff fad1 	bl	80044fc <xTaskIncrementTick>
 8004f5a:	b128      	cbz	r0, 8004f68 <xPortSysTickHandler+0x24>
 8004f5c:	f04f 23e0 	mov.w	r3, #3758153728	@ 0xe000e000
 8004f60:	f04f 5280 	mov.w	r2, #268435456	@ 0x10000000
 8004f64:	f8c3 2d04 	str.w	r2, [r3, #3332]	@ 0xd04
 8004f68:	2300      	movs	r3, #0
 8004f6a:	f383 8811 	msr	BASEPRI, r3
 8004f6e:	bd08      	pop	{r3, pc}

08004f70 <vPortSetupTimerInterrupt>:
 8004f70:	f04f 22e0 	mov.w	r2, #3758153728	@ 0xe000e000
 8004f74:	2300      	movs	r3, #0
 8004f76:	f44f 717a 	mov.w	r1, #1000	@ 0x3e8
 8004f7a:	6113      	str	r3, [r2, #16]
 8004f7c:	6193      	str	r3, [r2, #24]
 8004f7e:	4b04      	ldr	r3, [pc, #16]	@ (8004f90 <vPortSetupTimerInterrupt+0x20>)
 8004f80:	681b      	ldr	r3, [r3, #0]
 8004f82:	fbb3 f3f1 	udiv	r3, r3, r1
 8004f86:	3b01      	subs	r3, #1
 8004f88:	6153      	str	r3, [r2, #20]
 8004f8a:	2307      	movs	r3, #7
 8004f8c:	6113      	str	r3, [r2, #16]
 8004f8e:	4770      	bx	lr
 8004f90:	20000000 	.word	0x20000000

08004f94 <xPortStartScheduler>:
 8004f94:	b513      	push	{r0, r1, r4, lr}
 8004f96:	4b27      	ldr	r3, [pc, #156]	@ (8005034 <xPortStartScheduler+0xa0>)
 8004f98:	781a      	ldrb	r2, [r3, #0]
 8004f9a:	b2d2      	uxtb	r2, r2
 8004f9c:	9201      	str	r2, [sp, #4]
 8004f9e:	22ff      	movs	r2, #255	@ 0xff
 8004fa0:	701a      	strb	r2, [r3, #0]
 8004fa2:	781b      	ldrb	r3, [r3, #0]
 8004fa4:	4a24      	ldr	r2, [pc, #144]	@ (8005038 <xPortStartScheduler+0xa4>)
 8004fa6:	b2db      	uxtb	r3, r3
 8004fa8:	f88d 3003 	strb.w	r3, [sp, #3]
 8004fac:	f89d 3003 	ldrb.w	r3, [sp, #3]
 8004fb0:	f003 0350 	and.w	r3, r3, #80	@ 0x50
 8004fb4:	7013      	strb	r3, [r2, #0]
 8004fb6:	2307      	movs	r3, #7
 8004fb8:	4a20      	ldr	r2, [pc, #128]	@ (800503c <xPortStartScheduler+0xa8>)
 8004fba:	6013      	str	r3, [r2, #0]
 8004fbc:	f89d 1003 	ldrb.w	r1, [sp, #3]
 8004fc0:	6813      	ldr	r3, [r2, #0]
 8004fc2:	0609      	lsls	r1, r1, #24
 8004fc4:	d40a      	bmi.n	8004fdc <xPortStartScheduler+0x48>
 8004fc6:	2b03      	cmp	r3, #3
 8004fc8:	d011      	beq.n	8004fee <xPortStartScheduler+0x5a>
 8004fca:	f04f 0350 	mov.w	r3, #80	@ 0x50
 8004fce:	f383 8811 	msr	BASEPRI, r3
 8004fd2:	f3bf 8f6f 	isb	sy
 8004fd6:	f3bf 8f4f 	dsb	sy
 8004fda:	e7fe      	b.n	8004fda <xPortStartScheduler+0x46>
 8004fdc:	3b01      	subs	r3, #1
 8004fde:	6013      	str	r3, [r2, #0]
 8004fe0:	f89d 3003 	ldrb.w	r3, [sp, #3]
 8004fe4:	005b      	lsls	r3, r3, #1
 8004fe6:	b2db      	uxtb	r3, r3
 8004fe8:	f88d 3003 	strb.w	r3, [sp, #3]
 8004fec:	e7e6      	b.n	8004fbc <xPortStartScheduler+0x28>
 8004fee:	f44f 7340 	mov.w	r3, #768	@ 0x300
 8004ff2:	6013      	str	r3, [r2, #0]
 8004ff4:	9b01      	ldr	r3, [sp, #4]
 8004ff6:	4a0f      	ldr	r2, [pc, #60]	@ (8005034 <xPortStartScheduler+0xa0>)
 8004ff8:	b2db      	uxtb	r3, r3
 8004ffa:	7013      	strb	r3, [r2, #0]
 8004ffc:	f04f 23e0 	mov.w	r3, #3758153728	@ 0xe000e000
 8005000:	2400      	movs	r4, #0
 8005002:	f8d3 2d20 	ldr.w	r2, [r3, #3360]	@ 0xd20
 8005006:	f442 0270 	orr.w	r2, r2, #15728640	@ 0xf00000
 800500a:	f8c3 2d20 	str.w	r2, [r3, #3360]	@ 0xd20
 800500e:	f8d3 2d20 	ldr.w	r2, [r3, #3360]	@ 0xd20
 8005012:	f042 4270 	orr.w	r2, r2, #4026531840	@ 0xf0000000
 8005016:	f8c3 2d20 	str.w	r2, [r3, #3360]	@ 0xd20
 800501a:	f7ff ffa9 	bl	8004f70 <vPortSetupTimerInterrupt>
 800501e:	4b08      	ldr	r3, [pc, #32]	@ (8005040 <xPortStartScheduler+0xac>)
 8005020:	601c      	str	r4, [r3, #0]
 8005022:	f7ff fedf 	bl	8004de4 <prvPortStartFirstTask>
 8005026:	f7ff fb99 	bl	800475c <vTaskSwitchContext>
 800502a:	4620      	mov	r0, r4
 800502c:	f7ff feea 	bl	8004e04 <prvTaskExitError>
 8005030:	b002      	add	sp, #8
 8005032:	bd10      	pop	{r4, pc}
 8005034:	e000e400 	.word	0xe000e400
 8005038:	20001394 	.word	0x20001394
 800503c:	20001390 	.word	0x20001390
 8005040:	2000000c 	.word	0x2000000c

08005044 <vPortValidateInterruptPriority>:
 8005044:	f3ef 8305 	mrs	r3, IPSR
 8005048:	2b0f      	cmp	r3, #15
 800504a:	d90e      	bls.n	800506a <vPortValidateInterruptPriority+0x26>
 800504c:	4a11      	ldr	r2, [pc, #68]	@ (8005094 <vPortValidateInterruptPriority+0x50>)
 800504e:	5c9b      	ldrb	r3, [r3, r2]
 8005050:	4a11      	ldr	r2, [pc, #68]	@ (8005098 <vPortValidateInterruptPriority+0x54>)
 8005052:	7812      	ldrb	r2, [r2, #0]
 8005054:	429a      	cmp	r2, r3
 8005056:	d908      	bls.n	800506a <vPortValidateInterruptPriority+0x26>
 8005058:	f04f 0350 	mov.w	r3, #80	@ 0x50
 800505c:	f383 8811 	msr	BASEPRI, r3
 8005060:	f3bf 8f6f 	isb	sy
 8005064:	f3bf 8f4f 	dsb	sy
 8005068:	e7fe      	b.n	8005068 <vPortValidateInterruptPriority+0x24>
 800506a:	f04f 23e0 	mov.w	r3, #3758153728	@ 0xe000e000
 800506e:	4a0b      	ldr	r2, [pc, #44]	@ (800509c <vPortValidateInterruptPriority+0x58>)
 8005070:	f8d3 3d0c 	ldr.w	r3, [r3, #3340]	@ 0xd0c
 8005074:	6812      	ldr	r2, [r2, #0]
 8005076:	f403 63e0 	and.w	r3, r3, #1792	@ 0x700
 800507a:	4293      	cmp	r3, r2
 800507c:	d908      	bls.n	8005090 <vPortValidateInterruptPriority+0x4c>
 800507e:	f04f 0350 	mov.w	r3, #80	@ 0x50
 8005082:	f383 8811 	msr	BASEPRI, r3
 8005086:	f3bf 8f6f 	isb	sy
 800508a:	f3bf 8f4f 	dsb	sy
 800508e:	e7fe      	b.n	800508e <vPortValidateInterruptPriority+0x4a>
 8005090:	4770      	bx	lr
 8005092:	bf00      	nop
 8005094:	e000e3f0 	.word	0xe000e3f0
 8005098:	20001394 	.word	0x20001394
 800509c:	20001390 	.word	0x20001390

080050a0 <prvInsertBlockIntoFreeList>:
 80050a0:	b510      	push	{r4, lr}
 80050a2:	4b10      	ldr	r3, [pc, #64]	@ (80050e4 <prvInsertBlockIntoFreeList+0x44>)
 80050a4:	461a      	mov	r2, r3
 80050a6:	681b      	ldr	r3, [r3, #0]
 80050a8:	4283      	cmp	r3, r0
 80050aa:	d3fb      	bcc.n	80050a4 <prvInsertBlockIntoFreeList+0x4>
 80050ac:	6854      	ldr	r4, [r2, #4]
 80050ae:	1911      	adds	r1, r2, r4
 80050b0:	4288      	cmp	r0, r1
 80050b2:	bf01      	itttt	eq
 80050b4:	6841      	ldreq	r1, [r0, #4]
 80050b6:	4610      	moveq	r0, r2
 80050b8:	1909      	addeq	r1, r1, r4
 80050ba:	6051      	streq	r1, [r2, #4]
 80050bc:	6844      	ldr	r4, [r0, #4]
 80050be:	1901      	adds	r1, r0, r4
 80050c0:	428b      	cmp	r3, r1
 80050c2:	d10c      	bne.n	80050de <prvInsertBlockIntoFreeList+0x3e>
 80050c4:	4908      	ldr	r1, [pc, #32]	@ (80050e8 <prvInsertBlockIntoFreeList+0x48>)
 80050c6:	6809      	ldr	r1, [r1, #0]
 80050c8:	428b      	cmp	r3, r1
 80050ca:	d003      	beq.n	80050d4 <prvInsertBlockIntoFreeList+0x34>
 80050cc:	6859      	ldr	r1, [r3, #4]
 80050ce:	4421      	add	r1, r4
 80050d0:	6041      	str	r1, [r0, #4]
 80050d2:	6819      	ldr	r1, [r3, #0]
 80050d4:	4290      	cmp	r0, r2
 80050d6:	6001      	str	r1, [r0, #0]
 80050d8:	bf18      	it	ne
 80050da:	6010      	strne	r0, [r2, #0]
 80050dc:	bd10      	pop	{r4, pc}
 80050de:	4619      	mov	r1, r3
 80050e0:	e7f8      	b.n	80050d4 <prvInsertBlockIntoFreeList+0x34>
 80050e2:	bf00      	nop
 80050e4:	200013b0 	.word	0x200013b0
 80050e8:	200013ac 	.word	0x200013ac

080050ec <pvPortMalloc>:
 80050ec:	e92d 41f0 	stmdb	sp!, {r4, r5, r6, r7, r8, lr}
 80050f0:	4604      	mov	r4, r0
 80050f2:	f7ff f9f5 	bl	80044e0 <vTaskSuspendAll>
 80050f6:	4942      	ldr	r1, [pc, #264]	@ (8005200 <pvPortMalloc+0x114>)
 80050f8:	4d42      	ldr	r5, [pc, #264]	@ (8005204 <pvPortMalloc+0x118>)
 80050fa:	680b      	ldr	r3, [r1, #0]
 80050fc:	bb0b      	cbnz	r3, 8005142 <pvPortMalloc+0x56>
 80050fe:	4a42      	ldr	r2, [pc, #264]	@ (8005208 <pvPortMalloc+0x11c>)
 8005100:	0756      	lsls	r6, r2, #29
 8005102:	bf1f      	itttt	ne
 8005104:	1dd0      	addne	r0, r2, #7
 8005106:	f020 0007 	bicne.w	r0, r0, #7
 800510a:	f502 6240 	addne.w	r2, r2, #3072	@ 0xc00
 800510e:	1a13      	subne	r3, r2, r0
 8005110:	bf0c      	ite	eq
 8005112:	f44f 6340 	moveq.w	r3, #3072	@ 0xc00
 8005116:	4602      	movne	r2, r0
 8005118:	2000      	movs	r0, #0
 800511a:	4413      	add	r3, r2
 800511c:	4e3b      	ldr	r6, [pc, #236]	@ (800520c <pvPortMalloc+0x120>)
 800511e:	3b08      	subs	r3, #8
 8005120:	f023 0307 	bic.w	r3, r3, #7
 8005124:	6070      	str	r0, [r6, #4]
 8005126:	6032      	str	r2, [r6, #0]
 8005128:	e9c3 0000 	strd	r0, r0, [r3]
 800512c:	1a98      	subs	r0, r3, r2
 800512e:	e9c2 3000 	strd	r3, r0, [r2]
 8005132:	600b      	str	r3, [r1, #0]
 8005134:	4b36      	ldr	r3, [pc, #216]	@ (8005210 <pvPortMalloc+0x124>)
 8005136:	6018      	str	r0, [r3, #0]
 8005138:	4b36      	ldr	r3, [pc, #216]	@ (8005214 <pvPortMalloc+0x128>)
 800513a:	6018      	str	r0, [r3, #0]
 800513c:	f04f 4300 	mov.w	r3, #2147483648	@ 0x80000000
 8005140:	602b      	str	r3, [r5, #0]
 8005142:	682e      	ldr	r6, [r5, #0]
 8005144:	4226      	tst	r6, r4
 8005146:	d155      	bne.n	80051f4 <pvPortMalloc+0x108>
 8005148:	2c00      	cmp	r4, #0
 800514a:	d046      	beq.n	80051da <pvPortMalloc+0xee>
 800514c:	f104 0308 	add.w	r3, r4, #8
 8005150:	0760      	lsls	r0, r4, #29
 8005152:	bf1c      	itt	ne
 8005154:	f023 0307 	bicne.w	r3, r3, #7
 8005158:	3308      	addne	r3, #8
 800515a:	2b00      	cmp	r3, #0
 800515c:	d04a      	beq.n	80051f4 <pvPortMalloc+0x108>
 800515e:	4f2d      	ldr	r7, [pc, #180]	@ (8005214 <pvPortMalloc+0x128>)
 8005160:	683c      	ldr	r4, [r7, #0]
 8005162:	429c      	cmp	r4, r3
 8005164:	d346      	bcc.n	80051f4 <pvPortMalloc+0x108>
 8005166:	4a29      	ldr	r2, [pc, #164]	@ (800520c <pvPortMalloc+0x120>)
 8005168:	6815      	ldr	r5, [r2, #0]
 800516a:	6868      	ldr	r0, [r5, #4]
 800516c:	4298      	cmp	r0, r3
 800516e:	d204      	bcs.n	800517a <pvPortMalloc+0x8e>
 8005170:	f8d5 c000 	ldr.w	ip, [r5]
 8005174:	f1bc 0f00 	cmp.w	ip, #0
 8005178:	d115      	bne.n	80051a6 <pvPortMalloc+0xba>
 800517a:	6809      	ldr	r1, [r1, #0]
 800517c:	42a9      	cmp	r1, r5
 800517e:	d039      	beq.n	80051f4 <pvPortMalloc+0x108>
 8005180:	6829      	ldr	r1, [r5, #0]
 8005182:	f8d2 8000 	ldr.w	r8, [r2]
 8005186:	6011      	str	r1, [r2, #0]
 8005188:	1ac2      	subs	r2, r0, r3
 800518a:	2a10      	cmp	r2, #16
 800518c:	d912      	bls.n	80051b4 <pvPortMalloc+0xc8>
 800518e:	18e8      	adds	r0, r5, r3
 8005190:	0741      	lsls	r1, r0, #29
 8005192:	d00b      	beq.n	80051ac <pvPortMalloc+0xc0>
 8005194:	f04f 0350 	mov.w	r3, #80	@ 0x50
 8005198:	f383 8811 	msr	BASEPRI, r3
 800519c:	f3bf 8f6f 	isb	sy
 80051a0:	f3bf 8f4f 	dsb	sy
 80051a4:	e7fe      	b.n	80051a4 <pvPortMalloc+0xb8>
 80051a6:	462a      	mov	r2, r5
 80051a8:	4665      	mov	r5, ip
 80051aa:	e7de      	b.n	800516a <pvPortMalloc+0x7e>
 80051ac:	6042      	str	r2, [r0, #4]
 80051ae:	606b      	str	r3, [r5, #4]
 80051b0:	f7ff ff76 	bl	80050a0 <prvInsertBlockIntoFreeList>
 80051b4:	2300      	movs	r3, #0
 80051b6:	686a      	ldr	r2, [r5, #4]
 80051b8:	4915      	ldr	r1, [pc, #84]	@ (8005210 <pvPortMalloc+0x124>)
 80051ba:	1aa4      	subs	r4, r4, r2
 80051bc:	4316      	orrs	r6, r2
 80051be:	4a16      	ldr	r2, [pc, #88]	@ (8005218 <pvPortMalloc+0x12c>)
 80051c0:	6808      	ldr	r0, [r1, #0]
 80051c2:	602b      	str	r3, [r5, #0]
 80051c4:	6813      	ldr	r3, [r2, #0]
 80051c6:	4284      	cmp	r4, r0
 80051c8:	f103 0301 	add.w	r3, r3, #1
 80051cc:	603c      	str	r4, [r7, #0]
 80051ce:	bf38      	it	cc
 80051d0:	600c      	strcc	r4, [r1, #0]
 80051d2:	606e      	str	r6, [r5, #4]
 80051d4:	f108 0408 	add.w	r4, r8, #8
 80051d8:	6013      	str	r3, [r2, #0]
 80051da:	f7ff fa27 	bl	800462c <xTaskResumeAll>
 80051de:	0763      	lsls	r3, r4, #29
 80051e0:	d00a      	beq.n	80051f8 <pvPortMalloc+0x10c>
 80051e2:	f04f 0350 	mov.w	r3, #80	@ 0x50
 80051e6:	f383 8811 	msr	BASEPRI, r3
 80051ea:	f3bf 8f6f 	isb	sy
 80051ee:	f3bf 8f4f 	dsb	sy
 80051f2:	e7fe      	b.n	80051f2 <pvPortMalloc+0x106>
 80051f4:	2400      	movs	r4, #0
 80051f6:	e7f0      	b.n	80051da <pvPortMalloc+0xee>
 80051f8:	4620      	mov	r0, r4
 80051fa:	e8bd 81f0 	ldmia.w	sp!, {r4, r5, r6, r7, r8, pc}
 80051fe:	bf00      	nop
 8005200:	200013ac 	.word	0x200013ac
 8005204:	20001398 	.word	0x20001398
 8005208:	200013b8 	.word	0x200013b8
 800520c:	200013b0 	.word	0x200013b0
 8005210:	200013a4 	.word	0x200013a4
 8005214:	200013a8 	.word	0x200013a8
 8005218:	200013a0 	.word	0x200013a0

0800521c <vPortFree>:
 800521c:	b510      	push	{r4, lr}
 800521e:	4604      	mov	r4, r0
 8005220:	b390      	cbz	r0, 8005288 <vPortFree+0x6c>
 8005222:	4a1a      	ldr	r2, [pc, #104]	@ (800528c <vPortFree+0x70>)
 8005224:	f850 3c04 	ldr.w	r3, [r0, #-4]
 8005228:	6812      	ldr	r2, [r2, #0]
 800522a:	4213      	tst	r3, r2
 800522c:	d108      	bne.n	8005240 <vPortFree+0x24>
 800522e:	f04f 0350 	mov.w	r3, #80	@ 0x50
 8005232:	f383 8811 	msr	BASEPRI, r3
 8005236:	f3bf 8f6f 	isb	sy
 800523a:	f3bf 8f4f 	dsb	sy
 800523e:	e7fe      	b.n	800523e <vPortFree+0x22>
 8005240:	f850 1c08 	ldr.w	r1, [r0, #-8]
 8005244:	b141      	cbz	r1, 8005258 <vPortFree+0x3c>
 8005246:	f04f 0350 	mov.w	r3, #80	@ 0x50
 800524a:	f383 8811 	msr	BASEPRI, r3
 800524e:	f3bf 8f6f 	isb	sy
 8005252:	f3bf 8f4f 	dsb	sy
 8005256:	e7fe      	b.n	8005256 <vPortFree+0x3a>
 8005258:	ea23 0302 	bic.w	r3, r3, r2
 800525c:	f840 3c04 	str.w	r3, [r0, #-4]
 8005260:	f7ff f93e 	bl	80044e0 <vTaskSuspendAll>
 8005264:	4a0a      	ldr	r2, [pc, #40]	@ (8005290 <vPortFree+0x74>)
 8005266:	f854 3c04 	ldr.w	r3, [r4, #-4]
 800526a:	6811      	ldr	r1, [r2, #0]
 800526c:	f1a4 0008 	sub.w	r0, r4, #8
 8005270:	440b      	add	r3, r1
 8005272:	6013      	str	r3, [r2, #0]
 8005274:	f7ff ff14 	bl	80050a0 <prvInsertBlockIntoFreeList>
 8005278:	e8bd 4010 	ldmia.w	sp!, {r4, lr}
 800527c:	4a05      	ldr	r2, [pc, #20]	@ (8005294 <vPortFree+0x78>)
 800527e:	6813      	ldr	r3, [r2, #0]
 8005280:	3301      	adds	r3, #1
 8005282:	6013      	str	r3, [r2, #0]
 8005284:	f7ff b9d2 	b.w	800462c <xTaskResumeAll>
 8005288:	bd10      	pop	{r4, pc}
 800528a:	bf00      	nop
 800528c:	20001398 	.word	0x20001398
 8005290:	200013a8 	.word	0x200013a8
 8005294:	2000139c 	.word	0x2000139c

08005298 <_scanf_float>:
 8005298:	e92d 4ff0 	stmdb	sp!, {r4, r5, r6, r7, r8, r9, sl, fp, lr}
 800529c:	b087      	sub	sp, #28
 800529e:	9303      	str	r3, [sp, #12]
 80052a0:	688b      	ldr	r3, [r1, #8]
 80052a2:	4691      	mov	r9, r2
 80052a4:	1e5a      	subs	r2, r3, #1
 80052a6:	f5b2 7fae 	cmp.w	r2, #348	@ 0x15c
 80052aa:	bf82      	ittt	hi
 80052ac:	f46f 75ae 	mvnhi.w	r5, #348	@ 0x15c
 80052b0:	eb03 0b05 	addhi.w	fp, r3, r5
 80052b4:	f240 135d 	movwhi	r3, #349	@ 0x15d
 80052b8:	460a      	mov	r2, r1
 80052ba:	f04f 0500 	mov.w	r5, #0
 80052be:	bf88      	it	hi
 80052c0:	608b      	strhi	r3, [r1, #8]
 80052c2:	680b      	ldr	r3, [r1, #0]
 80052c4:	4680      	mov	r8, r0
 80052c6:	f443 63f0 	orr.w	r3, r3, #1920	@ 0x780
 80052ca:	f842 3b1c 	str.w	r3, [r2], #28
 80052ce:	460c      	mov	r4, r1
 80052d0:	bf98      	it	ls
 80052d2:	f04f 0b00 	movls.w	fp, #0
 80052d6:	4616      	mov	r6, r2
 80052d8:	46aa      	mov	sl, r5
 80052da:	462f      	mov	r7, r5
 80052dc:	e9cd 5504 	strd	r5, r5, [sp, #16]
 80052e0:	9201      	str	r2, [sp, #4]
 80052e2:	9502      	str	r5, [sp, #8]
 80052e4:	68a2      	ldr	r2, [r4, #8]
 80052e6:	b15a      	cbz	r2, 8005300 <_scanf_float+0x68>
 80052e8:	f8d9 3000 	ldr.w	r3, [r9]
 80052ec:	781b      	ldrb	r3, [r3, #0]
 80052ee:	2b4e      	cmp	r3, #78	@ 0x4e
 80052f0:	d862      	bhi.n	80053b8 <_scanf_float+0x120>
 80052f2:	2b40      	cmp	r3, #64	@ 0x40
 80052f4:	d83a      	bhi.n	800536c <_scanf_float+0xd4>
 80052f6:	f1a3 012b 	sub.w	r1, r3, #43	@ 0x2b
 80052fa:	b2c8      	uxtb	r0, r1
 80052fc:	280e      	cmp	r0, #14
 80052fe:	d938      	bls.n	8005372 <_scanf_float+0xda>
 8005300:	b11f      	cbz	r7, 800530a <_scanf_float+0x72>
 8005302:	6823      	ldr	r3, [r4, #0]
 8005304:	f423 7380 	bic.w	r3, r3, #256	@ 0x100
 8005308:	6023      	str	r3, [r4, #0]
 800530a:	f10a 3aff 	add.w	sl, sl, #4294967295
 800530e:	f1ba 0f01 	cmp.w	sl, #1
 8005312:	f200 8114 	bhi.w	800553e <_scanf_float+0x2a6>
 8005316:	9b01      	ldr	r3, [sp, #4]
 8005318:	429e      	cmp	r6, r3
 800531a:	f200 8105 	bhi.w	8005528 <_scanf_float+0x290>
 800531e:	2001      	movs	r0, #1
 8005320:	b007      	add	sp, #28
 8005322:	e8bd 8ff0 	ldmia.w	sp!, {r4, r5, r6, r7, r8, r9, sl, fp, pc}
 8005326:	f1a3 0261 	sub.w	r2, r3, #97	@ 0x61
 800532a:	2a0d      	cmp	r2, #13
 800532c:	d8e8      	bhi.n	8005300 <_scanf_float+0x68>
 800532e:	a101      	add	r1, pc, #4	@ (adr r1, 8005334 <_scanf_float+0x9c>)
 8005330:	f851 f022 	ldr.w	pc, [r1, r2, lsl #2]
 8005334:	0800547d 	.word	0x0800547d
 8005338:	08005301 	.word	0x08005301
 800533c:	08005301 	.word	0x08005301
 8005340:	08005301 	.word	0x08005301
 8005344:	080054d9 	.word	0x080054d9
 8005348:	080054b3 	.word	0x080054b3
 800534c:	08005301 	.word	0x08005301
 8005350:	08005301 	.word	0x08005301
 8005354:	0800548b 	.word	0x0800548b
 8005358:	08005301 	.word	0x08005301
 800535c:	08005301 	.word	0x08005301
 8005360:	08005301 	.word	0x08005301
 8005364:	08005301 	.word	0x08005301
 8005368:	08005447 	.word	0x08005447
 800536c:	f1a3 0241 	sub.w	r2, r3, #65	@ 0x41
 8005370:	e7db      	b.n	800532a <_scanf_float+0x92>
 8005372:	290e      	cmp	r1, #14
 8005374:	d8c4      	bhi.n	8005300 <_scanf_float+0x68>
 8005376:	a001      	add	r0, pc, #4	@ (adr r0, 800537c <_scanf_float+0xe4>)
 8005378:	f850 f021 	ldr.w	pc, [r0, r1, lsl #2]
 800537c:	08005437 	.word	0x08005437
 8005380:	08005301 	.word	0x08005301
 8005384:	08005437 	.word	0x08005437
 8005388:	080054c7 	.word	0x080054c7
 800538c:	08005301 	.word	0x08005301
 8005390:	080053d9 	.word	0x080053d9
 8005394:	0800541d 	.word	0x0800541d
 8005398:	0800541d 	.word	0x0800541d
 800539c:	0800541d 	.word	0x0800541d
 80053a0:	0800541d 	.word	0x0800541d
 80053a4:	0800541d 	.word	0x0800541d
 80053a8:	0800541d 	.word	0x0800541d
 80053ac:	0800541d 	.word	0x0800541d
 80053b0:	0800541d 	.word	0x0800541d
 80053b4:	0800541d 	.word	0x0800541d
 80053b8:	2b6e      	cmp	r3, #110	@ 0x6e
 80053ba:	d809      	bhi.n	80053d0 <_scanf_float+0x138>
 80053bc:	2b60      	cmp	r3, #96	@ 0x60
 80053be:	d8b2      	bhi.n	8005326 <_scanf_float+0x8e>
 80053c0:	2b54      	cmp	r3, #84	@ 0x54
 80053c2:	d07b      	beq.n	80054bc <_scanf_float+0x224>
 80053c4:	2b59      	cmp	r3, #89	@ 0x59
 80053c6:	d19b      	bne.n	8005300 <_scanf_float+0x68>
 80053c8:	2d07      	cmp	r5, #7
 80053ca:	d199      	bne.n	8005300 <_scanf_float+0x68>
 80053cc:	2508      	movs	r5, #8
 80053ce:	e02f      	b.n	8005430 <_scanf_float+0x198>
 80053d0:	2b74      	cmp	r3, #116	@ 0x74
 80053d2:	d073      	beq.n	80054bc <_scanf_float+0x224>
 80053d4:	2b79      	cmp	r3, #121	@ 0x79
 80053d6:	e7f6      	b.n	80053c6 <_scanf_float+0x12e>
 80053d8:	6821      	ldr	r1, [r4, #0]
 80053da:	05c8      	lsls	r0, r1, #23
 80053dc:	d51e      	bpl.n	800541c <_scanf_float+0x184>
 80053de:	f021 0180 	bic.w	r1, r1, #128	@ 0x80
 80053e2:	6021      	str	r1, [r4, #0]
 80053e4:	3701      	adds	r7, #1
 80053e6:	f1bb 0f00 	cmp.w	fp, #0
 80053ea:	d003      	beq.n	80053f4 <_scanf_float+0x15c>
 80053ec:	3201      	adds	r2, #1
 80053ee:	f10b 3bff 	add.w	fp, fp, #4294967295
 80053f2:	60a2      	str	r2, [r4, #8]
 80053f4:	68a3      	ldr	r3, [r4, #8]
 80053f6:	3b01      	subs	r3, #1
 80053f8:	60a3      	str	r3, [r4, #8]
 80053fa:	6923      	ldr	r3, [r4, #16]
 80053fc:	3301      	adds	r3, #1
 80053fe:	6123      	str	r3, [r4, #16]
 8005400:	f8d9 3004 	ldr.w	r3, [r9, #4]
 8005404:	3b01      	subs	r3, #1
 8005406:	2b00      	cmp	r3, #0
 8005408:	f8c9 3004 	str.w	r3, [r9, #4]
 800540c:	f340 8083 	ble.w	8005516 <_scanf_float+0x27e>
 8005410:	f8d9 3000 	ldr.w	r3, [r9]
 8005414:	3301      	adds	r3, #1
 8005416:	f8c9 3000 	str.w	r3, [r9]
 800541a:	e763      	b.n	80052e4 <_scanf_float+0x4c>
 800541c:	eb1a 0105 	adds.w	r1, sl, r5
 8005420:	f47f af6e 	bne.w	8005300 <_scanf_float+0x68>
 8005424:	460d      	mov	r5, r1
 8005426:	468a      	mov	sl, r1
 8005428:	6822      	ldr	r2, [r4, #0]
 800542a:	f422 72c0 	bic.w	r2, r2, #384	@ 0x180
 800542e:	6022      	str	r2, [r4, #0]
 8005430:	f806 3b01 	strb.w	r3, [r6], #1
 8005434:	e7de      	b.n	80053f4 <_scanf_float+0x15c>
 8005436:	6822      	ldr	r2, [r4, #0]
 8005438:	0610      	lsls	r0, r2, #24
 800543a:	f57f af61 	bpl.w	8005300 <_scanf_float+0x68>
 800543e:	f022 0280 	bic.w	r2, r2, #128	@ 0x80
 8005442:	6022      	str	r2, [r4, #0]
 8005444:	e7f4      	b.n	8005430 <_scanf_float+0x198>
 8005446:	f1ba 0f00 	cmp.w	sl, #0
 800544a:	d10c      	bne.n	8005466 <_scanf_float+0x1ce>
 800544c:	b977      	cbnz	r7, 800546c <_scanf_float+0x1d4>
 800544e:	6822      	ldr	r2, [r4, #0]
 8005450:	f402 61e0 	and.w	r1, r2, #1792	@ 0x700
 8005454:	f5b1 6fe0 	cmp.w	r1, #1792	@ 0x700
 8005458:	d108      	bne.n	800546c <_scanf_float+0x1d4>
 800545a:	f422 62f0 	bic.w	r2, r2, #1920	@ 0x780
 800545e:	f04f 0a01 	mov.w	sl, #1
 8005462:	6022      	str	r2, [r4, #0]
 8005464:	e7e4      	b.n	8005430 <_scanf_float+0x198>
 8005466:	f1ba 0f02 	cmp.w	sl, #2
 800546a:	d051      	beq.n	8005510 <_scanf_float+0x278>
 800546c:	2d01      	cmp	r5, #1
 800546e:	d002      	beq.n	8005476 <_scanf_float+0x1de>
 8005470:	2d04      	cmp	r5, #4
 8005472:	f47f af45 	bne.w	8005300 <_scanf_float+0x68>
 8005476:	3501      	adds	r5, #1
 8005478:	b2ed      	uxtb	r5, r5
 800547a:	e7d9      	b.n	8005430 <_scanf_float+0x198>
 800547c:	f1ba 0f01 	cmp.w	sl, #1
 8005480:	f47f af3e 	bne.w	8005300 <_scanf_float+0x68>
 8005484:	f04f 0a02 	mov.w	sl, #2
 8005488:	e7d2      	b.n	8005430 <_scanf_float+0x198>
 800548a:	b975      	cbnz	r5, 80054aa <_scanf_float+0x212>
 800548c:	2f00      	cmp	r7, #0
 800548e:	f47f af38 	bne.w	8005302 <_scanf_float+0x6a>
 8005492:	6822      	ldr	r2, [r4, #0]
 8005494:	f402 61e0 	and.w	r1, r2, #1792	@ 0x700
 8005498:	f5b1 6fe0 	cmp.w	r1, #1792	@ 0x700
 800549c:	f040 80ff 	bne.w	800569e <_scanf_float+0x406>
 80054a0:	f422 62f0 	bic.w	r2, r2, #1920	@ 0x780
 80054a4:	2501      	movs	r5, #1
 80054a6:	6022      	str	r2, [r4, #0]
 80054a8:	e7c2      	b.n	8005430 <_scanf_float+0x198>
 80054aa:	2d03      	cmp	r5, #3
 80054ac:	d0e3      	beq.n	8005476 <_scanf_float+0x1de>
 80054ae:	2d05      	cmp	r5, #5
 80054b0:	e7df      	b.n	8005472 <_scanf_float+0x1da>
 80054b2:	2d02      	cmp	r5, #2
 80054b4:	f47f af24 	bne.w	8005300 <_scanf_float+0x68>
 80054b8:	2503      	movs	r5, #3
 80054ba:	e7b9      	b.n	8005430 <_scanf_float+0x198>
 80054bc:	2d06      	cmp	r5, #6
 80054be:	f47f af1f 	bne.w	8005300 <_scanf_float+0x68>
 80054c2:	2507      	movs	r5, #7
 80054c4:	e7b4      	b.n	8005430 <_scanf_float+0x198>
 80054c6:	6822      	ldr	r2, [r4, #0]
 80054c8:	0591      	lsls	r1, r2, #22
 80054ca:	f57f af19 	bpl.w	8005300 <_scanf_float+0x68>
 80054ce:	f422 7220 	bic.w	r2, r2, #640	@ 0x280
 80054d2:	6022      	str	r2, [r4, #0]
 80054d4:	9702      	str	r7, [sp, #8]
 80054d6:	e7ab      	b.n	8005430 <_scanf_float+0x198>
 80054d8:	6822      	ldr	r2, [r4, #0]
 80054da:	f402 61a0 	and.w	r1, r2, #1280	@ 0x500
 80054de:	f5b1 6f80 	cmp.w	r1, #1024	@ 0x400
 80054e2:	d005      	beq.n	80054f0 <_scanf_float+0x258>
 80054e4:	0550      	lsls	r0, r2, #21
 80054e6:	f57f af0b 	bpl.w	8005300 <_scanf_float+0x68>
 80054ea:	2f00      	cmp	r7, #0
 80054ec:	f000 80d7 	beq.w	800569e <_scanf_float+0x406>
 80054f0:	0591      	lsls	r1, r2, #22
 80054f2:	bf58      	it	pl
 80054f4:	9902      	ldrpl	r1, [sp, #8]
 80054f6:	f422 62f0 	bic.w	r2, r2, #1920	@ 0x780
 80054fa:	bf58      	it	pl
 80054fc:	1a79      	subpl	r1, r7, r1
 80054fe:	f442 72c0 	orr.w	r2, r2, #384	@ 0x180
 8005502:	f04f 0700 	mov.w	r7, #0
 8005506:	bf58      	it	pl
 8005508:	e9cd 1604 	strdpl	r1, r6, [sp, #16]
 800550c:	6022      	str	r2, [r4, #0]
 800550e:	e78f      	b.n	8005430 <_scanf_float+0x198>
 8005510:	f04f 0a03 	mov.w	sl, #3
 8005514:	e78c      	b.n	8005430 <_scanf_float+0x198>
 8005516:	4649      	mov	r1, r9
 8005518:	4640      	mov	r0, r8
 800551a:	f8d4 3180 	ldr.w	r3, [r4, #384]	@ 0x180
 800551e:	4798      	blx	r3
 8005520:	2800      	cmp	r0, #0
 8005522:	f43f aedf 	beq.w	80052e4 <_scanf_float+0x4c>
 8005526:	e6eb      	b.n	8005300 <_scanf_float+0x68>
 8005528:	f8d4 317c 	ldr.w	r3, [r4, #380]	@ 0x17c
 800552c:	464a      	mov	r2, r9
 800552e:	4640      	mov	r0, r8
 8005530:	f816 1d01 	ldrb.w	r1, [r6, #-1]!
 8005534:	4798      	blx	r3
 8005536:	6923      	ldr	r3, [r4, #16]
 8005538:	3b01      	subs	r3, #1
 800553a:	6123      	str	r3, [r4, #16]
 800553c:	e6eb      	b.n	8005316 <_scanf_float+0x7e>
 800553e:	1e6b      	subs	r3, r5, #1
 8005540:	2b06      	cmp	r3, #6
 8005542:	d824      	bhi.n	800558e <_scanf_float+0x2f6>
 8005544:	2d02      	cmp	r5, #2
 8005546:	d836      	bhi.n	80055b6 <_scanf_float+0x31e>
 8005548:	9b01      	ldr	r3, [sp, #4]
 800554a:	429e      	cmp	r6, r3
 800554c:	f67f aee7 	bls.w	800531e <_scanf_float+0x86>
 8005550:	f8d4 317c 	ldr.w	r3, [r4, #380]	@ 0x17c
 8005554:	464a      	mov	r2, r9
 8005556:	4640      	mov	r0, r8
 8005558:	f816 1d01 	ldrb.w	r1, [r6, #-1]!
 800555c:	4798      	blx	r3
 800555e:	6923      	ldr	r3, [r4, #16]
 8005560:	3b01      	subs	r3, #1
 8005562:	6123      	str	r3, [r4, #16]
 8005564:	e7f0      	b.n	8005548 <_scanf_float+0x2b0>
 8005566:	f8d4 317c 	ldr.w	r3, [r4, #380]	@ 0x17c
 800556a:	464a      	mov	r2, r9
 800556c:	4640      	mov	r0, r8
 800556e:	f81b 1d01 	ldrb.w	r1, [fp, #-1]!
 8005572:	4798      	blx	r3
 8005574:	6923      	ldr	r3, [r4, #16]
 8005576:	3b01      	subs	r3, #1
 8005578:	6123      	str	r3, [r4, #16]
 800557a:	f10a 3aff 	add.w	sl, sl, #4294967295
 800557e:	fa5f fa8a 	uxtb.w	sl, sl
 8005582:	f1ba 0f02 	cmp.w	sl, #2
 8005586:	d1ee      	bne.n	8005566 <_scanf_float+0x2ce>
 8005588:	3d03      	subs	r5, #3
 800558a:	b2ed      	uxtb	r5, r5
 800558c:	1b76      	subs	r6, r6, r5
 800558e:	6823      	ldr	r3, [r4, #0]
 8005590:	05da      	lsls	r2, r3, #23
 8005592:	d530      	bpl.n	80055f6 <_scanf_float+0x35e>
 8005594:	055b      	lsls	r3, r3, #21
 8005596:	d511      	bpl.n	80055bc <_scanf_float+0x324>
 8005598:	9b01      	ldr	r3, [sp, #4]
 800559a:	429e      	cmp	r6, r3
 800559c:	f67f aebf 	bls.w	800531e <_scanf_float+0x86>
 80055a0:	f8d4 317c 	ldr.w	r3, [r4, #380]	@ 0x17c
 80055a4:	464a      	mov	r2, r9
 80055a6:	4640      	mov	r0, r8
 80055a8:	f816 1d01 	ldrb.w	r1, [r6, #-1]!
 80055ac:	4798      	blx	r3
 80055ae:	6923      	ldr	r3, [r4, #16]
 80055b0:	3b01      	subs	r3, #1
 80055b2:	6123      	str	r3, [r4, #16]
 80055b4:	e7f0      	b.n	8005598 <_scanf_float+0x300>
 80055b6:	46aa      	mov	sl, r5
 80055b8:	46b3      	mov	fp, r6
 80055ba:	e7de      	b.n	800557a <_scanf_float+0x2e2>
 80055bc:	f816 1c01 	ldrb.w	r1, [r6, #-1]
 80055c0:	6923      	ldr	r3, [r4, #16]
 80055c2:	2965      	cmp	r1, #101	@ 0x65
 80055c4:	f103 33ff 	add.w	r3, r3, #4294967295
 80055c8:	f106 35ff 	add.w	r5, r6, #4294967295
 80055cc:	6123      	str	r3, [r4, #16]
 80055ce:	d00c      	beq.n	80055ea <_scanf_float+0x352>
 80055d0:	2945      	cmp	r1, #69	@ 0x45
 80055d2:	d00a      	beq.n	80055ea <_scanf_float+0x352>
 80055d4:	f8d4 317c 	ldr.w	r3, [r4, #380]	@ 0x17c
 80055d8:	464a      	mov	r2, r9
 80055da:	4640      	mov	r0, r8
 80055dc:	4798      	blx	r3
 80055de:	6923      	ldr	r3, [r4, #16]
 80055e0:	f816 1c02 	ldrb.w	r1, [r6, #-2]
 80055e4:	3b01      	subs	r3, #1
 80055e6:	1eb5      	subs	r5, r6, #2
 80055e8:	6123      	str	r3, [r4, #16]
 80055ea:	464a      	mov	r2, r9
 80055ec:	4640      	mov	r0, r8
 80055ee:	f8d4 317c 	ldr.w	r3, [r4, #380]	@ 0x17c
 80055f2:	4798      	blx	r3
 80055f4:	462e      	mov	r6, r5
 80055f6:	6822      	ldr	r2, [r4, #0]
 80055f8:	f012 0210 	ands.w	r2, r2, #16
 80055fc:	d001      	beq.n	8005602 <_scanf_float+0x36a>
 80055fe:	2000      	movs	r0, #0
 8005600:	e68e      	b.n	8005320 <_scanf_float+0x88>
 8005602:	7032      	strb	r2, [r6, #0]
 8005604:	6823      	ldr	r3, [r4, #0]
 8005606:	f403 63c0 	and.w	r3, r3, #1536	@ 0x600
 800560a:	f5b3 6f80 	cmp.w	r3, #1024	@ 0x400
 800560e:	d125      	bne.n	800565c <_scanf_float+0x3c4>
 8005610:	9b02      	ldr	r3, [sp, #8]
 8005612:	429f      	cmp	r7, r3
 8005614:	d00a      	beq.n	800562c <_scanf_float+0x394>
 8005616:	1bda      	subs	r2, r3, r7
 8005618:	f204 136f 	addw	r3, r4, #367	@ 0x16f
 800561c:	429e      	cmp	r6, r3
 800561e:	bf28      	it	cs
 8005620:	f504 76b7 	addcs.w	r6, r4, #366	@ 0x16e
 8005624:	4630      	mov	r0, r6
 8005626:	491f      	ldr	r1, [pc, #124]	@ (80056a4 <_scanf_float+0x40c>)
 8005628:	f000 f902 	bl	8005830 <siprintf>
 800562c:	2200      	movs	r2, #0
 800562e:	4640      	mov	r0, r8
 8005630:	9901      	ldr	r1, [sp, #4]
 8005632:	f001 fa39 	bl	8006aa8 <_strtod_r>
 8005636:	9b03      	ldr	r3, [sp, #12]
 8005638:	6825      	ldr	r5, [r4, #0]
 800563a:	681b      	ldr	r3, [r3, #0]
 800563c:	f015 0f02 	tst.w	r5, #2
 8005640:	4606      	mov	r6, r0
 8005642:	460f      	mov	r7, r1
 8005644:	f103 0204 	add.w	r2, r3, #4
 8005648:	d015      	beq.n	8005676 <_scanf_float+0x3de>
 800564a:	9903      	ldr	r1, [sp, #12]
 800564c:	600a      	str	r2, [r1, #0]
 800564e:	681b      	ldr	r3, [r3, #0]
 8005650:	e9c3 6700 	strd	r6, r7, [r3]
 8005654:	68e3      	ldr	r3, [r4, #12]
 8005656:	3301      	adds	r3, #1
 8005658:	60e3      	str	r3, [r4, #12]
 800565a:	e7d0      	b.n	80055fe <_scanf_float+0x366>
 800565c:	9b04      	ldr	r3, [sp, #16]
 800565e:	2b00      	cmp	r3, #0
 8005660:	d0e4      	beq.n	800562c <_scanf_float+0x394>
 8005662:	9905      	ldr	r1, [sp, #20]
 8005664:	230a      	movs	r3, #10
 8005666:	4640      	mov	r0, r8
 8005668:	3101      	adds	r1, #1
 800566a:	f001 fa9d 	bl	8006ba8 <_strtol_r>
 800566e:	9b04      	ldr	r3, [sp, #16]
 8005670:	9e05      	ldr	r6, [sp, #20]
 8005672:	1ac2      	subs	r2, r0, r3
 8005674:	e7d0      	b.n	8005618 <_scanf_float+0x380>
 8005676:	076d      	lsls	r5, r5, #29
 8005678:	d4e7      	bmi.n	800564a <_scanf_float+0x3b2>
 800567a:	9d03      	ldr	r5, [sp, #12]
 800567c:	602a      	str	r2, [r5, #0]
 800567e:	681d      	ldr	r5, [r3, #0]
 8005680:	4602      	mov	r2, r0
 8005682:	460b      	mov	r3, r1
 8005684:	f7fb f9cc 	bl	8000a20 <__aeabi_dcmpun>
 8005688:	b120      	cbz	r0, 8005694 <_scanf_float+0x3fc>
 800568a:	4807      	ldr	r0, [pc, #28]	@ (80056a8 <_scanf_float+0x410>)
 800568c:	f000 faf0 	bl	8005c70 <nanf>
 8005690:	6028      	str	r0, [r5, #0]
 8005692:	e7df      	b.n	8005654 <_scanf_float+0x3bc>
 8005694:	4630      	mov	r0, r6
 8005696:	4639      	mov	r1, r7
 8005698:	f7fb f9f8 	bl	8000a8c <__aeabi_d2f>
 800569c:	e7f8      	b.n	8005690 <_scanf_float+0x3f8>
 800569e:	2700      	movs	r7, #0
 80056a0:	e633      	b.n	800530a <_scanf_float+0x72>
 80056a2:	bf00      	nop
 80056a4:	08009bbc 	.word	0x08009bbc
 80056a8:	08009455 	.word	0x08009455

080056ac <std>:
 80056ac:	2300      	movs	r3, #0
 80056ae:	b510      	push	{r4, lr}
 80056b0:	4604      	mov	r4, r0
 80056b2:	e9c0 3300 	strd	r3, r3, [r0]
 80056b6:	e9c0 3304 	strd	r3, r3, [r0, #16]
 80056ba:	6083      	str	r3, [r0, #8]
 80056bc:	8181      	strh	r1, [r0, #12]
 80056be:	6643      	str	r3, [r0, #100]	@ 0x64
 80056c0:	81c2      	strh	r2, [r0, #14]
 80056c2:	6183      	str	r3, [r0, #24]
 80056c4:	4619      	mov	r1, r3
 80056c6:	2208      	movs	r2, #8
 80056c8:	305c      	adds	r0, #92	@ 0x5c
 80056ca:	f000 f944 	bl	8005956 <memset>
 80056ce:	4b0d      	ldr	r3, [pc, #52]	@ (8005704 <std+0x58>)
 80056d0:	6224      	str	r4, [r4, #32]
 80056d2:	6263      	str	r3, [r4, #36]	@ 0x24
 80056d4:	4b0c      	ldr	r3, [pc, #48]	@ (8005708 <std+0x5c>)
 80056d6:	62a3      	str	r3, [r4, #40]	@ 0x28
 80056d8:	4b0c      	ldr	r3, [pc, #48]	@ (800570c <std+0x60>)
 80056da:	62e3      	str	r3, [r4, #44]	@ 0x2c
 80056dc:	4b0c      	ldr	r3, [pc, #48]	@ (8005710 <std+0x64>)
 80056de:	6323      	str	r3, [r4, #48]	@ 0x30
 80056e0:	4b0c      	ldr	r3, [pc, #48]	@ (8005714 <std+0x68>)
 80056e2:	429c      	cmp	r4, r3
 80056e4:	d006      	beq.n	80056f4 <std+0x48>
 80056e6:	f103 0268 	add.w	r2, r3, #104	@ 0x68
 80056ea:	4294      	cmp	r4, r2
 80056ec:	d002      	beq.n	80056f4 <std+0x48>
 80056ee:	33d0      	adds	r3, #208	@ 0xd0
 80056f0:	429c      	cmp	r4, r3
 80056f2:	d105      	bne.n	8005700 <std+0x54>
 80056f4:	f104 0058 	add.w	r0, r4, #88	@ 0x58
 80056f8:	e8bd 4010 	ldmia.w	sp!, {r4, lr}
 80056fc:	f000 baa6 	b.w	8005c4c <__retarget_lock_init_recursive>
 8005700:	bd10      	pop	{r4, pc}
 8005702:	bf00      	nop
 8005704:	080058cd 	.word	0x080058cd
 8005708:	080058f3 	.word	0x080058f3
 800570c:	0800592b 	.word	0x0800592b
 8005710:	0800594f 	.word	0x0800594f
 8005714:	20001fb8 	.word	0x20001fb8

08005718 <stdio_exit_handler>:
 8005718:	4a02      	ldr	r2, [pc, #8]	@ (8005724 <stdio_exit_handler+0xc>)
 800571a:	4903      	ldr	r1, [pc, #12]	@ (8005728 <stdio_exit_handler+0x10>)
 800571c:	4803      	ldr	r0, [pc, #12]	@ (800572c <stdio_exit_handler+0x14>)
 800571e:	f000 b869 	b.w	80057f4 <_fwalk_sglue>
 8005722:	bf00      	nop
 8005724:	20000010 	.word	0x20000010
 8005728:	080078b1 	.word	0x080078b1
 800572c:	20000020 	.word	0x20000020

08005730 <cleanup_stdio>:
 8005730:	6841      	ldr	r1, [r0, #4]
 8005732:	4b0c      	ldr	r3, [pc, #48]	@ (8005764 <cleanup_stdio+0x34>)
 8005734:	b510      	push	{r4, lr}
 8005736:	4299      	cmp	r1, r3
 8005738:	4604      	mov	r4, r0
 800573a:	d001      	beq.n	8005740 <cleanup_stdio+0x10>
 800573c:	f002 f8b8 	bl	80078b0 <_fflush_r>
 8005740:	68a1      	ldr	r1, [r4, #8]
 8005742:	4b09      	ldr	r3, [pc, #36]	@ (8005768 <cleanup_stdio+0x38>)
 8005744:	4299      	cmp	r1, r3
 8005746:	d002      	beq.n	800574e <cleanup_stdio+0x1e>
 8005748:	4620      	mov	r0, r4
 800574a:	f002 f8b1 	bl	80078b0 <_fflush_r>
 800574e:	68e1      	ldr	r1, [r4, #12]
 8005750:	4b06      	ldr	r3, [pc, #24]	@ (800576c <cleanup_stdio+0x3c>)
 8005752:	4299      	cmp	r1, r3
 8005754:	d004      	beq.n	8005760 <cleanup_stdio+0x30>
 8005756:	4620      	mov	r0, r4
 8005758:	e8bd 4010 	ldmia.w	sp!, {r4, lr}
 800575c:	f002 b8a8 	b.w	80078b0 <_fflush_r>
 8005760:	bd10      	pop	{r4, pc}
 8005762:	bf00      	nop
 8005764:	20001fb8 	.word	0x20001fb8
 8005768:	20002020 	.word	0x20002020
 800576c:	20002088 	.word	0x20002088

08005770 <global_stdio_init.part.0>:
 8005770:	b510      	push	{r4, lr}
 8005772:	4b0b      	ldr	r3, [pc, #44]	@ (80057a0 <global_stdio_init.part.0+0x30>)
 8005774:	4c0b      	ldr	r4, [pc, #44]	@ (80057a4 <global_stdio_init.part.0+0x34>)
 8005776:	4a0c      	ldr	r2, [pc, #48]	@ (80057a8 <global_stdio_init.part.0+0x38>)
 8005778:	4620      	mov	r0, r4
 800577a:	601a      	str	r2, [r3, #0]
 800577c:	2104      	movs	r1, #4
 800577e:	2200      	movs	r2, #0
 8005780:	f7ff ff94 	bl	80056ac <std>
 8005784:	f104 0068 	add.w	r0, r4, #104	@ 0x68
 8005788:	2201      	movs	r2, #1
 800578a:	2109      	movs	r1, #9
 800578c:	f7ff ff8e 	bl	80056ac <std>
 8005790:	f104 00d0 	add.w	r0, r4, #208	@ 0xd0
 8005794:	2202      	movs	r2, #2
 8005796:	e8bd 4010 	ldmia.w	sp!, {r4, lr}
 800579a:	2112      	movs	r1, #18
 800579c:	f7ff bf86 	b.w	80056ac <std>
 80057a0:	200020f0 	.word	0x200020f0
 80057a4:	20001fb8 	.word	0x20001fb8
 80057a8:	08005719 	.word	0x08005719

080057ac <__sfp_lock_acquire>:
 80057ac:	4801      	ldr	r0, [pc, #4]	@ (80057b4 <__sfp_lock_acquire+0x8>)
 80057ae:	f000 ba4e 	b.w	8005c4e <__retarget_lock_acquire_recursive>
 80057b2:	bf00      	nop
 80057b4:	200020f9 	.word	0x200020f9

080057b8 <__sfp_lock_release>:
 80057b8:	4801      	ldr	r0, [pc, #4]	@ (80057c0 <__sfp_lock_release+0x8>)
 80057ba:	f000 ba49 	b.w	8005c50 <__retarget_lock_release_recursive>
 80057be:	bf00      	nop
 80057c0:	200020f9 	.word	0x200020f9

080057c4 <__sinit>:
 80057c4:	b510      	push	{r4, lr}
 80057c6:	4604      	mov	r4, r0
 80057c8:	f7ff fff0 	bl	80057ac <__sfp_lock_acquire>
 80057cc:	6a23      	ldr	r3, [r4, #32]
 80057ce:	b11b      	cbz	r3, 80057d8 <__sinit+0x14>
 80057d0:	e8bd 4010 	ldmia.w	sp!, {r4, lr}
 80057d4:	f7ff bff0 	b.w	80057b8 <__sfp_lock_release>
 80057d8:	4b04      	ldr	r3, [pc, #16]	@ (80057ec <__sinit+0x28>)
 80057da:	6223      	str	r3, [r4, #32]
 80057dc:	4b04      	ldr	r3, [pc, #16]	@ (80057f0 <__sinit+0x2c>)
 80057de:	681b      	ldr	r3, [r3, #0]
 80057e0:	2b00      	cmp	r3, #0
 80057e2:	d1f5      	bne.n	80057d0 <__sinit+0xc>
 80057e4:	f7ff ffc4 	bl	8005770 <global_stdio_init.part.0>
 80057e8:	e7f2      	b.n	80057d0 <__sinit+0xc>
 80057ea:	bf00      	nop
 80057ec:	08005731 	.word	0x08005731
 80057f0:	200020f0 	.word	0x200020f0

080057f4 <_fwalk_sglue>:
 80057f4:	e92d 43f8 	stmdb	sp!, {r3, r4, r5, r6, r7, r8, r9, lr}
 80057f8:	4607      	mov	r7, r0
 80057fa:	4688      	mov	r8, r1
 80057fc:	4614      	mov	r4, r2
 80057fe:	2600      	movs	r6, #0
 8005800:	e9d4 9501 	ldrd	r9, r5, [r4, #4]
 8005804:	f1b9 0901 	subs.w	r9, r9, #1
 8005808:	d505      	bpl.n	8005816 <_fwalk_sglue+0x22>
 800580a:	6824      	ldr	r4, [r4, #0]
 800580c:	2c00      	cmp	r4, #0
 800580e:	d1f7      	bne.n	8005800 <_fwalk_sglue+0xc>
 8005810:	4630      	mov	r0, r6
 8005812:	e8bd 83f8 	ldmia.w	sp!, {r3, r4, r5, r6, r7, r8, r9, pc}
 8005816:	89ab      	ldrh	r3, [r5, #12]
 8005818:	2b01      	cmp	r3, #1
 800581a:	d907      	bls.n	800582c <_fwalk_sglue+0x38>
 800581c:	f9b5 300e 	ldrsh.w	r3, [r5, #14]
 8005820:	3301      	adds	r3, #1
 8005822:	d003      	beq.n	800582c <_fwalk_sglue+0x38>
 8005824:	4629      	mov	r1, r5
 8005826:	4638      	mov	r0, r7
 8005828:	47c0      	blx	r8
 800582a:	4306      	orrs	r6, r0
 800582c:	3568      	adds	r5, #104	@ 0x68
 800582e:	e7e9      	b.n	8005804 <_fwalk_sglue+0x10>

08005830 <siprintf>:
 8005830:	b40e      	push	{r1, r2, r3}
 8005832:	f06f 4100 	mvn.w	r1, #2147483648	@ 0x80000000
 8005836:	b510      	push	{r4, lr}
 8005838:	2400      	movs	r4, #0
 800583a:	b09d      	sub	sp, #116	@ 0x74
 800583c:	ab1f      	add	r3, sp, #124	@ 0x7c
 800583e:	9002      	str	r0, [sp, #8]
 8005840:	9006      	str	r0, [sp, #24]
 8005842:	9107      	str	r1, [sp, #28]
 8005844:	9104      	str	r1, [sp, #16]
 8005846:	4809      	ldr	r0, [pc, #36]	@ (800586c <siprintf+0x3c>)
 8005848:	4909      	ldr	r1, [pc, #36]	@ (8005870 <siprintf+0x40>)
 800584a:	f853 2b04 	ldr.w	r2, [r3], #4
 800584e:	9105      	str	r1, [sp, #20]
 8005850:	6800      	ldr	r0, [r0, #0]
 8005852:	a902      	add	r1, sp, #8
 8005854:	9301      	str	r3, [sp, #4]
 8005856:	941b      	str	r4, [sp, #108]	@ 0x6c
 8005858:	f001 fa04 	bl	8006c64 <_svfiprintf_r>
 800585c:	9b02      	ldr	r3, [sp, #8]
 800585e:	701c      	strb	r4, [r3, #0]
 8005860:	b01d      	add	sp, #116	@ 0x74
 8005862:	e8bd 4010 	ldmia.w	sp!, {r4, lr}
 8005866:	b003      	add	sp, #12
 8005868:	4770      	bx	lr
 800586a:	bf00      	nop
 800586c:	2000001c 	.word	0x2000001c
 8005870:	ffff0208 	.word	0xffff0208

08005874 <siscanf>:
 8005874:	b40e      	push	{r1, r2, r3}
 8005876:	f44f 7201 	mov.w	r2, #516	@ 0x204
 800587a:	b570      	push	{r4, r5, r6, lr}
 800587c:	2500      	movs	r5, #0
 800587e:	b09d      	sub	sp, #116	@ 0x74
 8005880:	ac21      	add	r4, sp, #132	@ 0x84
 8005882:	f854 6b04 	ldr.w	r6, [r4], #4
 8005886:	f8ad 2014 	strh.w	r2, [sp, #20]
 800588a:	951b      	str	r5, [sp, #108]	@ 0x6c
 800588c:	9002      	str	r0, [sp, #8]
 800588e:	9006      	str	r0, [sp, #24]
 8005890:	f7fa fc68 	bl	8000164 <strlen>
 8005894:	4b0b      	ldr	r3, [pc, #44]	@ (80058c4 <siscanf+0x50>)
 8005896:	9003      	str	r0, [sp, #12]
 8005898:	930b      	str	r3, [sp, #44]	@ 0x2c
 800589a:	f64f 73ff 	movw	r3, #65535	@ 0xffff
 800589e:	9007      	str	r0, [sp, #28]
 80058a0:	4809      	ldr	r0, [pc, #36]	@ (80058c8 <siscanf+0x54>)
 80058a2:	f8ad 3016 	strh.w	r3, [sp, #22]
 80058a6:	4632      	mov	r2, r6
 80058a8:	4623      	mov	r3, r4
 80058aa:	a902      	add	r1, sp, #8
 80058ac:	6800      	ldr	r0, [r0, #0]
 80058ae:	950f      	str	r5, [sp, #60]	@ 0x3c
 80058b0:	9514      	str	r5, [sp, #80]	@ 0x50
 80058b2:	9401      	str	r4, [sp, #4]
 80058b4:	f001 fb2c 	bl	8006f10 <__ssvfiscanf_r>
 80058b8:	b01d      	add	sp, #116	@ 0x74
 80058ba:	e8bd 4070 	ldmia.w	sp!, {r4, r5, r6, lr}
 80058be:	b003      	add	sp, #12
 80058c0:	4770      	bx	lr
 80058c2:	bf00      	nop
 80058c4:	080058ef 	.word	0x080058ef
 80058c8:	2000001c 	.word	0x2000001c

080058cc <__sread>:
 80058cc:	b510      	push	{r4, lr}
 80058ce:	460c      	mov	r4, r1
 80058d0:	f9b1 100e 	ldrsh.w	r1, [r1, #14]
 80058d4:	f000 f96c 	bl	8005bb0 <_read_r>
 80058d8:	2800      	cmp	r0, #0
 80058da:	bfab      	itete	ge
 80058dc:	6d63      	ldrge	r3, [r4, #84]	@ 0x54
 80058de:	89a3      	ldrhlt	r3, [r4, #12]
 80058e0:	181b      	addge	r3, r3, r0
 80058e2:	f423 5380 	biclt.w	r3, r3, #4096	@ 0x1000
 80058e6:	bfac      	ite	ge
 80058e8:	6563      	strge	r3, [r4, #84]	@ 0x54
 80058ea:	81a3      	strhlt	r3, [r4, #12]
 80058ec:	bd10      	pop	{r4, pc}

080058ee <__seofread>:
 80058ee:	2000      	movs	r0, #0
 80058f0:	4770      	bx	lr

080058f2 <__swrite>:
 80058f2:	e92d 41f0 	stmdb	sp!, {r4, r5, r6, r7, r8, lr}
 80058f6:	461f      	mov	r7, r3
 80058f8:	898b      	ldrh	r3, [r1, #12]
 80058fa:	4605      	mov	r5, r0
 80058fc:	05db      	lsls	r3, r3, #23
 80058fe:	460c      	mov	r4, r1
 8005900:	4616      	mov	r6, r2
 8005902:	d505      	bpl.n	8005910 <__swrite+0x1e>
 8005904:	2302      	movs	r3, #2
 8005906:	2200      	movs	r2, #0
 8005908:	f9b1 100e 	ldrsh.w	r1, [r1, #14]
 800590c:	f000 f93e 	bl	8005b8c <_lseek_r>
 8005910:	89a3      	ldrh	r3, [r4, #12]
 8005912:	4632      	mov	r2, r6
 8005914:	f423 5380 	bic.w	r3, r3, #4096	@ 0x1000
 8005918:	81a3      	strh	r3, [r4, #12]
 800591a:	4628      	mov	r0, r5
 800591c:	463b      	mov	r3, r7
 800591e:	f9b4 100e 	ldrsh.w	r1, [r4, #14]
 8005922:	e8bd 41f0 	ldmia.w	sp!, {r4, r5, r6, r7, r8, lr}
 8005926:	f000 b955 	b.w	8005bd4 <_write_r>

0800592a <__sseek>:
 800592a:	b510      	push	{r4, lr}
 800592c:	460c      	mov	r4, r1
 800592e:	f9b1 100e 	ldrsh.w	r1, [r1, #14]
 8005932:	f000 f92b 	bl	8005b8c <_lseek_r>
 8005936:	1c43      	adds	r3, r0, #1
 8005938:	89a3      	ldrh	r3, [r4, #12]
 800593a:	bf15      	itete	ne
 800593c:	6560      	strne	r0, [r4, #84]	@ 0x54
 800593e:	f423 5380 	biceq.w	r3, r3, #4096	@ 0x1000
 8005942:	f443 5380 	orrne.w	r3, r3, #4096	@ 0x1000
 8005946:	81a3      	strheq	r3, [r4, #12]
 8005948:	bf18      	it	ne
 800594a:	81a3      	strhne	r3, [r4, #12]
 800594c:	bd10      	pop	{r4, pc}

0800594e <__sclose>:
 800594e:	f9b1 100e 	ldrsh.w	r1, [r1, #14]
 8005952:	f000 b8ad 	b.w	8005ab0 <_close_r>

08005956 <memset>:
 8005956:	4603      	mov	r3, r0
 8005958:	4402      	add	r2, r0
 800595a:	4293      	cmp	r3, r2
 800595c:	d100      	bne.n	8005960 <memset+0xa>
 800595e:	4770      	bx	lr
 8005960:	f803 1b01 	strb.w	r1, [r3], #1
 8005964:	e7f9      	b.n	800595a <memset+0x4>

08005966 <strchr>:
 8005966:	4603      	mov	r3, r0
 8005968:	b2c9      	uxtb	r1, r1
 800596a:	4618      	mov	r0, r3
 800596c:	f813 2b01 	ldrb.w	r2, [r3], #1
 8005970:	b112      	cbz	r2, 8005978 <strchr+0x12>
 8005972:	428a      	cmp	r2, r1
 8005974:	d1f9      	bne.n	800596a <strchr+0x4>
 8005976:	4770      	bx	lr
 8005978:	2900      	cmp	r1, #0
 800597a:	bf18      	it	ne
 800597c:	2000      	movne	r0, #0
 800597e:	4770      	bx	lr

08005980 <strncmp>:
 8005980:	b510      	push	{r4, lr}
 8005982:	b16a      	cbz	r2, 80059a0 <strncmp+0x20>
 8005984:	3901      	subs	r1, #1
 8005986:	1884      	adds	r4, r0, r2
 8005988:	f810 2b01 	ldrb.w	r2, [r0], #1
 800598c:	f811 3f01 	ldrb.w	r3, [r1, #1]!
 8005990:	429a      	cmp	r2, r3
 8005992:	d103      	bne.n	800599c <strncmp+0x1c>
 8005994:	42a0      	cmp	r0, r4
 8005996:	d001      	beq.n	800599c <strncmp+0x1c>
 8005998:	2a00      	cmp	r2, #0
 800599a:	d1f5      	bne.n	8005988 <strncmp+0x8>
 800599c:	1ad0      	subs	r0, r2, r3
 800599e:	bd10      	pop	{r4, pc}
 80059a0:	4610      	mov	r0, r2
 80059a2:	e7fc      	b.n	800599e <strncmp+0x1e>

080059a4 <strncpy>:
 80059a4:	4603      	mov	r3, r0
 80059a6:	b510      	push	{r4, lr}
 80059a8:	3901      	subs	r1, #1
 80059aa:	b132      	cbz	r2, 80059ba <strncpy+0x16>
 80059ac:	f811 4f01 	ldrb.w	r4, [r1, #1]!
 80059b0:	3a01      	subs	r2, #1
 80059b2:	f803 4b01 	strb.w	r4, [r3], #1
 80059b6:	2c00      	cmp	r4, #0
 80059b8:	d1f7      	bne.n	80059aa <strncpy+0x6>
 80059ba:	2100      	movs	r1, #0
 80059bc:	441a      	add	r2, r3
 80059be:	4293      	cmp	r3, r2
 80059c0:	d100      	bne.n	80059c4 <strncpy+0x20>
 80059c2:	bd10      	pop	{r4, pc}
 80059c4:	f803 1b01 	strb.w	r1, [r3], #1
 80059c8:	e7f9      	b.n	80059be <strncpy+0x1a>
	...

080059cc <strtok>:
 80059cc:	4b16      	ldr	r3, [pc, #88]	@ (8005a28 <strtok+0x5c>)
 80059ce:	e92d 41f0 	stmdb	sp!, {r4, r5, r6, r7, r8, lr}
 80059d2:	681f      	ldr	r7, [r3, #0]
 80059d4:	4605      	mov	r5, r0
 80059d6:	6c7c      	ldr	r4, [r7, #68]	@ 0x44
 80059d8:	460e      	mov	r6, r1
 80059da:	b9ec      	cbnz	r4, 8005a18 <strtok+0x4c>
 80059dc:	2050      	movs	r0, #80	@ 0x50
 80059de:	f000 f9b1 	bl	8005d44 <malloc>
 80059e2:	4602      	mov	r2, r0
 80059e4:	6478      	str	r0, [r7, #68]	@ 0x44
 80059e6:	b920      	cbnz	r0, 80059f2 <strtok+0x26>
 80059e8:	215b      	movs	r1, #91	@ 0x5b
 80059ea:	4b10      	ldr	r3, [pc, #64]	@ (8005a2c <strtok+0x60>)
 80059ec:	4810      	ldr	r0, [pc, #64]	@ (8005a30 <strtok+0x64>)
 80059ee:	f000 f943 	bl	8005c78 <__assert_func>
 80059f2:	e9c0 4400 	strd	r4, r4, [r0]
 80059f6:	e9c0 4402 	strd	r4, r4, [r0, #8]
 80059fa:	e9c0 4404 	strd	r4, r4, [r0, #16]
 80059fe:	e9c0 440a 	strd	r4, r4, [r0, #40]	@ 0x28
 8005a02:	e9c0 440c 	strd	r4, r4, [r0, #48]	@ 0x30
 8005a06:	e9c0 440e 	strd	r4, r4, [r0, #56]	@ 0x38
 8005a0a:	e9c0 4410 	strd	r4, r4, [r0, #64]	@ 0x40
 8005a0e:	e9c0 4412 	strd	r4, r4, [r0, #72]	@ 0x48
 8005a12:	6184      	str	r4, [r0, #24]
 8005a14:	7704      	strb	r4, [r0, #28]
 8005a16:	6244      	str	r4, [r0, #36]	@ 0x24
 8005a18:	4631      	mov	r1, r6
 8005a1a:	4628      	mov	r0, r5
 8005a1c:	6c7a      	ldr	r2, [r7, #68]	@ 0x44
 8005a1e:	2301      	movs	r3, #1
 8005a20:	e8bd 41f0 	ldmia.w	sp!, {r4, r5, r6, r7, r8, lr}
 8005a24:	f000 b806 	b.w	8005a34 <__strtok_r>
 8005a28:	2000001c 	.word	0x2000001c
 8005a2c:	08009bc1 	.word	0x08009bc1
 8005a30:	08009bd8 	.word	0x08009bd8

08005a34 <__strtok_r>:
 8005a34:	b5f0      	push	{r4, r5, r6, r7, lr}
 8005a36:	4604      	mov	r4, r0
 8005a38:	b908      	cbnz	r0, 8005a3e <__strtok_r+0xa>
 8005a3a:	6814      	ldr	r4, [r2, #0]
 8005a3c:	b144      	cbz	r4, 8005a50 <__strtok_r+0x1c>
 8005a3e:	460f      	mov	r7, r1
 8005a40:	4620      	mov	r0, r4
 8005a42:	f814 5b01 	ldrb.w	r5, [r4], #1
 8005a46:	f817 6b01 	ldrb.w	r6, [r7], #1
 8005a4a:	b91e      	cbnz	r6, 8005a54 <__strtok_r+0x20>
 8005a4c:	b965      	cbnz	r5, 8005a68 <__strtok_r+0x34>
 8005a4e:	6015      	str	r5, [r2, #0]
 8005a50:	2000      	movs	r0, #0
 8005a52:	e005      	b.n	8005a60 <__strtok_r+0x2c>
 8005a54:	42b5      	cmp	r5, r6
 8005a56:	d1f6      	bne.n	8005a46 <__strtok_r+0x12>
 8005a58:	2b00      	cmp	r3, #0
 8005a5a:	d1f0      	bne.n	8005a3e <__strtok_r+0xa>
 8005a5c:	6014      	str	r4, [r2, #0]
 8005a5e:	7003      	strb	r3, [r0, #0]
 8005a60:	bdf0      	pop	{r4, r5, r6, r7, pc}
 8005a62:	461c      	mov	r4, r3
 8005a64:	e00c      	b.n	8005a80 <__strtok_r+0x4c>
 8005a66:	b91d      	cbnz	r5, 8005a70 <__strtok_r+0x3c>
 8005a68:	460e      	mov	r6, r1
 8005a6a:	4627      	mov	r7, r4
 8005a6c:	f814 3b01 	ldrb.w	r3, [r4], #1
 8005a70:	f816 5b01 	ldrb.w	r5, [r6], #1
 8005a74:	42ab      	cmp	r3, r5
 8005a76:	d1f6      	bne.n	8005a66 <__strtok_r+0x32>
 8005a78:	2b00      	cmp	r3, #0
 8005a7a:	d0f2      	beq.n	8005a62 <__strtok_r+0x2e>
 8005a7c:	2300      	movs	r3, #0
 8005a7e:	703b      	strb	r3, [r7, #0]
 8005a80:	6014      	str	r4, [r2, #0]
 8005a82:	e7ed      	b.n	8005a60 <__strtok_r+0x2c>

08005a84 <strstr>:
 8005a84:	780a      	ldrb	r2, [r1, #0]
 8005a86:	b570      	push	{r4, r5, r6, lr}
 8005a88:	b96a      	cbnz	r2, 8005aa6 <strstr+0x22>
 8005a8a:	bd70      	pop	{r4, r5, r6, pc}
 8005a8c:	429a      	cmp	r2, r3
 8005a8e:	d109      	bne.n	8005aa4 <strstr+0x20>
 8005a90:	460c      	mov	r4, r1
 8005a92:	4605      	mov	r5, r0
 8005a94:	f814 3f01 	ldrb.w	r3, [r4, #1]!
 8005a98:	2b00      	cmp	r3, #0
 8005a9a:	d0f6      	beq.n	8005a8a <strstr+0x6>
 8005a9c:	f815 6f01 	ldrb.w	r6, [r5, #1]!
 8005aa0:	429e      	cmp	r6, r3
 8005aa2:	d0f7      	beq.n	8005a94 <strstr+0x10>
 8005aa4:	3001      	adds	r0, #1
 8005aa6:	7803      	ldrb	r3, [r0, #0]
 8005aa8:	2b00      	cmp	r3, #0
 8005aaa:	d1ef      	bne.n	8005a8c <strstr+0x8>
 8005aac:	4618      	mov	r0, r3
 8005aae:	e7ec      	b.n	8005a8a <strstr+0x6>

08005ab0 <_close_r>:
 8005ab0:	b538      	push	{r3, r4, r5, lr}
 8005ab2:	2300      	movs	r3, #0
 8005ab4:	4d05      	ldr	r5, [pc, #20]	@ (8005acc <_close_r+0x1c>)
 8005ab6:	4604      	mov	r4, r0
 8005ab8:	4608      	mov	r0, r1
 8005aba:	602b      	str	r3, [r5, #0]
 8005abc:	f7fc f9fe 	bl	8001ebc <_close>
 8005ac0:	1c43      	adds	r3, r0, #1
 8005ac2:	d102      	bne.n	8005aca <_close_r+0x1a>
 8005ac4:	682b      	ldr	r3, [r5, #0]
 8005ac6:	b103      	cbz	r3, 8005aca <_close_r+0x1a>
 8005ac8:	6023      	str	r3, [r4, #0]
 8005aca:	bd38      	pop	{r3, r4, r5, pc}
 8005acc:	200020f4 	.word	0x200020f4

08005ad0 <_reclaim_reent>:
 8005ad0:	4b2d      	ldr	r3, [pc, #180]	@ (8005b88 <_reclaim_reent+0xb8>)
 8005ad2:	b570      	push	{r4, r5, r6, lr}
 8005ad4:	681b      	ldr	r3, [r3, #0]
 8005ad6:	4604      	mov	r4, r0
 8005ad8:	4283      	cmp	r3, r0
 8005ada:	d053      	beq.n	8005b84 <_reclaim_reent+0xb4>
 8005adc:	69c3      	ldr	r3, [r0, #28]
 8005ade:	b31b      	cbz	r3, 8005b28 <_reclaim_reent+0x58>
 8005ae0:	68db      	ldr	r3, [r3, #12]
 8005ae2:	b163      	cbz	r3, 8005afe <_reclaim_reent+0x2e>
 8005ae4:	2500      	movs	r5, #0
 8005ae6:	69e3      	ldr	r3, [r4, #28]
 8005ae8:	68db      	ldr	r3, [r3, #12]
 8005aea:	5959      	ldr	r1, [r3, r5]
 8005aec:	b9b1      	cbnz	r1, 8005b1c <_reclaim_reent+0x4c>
 8005aee:	3504      	adds	r5, #4
 8005af0:	2d80      	cmp	r5, #128	@ 0x80
 8005af2:	d1f8      	bne.n	8005ae6 <_reclaim_reent+0x16>
 8005af4:	69e3      	ldr	r3, [r4, #28]
 8005af6:	4620      	mov	r0, r4
 8005af8:	68d9      	ldr	r1, [r3, #12]
 8005afa:	f000 f8db 	bl	8005cb4 <_free_r>
 8005afe:	69e3      	ldr	r3, [r4, #28]
 8005b00:	6819      	ldr	r1, [r3, #0]
 8005b02:	b111      	cbz	r1, 8005b0a <_reclaim_reent+0x3a>
 8005b04:	4620      	mov	r0, r4
 8005b06:	f000 f8d5 	bl	8005cb4 <_free_r>
 8005b0a:	69e3      	ldr	r3, [r4, #28]
 8005b0c:	689d      	ldr	r5, [r3, #8]
 8005b0e:	b15d      	cbz	r5, 8005b28 <_reclaim_reent+0x58>
 8005b10:	4629      	mov	r1, r5
 8005b12:	4620      	mov	r0, r4
 8005b14:	682d      	ldr	r5, [r5, #0]
 8005b16:	f000 f8cd 	bl	8005cb4 <_free_r>
 8005b1a:	e7f8      	b.n	8005b0e <_reclaim_reent+0x3e>
 8005b1c:	680e      	ldr	r6, [r1, #0]
 8005b1e:	4620      	mov	r0, r4
 8005b20:	f000 f8c8 	bl	8005cb4 <_free_r>
 8005b24:	4631      	mov	r1, r6
 8005b26:	e7e1      	b.n	8005aec <_reclaim_reent+0x1c>
 8005b28:	6961      	ldr	r1, [r4, #20]
 8005b2a:	b111      	cbz	r1, 8005b32 <_reclaim_reent+0x62>
 8005b2c:	4620      	mov	r0, r4
 8005b2e:	f000 f8c1 	bl	8005cb4 <_free_r>
 8005b32:	69e1      	ldr	r1, [r4, #28]
 8005b34:	b111      	cbz	r1, 8005b3c <_reclaim_reent+0x6c>
 8005b36:	4620      	mov	r0, r4
 8005b38:	f000 f8bc 	bl	8005cb4 <_free_r>
 8005b3c:	6b21      	ldr	r1, [r4, #48]	@ 0x30
 8005b3e:	b111      	cbz	r1, 8005b46 <_reclaim_reent+0x76>
 8005b40:	4620      	mov	r0, r4
 8005b42:	f000 f8b7 	bl	8005cb4 <_free_r>
 8005b46:	6b61      	ldr	r1, [r4, #52]	@ 0x34
 8005b48:	b111      	cbz	r1, 8005b50 <_reclaim_reent+0x80>
 8005b4a:	4620      	mov	r0, r4
 8005b4c:	f000 f8b2 	bl	8005cb4 <_free_r>
 8005b50:	6ba1      	ldr	r1, [r4, #56]	@ 0x38
 8005b52:	b111      	cbz	r1, 8005b5a <_reclaim_reent+0x8a>
 8005b54:	4620      	mov	r0, r4
 8005b56:	f000 f8ad 	bl	8005cb4 <_free_r>
 8005b5a:	6ca1      	ldr	r1, [r4, #72]	@ 0x48
 8005b5c:	b111      	cbz	r1, 8005b64 <_reclaim_reent+0x94>
 8005b5e:	4620      	mov	r0, r4
 8005b60:	f000 f8a8 	bl	8005cb4 <_free_r>
 8005b64:	6c61      	ldr	r1, [r4, #68]	@ 0x44
 8005b66:	b111      	cbz	r1, 8005b6e <_reclaim_reent+0x9e>
 8005b68:	4620      	mov	r0, r4
 8005b6a:	f000 f8a3 	bl	8005cb4 <_free_r>
 8005b6e:	6ae1      	ldr	r1, [r4, #44]	@ 0x2c
 8005b70:	b111      	cbz	r1, 8005b78 <_reclaim_reent+0xa8>
 8005b72:	4620      	mov	r0, r4
 8005b74:	f000 f89e 	bl	8005cb4 <_free_r>
 8005b78:	6a23      	ldr	r3, [r4, #32]
 8005b7a:	b11b      	cbz	r3, 8005b84 <_reclaim_reent+0xb4>
 8005b7c:	4620      	mov	r0, r4
 8005b7e:	e8bd 4070 	ldmia.w	sp!, {r4, r5, r6, lr}
 8005b82:	4718      	bx	r3
 8005b84:	bd70      	pop	{r4, r5, r6, pc}
 8005b86:	bf00      	nop
 8005b88:	2000001c 	.word	0x2000001c

08005b8c <_lseek_r>:
 8005b8c:	b538      	push	{r3, r4, r5, lr}
 8005b8e:	4604      	mov	r4, r0
 8005b90:	4608      	mov	r0, r1
 8005b92:	4611      	mov	r1, r2
 8005b94:	2200      	movs	r2, #0
 8005b96:	4d05      	ldr	r5, [pc, #20]	@ (8005bac <_lseek_r+0x20>)
 8005b98:	602a      	str	r2, [r5, #0]
 8005b9a:	461a      	mov	r2, r3
 8005b9c:	f7fc f998 	bl	8001ed0 <_lseek>
 8005ba0:	1c43      	adds	r3, r0, #1
 8005ba2:	d102      	bne.n	8005baa <_lseek_r+0x1e>
 8005ba4:	682b      	ldr	r3, [r5, #0]
 8005ba6:	b103      	cbz	r3, 8005baa <_lseek_r+0x1e>
 8005ba8:	6023      	str	r3, [r4, #0]
 8005baa:	bd38      	pop	{r3, r4, r5, pc}
 8005bac:	200020f4 	.word	0x200020f4

08005bb0 <_read_r>:
 8005bb0:	b538      	push	{r3, r4, r5, lr}
 8005bb2:	4604      	mov	r4, r0
 8005bb4:	4608      	mov	r0, r1
 8005bb6:	4611      	mov	r1, r2
 8005bb8:	2200      	movs	r2, #0
 8005bba:	4d05      	ldr	r5, [pc, #20]	@ (8005bd0 <_read_r+0x20>)
 8005bbc:	602a      	str	r2, [r5, #0]
 8005bbe:	461a      	mov	r2, r3
 8005bc0:	f7fc f960 	bl	8001e84 <_read>
 8005bc4:	1c43      	adds	r3, r0, #1
 8005bc6:	d102      	bne.n	8005bce <_read_r+0x1e>
 8005bc8:	682b      	ldr	r3, [r5, #0]
 8005bca:	b103      	cbz	r3, 8005bce <_read_r+0x1e>
 8005bcc:	6023      	str	r3, [r4, #0]
 8005bce:	bd38      	pop	{r3, r4, r5, pc}
 8005bd0:	200020f4 	.word	0x200020f4

08005bd4 <_write_r>:
 8005bd4:	b538      	push	{r3, r4, r5, lr}
 8005bd6:	4604      	mov	r4, r0
 8005bd8:	4608      	mov	r0, r1
 8005bda:	4611      	mov	r1, r2
 8005bdc:	2200      	movs	r2, #0
 8005bde:	4d05      	ldr	r5, [pc, #20]	@ (8005bf4 <_write_r+0x20>)
 8005be0:	602a      	str	r2, [r5, #0]
 8005be2:	461a      	mov	r2, r3
 8005be4:	f7fc f95c 	bl	8001ea0 <_write>
 8005be8:	1c43      	adds	r3, r0, #1
 8005bea:	d102      	bne.n	8005bf2 <_write_r+0x1e>
 8005bec:	682b      	ldr	r3, [r5, #0]
 8005bee:	b103      	cbz	r3, 8005bf2 <_write_r+0x1e>
 8005bf0:	6023      	str	r3, [r4, #0]
 8005bf2:	bd38      	pop	{r3, r4, r5, pc}
 8005bf4:	200020f4 	.word	0x200020f4

08005bf8 <__errno>:
 8005bf8:	4b01      	ldr	r3, [pc, #4]	@ (8005c00 <__errno+0x8>)
 8005bfa:	6818      	ldr	r0, [r3, #0]
 8005bfc:	4770      	bx	lr
 8005bfe:	bf00      	nop
 8005c00:	2000001c 	.word	0x2000001c

08005c04 <__libc_init_array>:
 8005c04:	b570      	push	{r4, r5, r6, lr}
 8005c06:	2600      	movs	r6, #0
 8005c08:	4d0c      	ldr	r5, [pc, #48]	@ (8005c3c <__libc_init_array+0x38>)
 8005c0a:	4c0d      	ldr	r4, [pc, #52]	@ (8005c40 <__libc_init_array+0x3c>)
 8005c0c:	1b64      	subs	r4, r4, r5
 8005c0e:	10a4      	asrs	r4, r4, #2
 8005c10:	42a6      	cmp	r6, r4
 8005c12:	d109      	bne.n	8005c28 <__libc_init_array+0x24>
 8005c14:	f003 fa8c 	bl	8009130 <_init>
 8005c18:	2600      	movs	r6, #0
 8005c1a:	4d0a      	ldr	r5, [pc, #40]	@ (8005c44 <__libc_init_array+0x40>)
 8005c1c:	4c0a      	ldr	r4, [pc, #40]	@ (8005c48 <__libc_init_array+0x44>)
 8005c1e:	1b64      	subs	r4, r4, r5
 8005c20:	10a4      	asrs	r4, r4, #2
 8005c22:	42a6      	cmp	r6, r4
 8005c24:	d105      	bne.n	8005c32 <__libc_init_array+0x2e>
 8005c26:	bd70      	pop	{r4, r5, r6, pc}
 8005c28:	f855 3b04 	ldr.w	r3, [r5], #4
 8005c2c:	4798      	blx	r3
 8005c2e:	3601      	adds	r6, #1
 8005c30:	e7ee      	b.n	8005c10 <__libc_init_array+0xc>
 8005c32:	f855 3b04 	ldr.w	r3, [r5], #4
 8005c36:	4798      	blx	r3
 8005c38:	3601      	adds	r6, #1
 8005c3a:	e7f2      	b.n	8005c22 <__libc_init_array+0x1e>
 8005c3c:	0800a068 	.word	0x0800a068
 8005c40:	0800a068 	.word	0x0800a068
 8005c44:	0800a068 	.word	0x0800a068
 8005c48:	0800a06c 	.word	0x0800a06c

08005c4c <__retarget_lock_init_recursive>:
 8005c4c:	4770      	bx	lr

08005c4e <__retarget_lock_acquire_recursive>:
 8005c4e:	4770      	bx	lr

08005c50 <__retarget_lock_release_recursive>:
 8005c50:	4770      	bx	lr

08005c52 <memcpy>:
 8005c52:	440a      	add	r2, r1
 8005c54:	4291      	cmp	r1, r2
 8005c56:	f100 33ff 	add.w	r3, r0, #4294967295
 8005c5a:	d100      	bne.n	8005c5e <memcpy+0xc>
 8005c5c:	4770      	bx	lr
 8005c5e:	b510      	push	{r4, lr}
 8005c60:	f811 4b01 	ldrb.w	r4, [r1], #1
 8005c64:	4291      	cmp	r1, r2
 8005c66:	f803 4f01 	strb.w	r4, [r3, #1]!
 8005c6a:	d1f9      	bne.n	8005c60 <memcpy+0xe>
 8005c6c:	bd10      	pop	{r4, pc}
	...

08005c70 <nanf>:
 8005c70:	4800      	ldr	r0, [pc, #0]	@ (8005c74 <nanf+0x4>)
 8005c72:	4770      	bx	lr
 8005c74:	7fc00000 	.word	0x7fc00000

08005c78 <__assert_func>:
 8005c78:	b51f      	push	{r0, r1, r2, r3, r4, lr}
 8005c7a:	4614      	mov	r4, r2
 8005c7c:	461a      	mov	r2, r3
 8005c7e:	4b09      	ldr	r3, [pc, #36]	@ (8005ca4 <__assert_func+0x2c>)
 8005c80:	4605      	mov	r5, r0
 8005c82:	681b      	ldr	r3, [r3, #0]
 8005c84:	68d8      	ldr	r0, [r3, #12]
 8005c86:	b14c      	cbz	r4, 8005c9c <__assert_func+0x24>
 8005c88:	4b07      	ldr	r3, [pc, #28]	@ (8005ca8 <__assert_func+0x30>)
 8005c8a:	e9cd 3401 	strd	r3, r4, [sp, #4]
 8005c8e:	9100      	str	r1, [sp, #0]
 8005c90:	462b      	mov	r3, r5
 8005c92:	4906      	ldr	r1, [pc, #24]	@ (8005cac <__assert_func+0x34>)
 8005c94:	f001 fe34 	bl	8007900 <fiprintf>
 8005c98:	f001 fef4 	bl	8007a84 <abort>
 8005c9c:	4b04      	ldr	r3, [pc, #16]	@ (8005cb0 <__assert_func+0x38>)
 8005c9e:	461c      	mov	r4, r3
 8005ca0:	e7f3      	b.n	8005c8a <__assert_func+0x12>
 8005ca2:	bf00      	nop
 8005ca4:	2000001c 	.word	0x2000001c
 8005ca8:	08009c32 	.word	0x08009c32
 8005cac:	08009c3f 	.word	0x08009c3f
 8005cb0:	08009455 	.word	0x08009455

08005cb4 <_free_r>:
 8005cb4:	b538      	push	{r3, r4, r5, lr}
 8005cb6:	4605      	mov	r5, r0
 8005cb8:	2900      	cmp	r1, #0
 8005cba:	d040      	beq.n	8005d3e <_free_r+0x8a>
 8005cbc:	f851 3c04 	ldr.w	r3, [r1, #-4]
 8005cc0:	1f0c      	subs	r4, r1, #4
 8005cc2:	2b00      	cmp	r3, #0
 8005cc4:	bfb8      	it	lt
 8005cc6:	18e4      	addlt	r4, r4, r3
 8005cc8:	f000 f8e6 	bl	8005e98 <__malloc_lock>
 8005ccc:	4a1c      	ldr	r2, [pc, #112]	@ (8005d40 <_free_r+0x8c>)
 8005cce:	6813      	ldr	r3, [r2, #0]
 8005cd0:	b933      	cbnz	r3, 8005ce0 <_free_r+0x2c>
 8005cd2:	6063      	str	r3, [r4, #4]
 8005cd4:	6014      	str	r4, [r2, #0]
 8005cd6:	4628      	mov	r0, r5
 8005cd8:	e8bd 4038 	ldmia.w	sp!, {r3, r4, r5, lr}
 8005cdc:	f000 b8e2 	b.w	8005ea4 <__malloc_unlock>
 8005ce0:	42a3      	cmp	r3, r4
 8005ce2:	d908      	bls.n	8005cf6 <_free_r+0x42>
 8005ce4:	6820      	ldr	r0, [r4, #0]
 8005ce6:	1821      	adds	r1, r4, r0
 8005ce8:	428b      	cmp	r3, r1
 8005cea:	bf01      	itttt	eq
 8005cec:	6819      	ldreq	r1, [r3, #0]
 8005cee:	685b      	ldreq	r3, [r3, #4]
 8005cf0:	1809      	addeq	r1, r1, r0
 8005cf2:	6021      	streq	r1, [r4, #0]
 8005cf4:	e7ed      	b.n	8005cd2 <_free_r+0x1e>
 8005cf6:	461a      	mov	r2, r3
 8005cf8:	685b      	ldr	r3, [r3, #4]
 8005cfa:	b10b      	cbz	r3, 8005d00 <_free_r+0x4c>
 8005cfc:	42a3      	cmp	r3, r4
 8005cfe:	d9fa      	bls.n	8005cf6 <_free_r+0x42>
 8005d00:	6811      	ldr	r1, [r2, #0]
 8005d02:	1850      	adds	r0, r2, r1
 8005d04:	42a0      	cmp	r0, r4
 8005d06:	d10b      	bne.n	8005d20 <_free_r+0x6c>
 8005d08:	6820      	ldr	r0, [r4, #0]
 8005d0a:	4401      	add	r1, r0
 8005d0c:	1850      	adds	r0, r2, r1
 8005d0e:	4283      	cmp	r3, r0
 8005d10:	6011      	str	r1, [r2, #0]
 8005d12:	d1e0      	bne.n	8005cd6 <_free_r+0x22>
 8005d14:	6818      	ldr	r0, [r3, #0]
 8005d16:	685b      	ldr	r3, [r3, #4]
 8005d18:	4408      	add	r0, r1
 8005d1a:	6010      	str	r0, [r2, #0]
 8005d1c:	6053      	str	r3, [r2, #4]
 8005d1e:	e7da      	b.n	8005cd6 <_free_r+0x22>
 8005d20:	d902      	bls.n	8005d28 <_free_r+0x74>
 8005d22:	230c      	movs	r3, #12
 8005d24:	602b      	str	r3, [r5, #0]
 8005d26:	e7d6      	b.n	8005cd6 <_free_r+0x22>
 8005d28:	6820      	ldr	r0, [r4, #0]
 8005d2a:	1821      	adds	r1, r4, r0
 8005d2c:	428b      	cmp	r3, r1
 8005d2e:	bf01      	itttt	eq
 8005d30:	6819      	ldreq	r1, [r3, #0]
 8005d32:	685b      	ldreq	r3, [r3, #4]
 8005d34:	1809      	addeq	r1, r1, r0
 8005d36:	6021      	streq	r1, [r4, #0]
 8005d38:	6063      	str	r3, [r4, #4]
 8005d3a:	6054      	str	r4, [r2, #4]
 8005d3c:	e7cb      	b.n	8005cd6 <_free_r+0x22>
 8005d3e:	bd38      	pop	{r3, r4, r5, pc}
 8005d40:	20002100 	.word	0x20002100

08005d44 <malloc>:
 8005d44:	4b02      	ldr	r3, [pc, #8]	@ (8005d50 <malloc+0xc>)
 8005d46:	4601      	mov	r1, r0
 8005d48:	6818      	ldr	r0, [r3, #0]
 8005d4a:	f000 b825 	b.w	8005d98 <_malloc_r>
 8005d4e:	bf00      	nop
 8005d50:	2000001c 	.word	0x2000001c

08005d54 <sbrk_aligned>:
 8005d54:	b570      	push	{r4, r5, r6, lr}
 8005d56:	4e0f      	ldr	r6, [pc, #60]	@ (8005d94 <sbrk_aligned+0x40>)
 8005d58:	460c      	mov	r4, r1
 8005d5a:	6831      	ldr	r1, [r6, #0]
 8005d5c:	4605      	mov	r5, r0
 8005d5e:	b911      	cbnz	r1, 8005d66 <sbrk_aligned+0x12>
 8005d60:	f001 fe6c 	bl	8007a3c <_sbrk_r>
 8005d64:	6030      	str	r0, [r6, #0]
 8005d66:	4621      	mov	r1, r4
 8005d68:	4628      	mov	r0, r5
 8005d6a:	f001 fe67 	bl	8007a3c <_sbrk_r>
 8005d6e:	1c43      	adds	r3, r0, #1
 8005d70:	d103      	bne.n	8005d7a <sbrk_aligned+0x26>
 8005d72:	f04f 34ff 	mov.w	r4, #4294967295
 8005d76:	4620      	mov	r0, r4
 8005d78:	bd70      	pop	{r4, r5, r6, pc}
 8005d7a:	1cc4      	adds	r4, r0, #3
 8005d7c:	f024 0403 	bic.w	r4, r4, #3
 8005d80:	42a0      	cmp	r0, r4
 8005d82:	d0f8      	beq.n	8005d76 <sbrk_aligned+0x22>
 8005d84:	1a21      	subs	r1, r4, r0
 8005d86:	4628      	mov	r0, r5
 8005d88:	f001 fe58 	bl	8007a3c <_sbrk_r>
 8005d8c:	3001      	adds	r0, #1
 8005d8e:	d1f2      	bne.n	8005d76 <sbrk_aligned+0x22>
 8005d90:	e7ef      	b.n	8005d72 <sbrk_aligned+0x1e>
 8005d92:	bf00      	nop
 8005d94:	200020fc 	.word	0x200020fc

08005d98 <_malloc_r>:
 8005d98:	e92d 43f8 	stmdb	sp!, {r3, r4, r5, r6, r7, r8, r9, lr}
 8005d9c:	1ccd      	adds	r5, r1, #3
 8005d9e:	f025 0503 	bic.w	r5, r5, #3
 8005da2:	3508      	adds	r5, #8
 8005da4:	2d0c      	cmp	r5, #12
 8005da6:	bf38      	it	cc
 8005da8:	250c      	movcc	r5, #12
 8005daa:	2d00      	cmp	r5, #0
 8005dac:	4606      	mov	r6, r0
 8005dae:	db01      	blt.n	8005db4 <_malloc_r+0x1c>
 8005db0:	42a9      	cmp	r1, r5
 8005db2:	d904      	bls.n	8005dbe <_malloc_r+0x26>
 8005db4:	230c      	movs	r3, #12
 8005db6:	6033      	str	r3, [r6, #0]
 8005db8:	2000      	movs	r0, #0
 8005dba:	e8bd 83f8 	ldmia.w	sp!, {r3, r4, r5, r6, r7, r8, r9, pc}
 8005dbe:	f8df 80d4 	ldr.w	r8, [pc, #212]	@ 8005e94 <_malloc_r+0xfc>
 8005dc2:	f000 f869 	bl	8005e98 <__malloc_lock>
 8005dc6:	f8d8 3000 	ldr.w	r3, [r8]
 8005dca:	461c      	mov	r4, r3
 8005dcc:	bb44      	cbnz	r4, 8005e20 <_malloc_r+0x88>
 8005dce:	4629      	mov	r1, r5
 8005dd0:	4630      	mov	r0, r6
 8005dd2:	f7ff ffbf 	bl	8005d54 <sbrk_aligned>
 8005dd6:	1c43      	adds	r3, r0, #1
 8005dd8:	4604      	mov	r4, r0
 8005dda:	d158      	bne.n	8005e8e <_malloc_r+0xf6>
 8005ddc:	f8d8 4000 	ldr.w	r4, [r8]
 8005de0:	4627      	mov	r7, r4
 8005de2:	2f00      	cmp	r7, #0
 8005de4:	d143      	bne.n	8005e6e <_malloc_r+0xd6>
 8005de6:	2c00      	cmp	r4, #0
 8005de8:	d04b      	beq.n	8005e82 <_malloc_r+0xea>
 8005dea:	6823      	ldr	r3, [r4, #0]
 8005dec:	4639      	mov	r1, r7
 8005dee:	4630      	mov	r0, r6
 8005df0:	eb04 0903 	add.w	r9, r4, r3
 8005df4:	f001 fe22 	bl	8007a3c <_sbrk_r>
 8005df8:	4581      	cmp	r9, r0
 8005dfa:	d142      	bne.n	8005e82 <_malloc_r+0xea>
 8005dfc:	6821      	ldr	r1, [r4, #0]
 8005dfe:	4630      	mov	r0, r6
 8005e00:	1a6d      	subs	r5, r5, r1
 8005e02:	4629      	mov	r1, r5
 8005e04:	f7ff ffa6 	bl	8005d54 <sbrk_aligned>
 8005e08:	3001      	adds	r0, #1
 8005e0a:	d03a      	beq.n	8005e82 <_malloc_r+0xea>
 8005e0c:	6823      	ldr	r3, [r4, #0]
 8005e0e:	442b      	add	r3, r5
 8005e10:	6023      	str	r3, [r4, #0]
 8005e12:	f8d8 3000 	ldr.w	r3, [r8]
 8005e16:	685a      	ldr	r2, [r3, #4]
 8005e18:	bb62      	cbnz	r2, 8005e74 <_malloc_r+0xdc>
 8005e1a:	f8c8 7000 	str.w	r7, [r8]
 8005e1e:	e00f      	b.n	8005e40 <_malloc_r+0xa8>
 8005e20:	6822      	ldr	r2, [r4, #0]
 8005e22:	1b52      	subs	r2, r2, r5
 8005e24:	d420      	bmi.n	8005e68 <_malloc_r+0xd0>
 8005e26:	2a0b      	cmp	r2, #11
 8005e28:	d917      	bls.n	8005e5a <_malloc_r+0xc2>
 8005e2a:	1961      	adds	r1, r4, r5
 8005e2c:	42a3      	cmp	r3, r4
 8005e2e:	6025      	str	r5, [r4, #0]
 8005e30:	bf18      	it	ne
 8005e32:	6059      	strne	r1, [r3, #4]
 8005e34:	6863      	ldr	r3, [r4, #4]
 8005e36:	bf08      	it	eq
 8005e38:	f8c8 1000 	streq.w	r1, [r8]
 8005e3c:	5162      	str	r2, [r4, r5]
 8005e3e:	604b      	str	r3, [r1, #4]
 8005e40:	4630      	mov	r0, r6
 8005e42:	f000 f82f 	bl	8005ea4 <__malloc_unlock>
 8005e46:	f104 000b 	add.w	r0, r4, #11
 8005e4a:	1d23      	adds	r3, r4, #4
 8005e4c:	f020 0007 	bic.w	r0, r0, #7
 8005e50:	1ac2      	subs	r2, r0, r3
 8005e52:	bf1c      	itt	ne
 8005e54:	1a1b      	subne	r3, r3, r0
 8005e56:	50a3      	strne	r3, [r4, r2]
 8005e58:	e7af      	b.n	8005dba <_malloc_r+0x22>
 8005e5a:	6862      	ldr	r2, [r4, #4]
 8005e5c:	42a3      	cmp	r3, r4
 8005e5e:	bf0c      	ite	eq
 8005e60:	f8c8 2000 	streq.w	r2, [r8]
 8005e64:	605a      	strne	r2, [r3, #4]
 8005e66:	e7eb      	b.n	8005e40 <_malloc_r+0xa8>
 8005e68:	4623      	mov	r3, r4
 8005e6a:	6864      	ldr	r4, [r4, #4]
 8005e6c:	e7ae      	b.n	8005dcc <_malloc_r+0x34>
 8005e6e:	463c      	mov	r4, r7
 8005e70:	687f      	ldr	r7, [r7, #4]
 8005e72:	e7b6      	b.n	8005de2 <_malloc_r+0x4a>
 8005e74:	461a      	mov	r2, r3
 8005e76:	685b      	ldr	r3, [r3, #4]
 8005e78:	42a3      	cmp	r3, r4
 8005e7a:	d1fb      	bne.n	8005e74 <_malloc_r+0xdc>
 8005e7c:	2300      	movs	r3, #0
 8005e7e:	6053      	str	r3, [r2, #4]
 8005e80:	e7de      	b.n	8005e40 <_malloc_r+0xa8>
 8005e82:	230c      	movs	r3, #12
 8005e84:	4630      	mov	r0, r6
 8005e86:	6033      	str	r3, [r6, #0]
 8005e88:	f000 f80c 	bl	8005ea4 <__malloc_unlock>
 8005e8c:	e794      	b.n	8005db8 <_malloc_r+0x20>
 8005e8e:	6005      	str	r5, [r0, #0]
 8005e90:	e7d6      	b.n	8005e40 <_malloc_r+0xa8>
 8005e92:	bf00      	nop
 8005e94:	20002100 	.word	0x20002100

08005e98 <__malloc_lock>:
 8005e98:	4801      	ldr	r0, [pc, #4]	@ (8005ea0 <__malloc_lock+0x8>)
 8005e9a:	f7ff bed8 	b.w	8005c4e <__retarget_lock_acquire_recursive>
 8005e9e:	bf00      	nop
 8005ea0:	200020f8 	.word	0x200020f8

08005ea4 <__malloc_unlock>:
 8005ea4:	4801      	ldr	r0, [pc, #4]	@ (8005eac <__malloc_unlock+0x8>)
 8005ea6:	f7ff bed3 	b.w	8005c50 <__retarget_lock_release_recursive>
 8005eaa:	bf00      	nop
 8005eac:	200020f8 	.word	0x200020f8

08005eb0 <sulp>:
 8005eb0:	e92d 41f0 	stmdb	sp!, {r4, r5, r6, r7, r8, lr}
 8005eb4:	460f      	mov	r7, r1
 8005eb6:	4690      	mov	r8, r2
 8005eb8:	f002 fca4 	bl	8008804 <__ulp>
 8005ebc:	4604      	mov	r4, r0
 8005ebe:	460d      	mov	r5, r1
 8005ec0:	f1b8 0f00 	cmp.w	r8, #0
 8005ec4:	d011      	beq.n	8005eea <sulp+0x3a>
 8005ec6:	f3c7 530a 	ubfx	r3, r7, #20, #11
 8005eca:	f1c3 036b 	rsb	r3, r3, #107	@ 0x6b
 8005ece:	2b00      	cmp	r3, #0
 8005ed0:	dd0b      	ble.n	8005eea <sulp+0x3a>
 8005ed2:	2400      	movs	r4, #0
 8005ed4:	051b      	lsls	r3, r3, #20
 8005ed6:	f103 557f 	add.w	r5, r3, #1069547520	@ 0x3fc00000
 8005eda:	f505 1540 	add.w	r5, r5, #3145728	@ 0x300000
 8005ede:	4622      	mov	r2, r4
 8005ee0:	462b      	mov	r3, r5
 8005ee2:	f7fa fb03 	bl	80004ec <__aeabi_dmul>
 8005ee6:	4604      	mov	r4, r0
 8005ee8:	460d      	mov	r5, r1
 8005eea:	4620      	mov	r0, r4
 8005eec:	4629      	mov	r1, r5
 8005eee:	e8bd 81f0 	ldmia.w	sp!, {r4, r5, r6, r7, r8, pc}
 8005ef2:	0000      	movs	r0, r0
 8005ef4:	0000      	movs	r0, r0
	...

08005ef8 <_strtod_l>:
 8005ef8:	e92d 4ff0 	stmdb	sp!, {r4, r5, r6, r7, r8, r9, sl, fp, lr}
 8005efc:	b09f      	sub	sp, #124	@ 0x7c
 8005efe:	9217      	str	r2, [sp, #92]	@ 0x5c
 8005f00:	2200      	movs	r2, #0
 8005f02:	460c      	mov	r4, r1
 8005f04:	921a      	str	r2, [sp, #104]	@ 0x68
 8005f06:	f04f 0a00 	mov.w	sl, #0
 8005f0a:	f04f 0b00 	mov.w	fp, #0
 8005f0e:	460a      	mov	r2, r1
 8005f10:	9005      	str	r0, [sp, #20]
 8005f12:	9219      	str	r2, [sp, #100]	@ 0x64
 8005f14:	7811      	ldrb	r1, [r2, #0]
 8005f16:	292b      	cmp	r1, #43	@ 0x2b
 8005f18:	d048      	beq.n	8005fac <_strtod_l+0xb4>
 8005f1a:	d836      	bhi.n	8005f8a <_strtod_l+0x92>
 8005f1c:	290d      	cmp	r1, #13
 8005f1e:	d830      	bhi.n	8005f82 <_strtod_l+0x8a>
 8005f20:	2908      	cmp	r1, #8
 8005f22:	d830      	bhi.n	8005f86 <_strtod_l+0x8e>
 8005f24:	2900      	cmp	r1, #0
 8005f26:	d039      	beq.n	8005f9c <_strtod_l+0xa4>
 8005f28:	2200      	movs	r2, #0
 8005f2a:	920e      	str	r2, [sp, #56]	@ 0x38
 8005f2c:	9d19      	ldr	r5, [sp, #100]	@ 0x64
 8005f2e:	782a      	ldrb	r2, [r5, #0]
 8005f30:	2a30      	cmp	r2, #48	@ 0x30
 8005f32:	f040 80b0 	bne.w	8006096 <_strtod_l+0x19e>
 8005f36:	786a      	ldrb	r2, [r5, #1]
 8005f38:	f002 02df 	and.w	r2, r2, #223	@ 0xdf
 8005f3c:	2a58      	cmp	r2, #88	@ 0x58
 8005f3e:	d16c      	bne.n	800601a <_strtod_l+0x122>
 8005f40:	9302      	str	r3, [sp, #8]
 8005f42:	9b0e      	ldr	r3, [sp, #56]	@ 0x38
 8005f44:	4a8f      	ldr	r2, [pc, #572]	@ (8006184 <_strtod_l+0x28c>)
 8005f46:	9301      	str	r3, [sp, #4]
 8005f48:	ab1a      	add	r3, sp, #104	@ 0x68
 8005f4a:	9300      	str	r3, [sp, #0]
 8005f4c:	9805      	ldr	r0, [sp, #20]
 8005f4e:	ab1b      	add	r3, sp, #108	@ 0x6c
 8005f50:	a919      	add	r1, sp, #100	@ 0x64
 8005f52:	f001 fe07 	bl	8007b64 <__gethex>
 8005f56:	f010 060f 	ands.w	r6, r0, #15
 8005f5a:	4604      	mov	r4, r0
 8005f5c:	d005      	beq.n	8005f6a <_strtod_l+0x72>
 8005f5e:	2e06      	cmp	r6, #6
 8005f60:	d126      	bne.n	8005fb0 <_strtod_l+0xb8>
 8005f62:	2300      	movs	r3, #0
 8005f64:	3501      	adds	r5, #1
 8005f66:	9519      	str	r5, [sp, #100]	@ 0x64
 8005f68:	930e      	str	r3, [sp, #56]	@ 0x38
 8005f6a:	9b17      	ldr	r3, [sp, #92]	@ 0x5c
 8005f6c:	2b00      	cmp	r3, #0
 8005f6e:	f040 8582 	bne.w	8006a76 <_strtod_l+0xb7e>
 8005f72:	9b0e      	ldr	r3, [sp, #56]	@ 0x38
 8005f74:	b1bb      	cbz	r3, 8005fa6 <_strtod_l+0xae>
 8005f76:	4650      	mov	r0, sl
 8005f78:	f10b 4100 	add.w	r1, fp, #2147483648	@ 0x80000000
 8005f7c:	b01f      	add	sp, #124	@ 0x7c
 8005f7e:	e8bd 8ff0 	ldmia.w	sp!, {r4, r5, r6, r7, r8, r9, sl, fp, pc}
 8005f82:	2920      	cmp	r1, #32
 8005f84:	d1d0      	bne.n	8005f28 <_strtod_l+0x30>
 8005f86:	3201      	adds	r2, #1
 8005f88:	e7c3      	b.n	8005f12 <_strtod_l+0x1a>
 8005f8a:	292d      	cmp	r1, #45	@ 0x2d
 8005f8c:	d1cc      	bne.n	8005f28 <_strtod_l+0x30>
 8005f8e:	2101      	movs	r1, #1
 8005f90:	910e      	str	r1, [sp, #56]	@ 0x38
 8005f92:	1c51      	adds	r1, r2, #1
 8005f94:	9119      	str	r1, [sp, #100]	@ 0x64
 8005f96:	7852      	ldrb	r2, [r2, #1]
 8005f98:	2a00      	cmp	r2, #0
 8005f9a:	d1c7      	bne.n	8005f2c <_strtod_l+0x34>
 8005f9c:	9b17      	ldr	r3, [sp, #92]	@ 0x5c
 8005f9e:	9419      	str	r4, [sp, #100]	@ 0x64
 8005fa0:	2b00      	cmp	r3, #0
 8005fa2:	f040 8566 	bne.w	8006a72 <_strtod_l+0xb7a>
 8005fa6:	4650      	mov	r0, sl
 8005fa8:	4659      	mov	r1, fp
 8005faa:	e7e7      	b.n	8005f7c <_strtod_l+0x84>
 8005fac:	2100      	movs	r1, #0
 8005fae:	e7ef      	b.n	8005f90 <_strtod_l+0x98>
 8005fb0:	9a1a      	ldr	r2, [sp, #104]	@ 0x68
 8005fb2:	b13a      	cbz	r2, 8005fc4 <_strtod_l+0xcc>
 8005fb4:	2135      	movs	r1, #53	@ 0x35
 8005fb6:	a81c      	add	r0, sp, #112	@ 0x70
 8005fb8:	f002 fd14 	bl	80089e4 <__copybits>
 8005fbc:	991a      	ldr	r1, [sp, #104]	@ 0x68
 8005fbe:	9805      	ldr	r0, [sp, #20]
 8005fc0:	f002 f8f4 	bl	80081ac <_Bfree>
 8005fc4:	3e01      	subs	r6, #1
 8005fc6:	9a1b      	ldr	r2, [sp, #108]	@ 0x6c
 8005fc8:	2e04      	cmp	r6, #4
 8005fca:	d806      	bhi.n	8005fda <_strtod_l+0xe2>
 8005fcc:	e8df f006 	tbb	[pc, r6]
 8005fd0:	201d0314 	.word	0x201d0314
 8005fd4:	14          	.byte	0x14
 8005fd5:	00          	.byte	0x00
 8005fd6:	e9dd ab1c 	ldrd	sl, fp, [sp, #112]	@ 0x70
 8005fda:	05e1      	lsls	r1, r4, #23
 8005fdc:	bf48      	it	mi
 8005fde:	f04b 4b00 	orrmi.w	fp, fp, #2147483648	@ 0x80000000
 8005fe2:	f02b 4300 	bic.w	r3, fp, #2147483648	@ 0x80000000
 8005fe6:	0d1b      	lsrs	r3, r3, #20
 8005fe8:	051b      	lsls	r3, r3, #20
 8005fea:	2b00      	cmp	r3, #0
 8005fec:	d1bd      	bne.n	8005f6a <_strtod_l+0x72>
 8005fee:	f7ff fe03 	bl	8005bf8 <__errno>
 8005ff2:	2322      	movs	r3, #34	@ 0x22
 8005ff4:	6003      	str	r3, [r0, #0]
 8005ff6:	e7b8      	b.n	8005f6a <_strtod_l+0x72>
 8005ff8:	f202 4233 	addw	r2, r2, #1075	@ 0x433
 8005ffc:	e9dd a31c 	ldrd	sl, r3, [sp, #112]	@ 0x70
 8006000:	f423 1380 	bic.w	r3, r3, #1048576	@ 0x100000
 8006004:	ea43 5b02 	orr.w	fp, r3, r2, lsl #20
 8006008:	e7e7      	b.n	8005fda <_strtod_l+0xe2>
 800600a:	f8df b17c 	ldr.w	fp, [pc, #380]	@ 8006188 <_strtod_l+0x290>
 800600e:	e7e4      	b.n	8005fda <_strtod_l+0xe2>
 8006010:	f06f 4b00 	mvn.w	fp, #2147483648	@ 0x80000000
 8006014:	f04f 3aff 	mov.w	sl, #4294967295
 8006018:	e7df      	b.n	8005fda <_strtod_l+0xe2>
 800601a:	9b19      	ldr	r3, [sp, #100]	@ 0x64
 800601c:	1c5a      	adds	r2, r3, #1
 800601e:	9219      	str	r2, [sp, #100]	@ 0x64
 8006020:	785b      	ldrb	r3, [r3, #1]
 8006022:	2b30      	cmp	r3, #48	@ 0x30
 8006024:	d0f9      	beq.n	800601a <_strtod_l+0x122>
 8006026:	2b00      	cmp	r3, #0
 8006028:	d09f      	beq.n	8005f6a <_strtod_l+0x72>
 800602a:	2301      	movs	r3, #1
 800602c:	2700      	movs	r7, #0
 800602e:	220a      	movs	r2, #10
 8006030:	46b9      	mov	r9, r7
 8006032:	9308      	str	r3, [sp, #32]
 8006034:	9b19      	ldr	r3, [sp, #100]	@ 0x64
 8006036:	970b      	str	r7, [sp, #44]	@ 0x2c
 8006038:	930c      	str	r3, [sp, #48]	@ 0x30
 800603a:	9819      	ldr	r0, [sp, #100]	@ 0x64
 800603c:	7805      	ldrb	r5, [r0, #0]
 800603e:	f1a5 0330 	sub.w	r3, r5, #48	@ 0x30
 8006042:	b2d9      	uxtb	r1, r3
 8006044:	2909      	cmp	r1, #9
 8006046:	d928      	bls.n	800609a <_strtod_l+0x1a2>
 8006048:	2201      	movs	r2, #1
 800604a:	4950      	ldr	r1, [pc, #320]	@ (800618c <_strtod_l+0x294>)
 800604c:	f7ff fc98 	bl	8005980 <strncmp>
 8006050:	2800      	cmp	r0, #0
 8006052:	d032      	beq.n	80060ba <_strtod_l+0x1c2>
 8006054:	2000      	movs	r0, #0
 8006056:	462a      	mov	r2, r5
 8006058:	4603      	mov	r3, r0
 800605a:	464d      	mov	r5, r9
 800605c:	900a      	str	r0, [sp, #40]	@ 0x28
 800605e:	2a65      	cmp	r2, #101	@ 0x65
 8006060:	d001      	beq.n	8006066 <_strtod_l+0x16e>
 8006062:	2a45      	cmp	r2, #69	@ 0x45
 8006064:	d114      	bne.n	8006090 <_strtod_l+0x198>
 8006066:	b91d      	cbnz	r5, 8006070 <_strtod_l+0x178>
 8006068:	9a08      	ldr	r2, [sp, #32]
 800606a:	4302      	orrs	r2, r0
 800606c:	d096      	beq.n	8005f9c <_strtod_l+0xa4>
 800606e:	2500      	movs	r5, #0
 8006070:	9c19      	ldr	r4, [sp, #100]	@ 0x64
 8006072:	1c62      	adds	r2, r4, #1
 8006074:	9219      	str	r2, [sp, #100]	@ 0x64
 8006076:	7862      	ldrb	r2, [r4, #1]
 8006078:	2a2b      	cmp	r2, #43	@ 0x2b
 800607a:	d07a      	beq.n	8006172 <_strtod_l+0x27a>
 800607c:	2a2d      	cmp	r2, #45	@ 0x2d
 800607e:	d07e      	beq.n	800617e <_strtod_l+0x286>
 8006080:	f04f 0c00 	mov.w	ip, #0
 8006084:	f1a2 0130 	sub.w	r1, r2, #48	@ 0x30
 8006088:	2909      	cmp	r1, #9
 800608a:	f240 8085 	bls.w	8006198 <_strtod_l+0x2a0>
 800608e:	9419      	str	r4, [sp, #100]	@ 0x64
 8006090:	f04f 0800 	mov.w	r8, #0
 8006094:	e0a5      	b.n	80061e2 <_strtod_l+0x2ea>
 8006096:	2300      	movs	r3, #0
 8006098:	e7c8      	b.n	800602c <_strtod_l+0x134>
 800609a:	f1b9 0f08 	cmp.w	r9, #8
 800609e:	bfd8      	it	le
 80060a0:	990b      	ldrle	r1, [sp, #44]	@ 0x2c
 80060a2:	f100 0001 	add.w	r0, r0, #1
 80060a6:	bfd6      	itet	le
 80060a8:	fb02 3301 	mlale	r3, r2, r1, r3
 80060ac:	fb02 3707 	mlagt	r7, r2, r7, r3
 80060b0:	930b      	strle	r3, [sp, #44]	@ 0x2c
 80060b2:	f109 0901 	add.w	r9, r9, #1
 80060b6:	9019      	str	r0, [sp, #100]	@ 0x64
 80060b8:	e7bf      	b.n	800603a <_strtod_l+0x142>
 80060ba:	9b19      	ldr	r3, [sp, #100]	@ 0x64
 80060bc:	1c5a      	adds	r2, r3, #1
 80060be:	9219      	str	r2, [sp, #100]	@ 0x64
 80060c0:	785a      	ldrb	r2, [r3, #1]
 80060c2:	f1b9 0f00 	cmp.w	r9, #0
 80060c6:	d03b      	beq.n	8006140 <_strtod_l+0x248>
 80060c8:	464d      	mov	r5, r9
 80060ca:	900a      	str	r0, [sp, #40]	@ 0x28
 80060cc:	f1a2 0330 	sub.w	r3, r2, #48	@ 0x30
 80060d0:	2b09      	cmp	r3, #9
 80060d2:	d912      	bls.n	80060fa <_strtod_l+0x202>
 80060d4:	2301      	movs	r3, #1
 80060d6:	e7c2      	b.n	800605e <_strtod_l+0x166>
 80060d8:	9b19      	ldr	r3, [sp, #100]	@ 0x64
 80060da:	3001      	adds	r0, #1
 80060dc:	1c5a      	adds	r2, r3, #1
 80060de:	9219      	str	r2, [sp, #100]	@ 0x64
 80060e0:	785a      	ldrb	r2, [r3, #1]
 80060e2:	2a30      	cmp	r2, #48	@ 0x30
 80060e4:	d0f8      	beq.n	80060d8 <_strtod_l+0x1e0>
 80060e6:	f1a2 0331 	sub.w	r3, r2, #49	@ 0x31
 80060ea:	2b08      	cmp	r3, #8
 80060ec:	f200 84c8 	bhi.w	8006a80 <_strtod_l+0xb88>
 80060f0:	900a      	str	r0, [sp, #40]	@ 0x28
 80060f2:	2000      	movs	r0, #0
 80060f4:	4605      	mov	r5, r0
 80060f6:	9b19      	ldr	r3, [sp, #100]	@ 0x64
 80060f8:	930c      	str	r3, [sp, #48]	@ 0x30
 80060fa:	3a30      	subs	r2, #48	@ 0x30
 80060fc:	f100 0301 	add.w	r3, r0, #1
 8006100:	d018      	beq.n	8006134 <_strtod_l+0x23c>
 8006102:	462e      	mov	r6, r5
 8006104:	f04f 0e0a 	mov.w	lr, #10
 8006108:	990a      	ldr	r1, [sp, #40]	@ 0x28
 800610a:	4419      	add	r1, r3
 800610c:	910a      	str	r1, [sp, #40]	@ 0x28
 800610e:	1c71      	adds	r1, r6, #1
 8006110:	eba1 0c05 	sub.w	ip, r1, r5
 8006114:	4563      	cmp	r3, ip
 8006116:	dc15      	bgt.n	8006144 <_strtod_l+0x24c>
 8006118:	ea20 70e0 	bic.w	r0, r0, r0, asr #31
 800611c:	182b      	adds	r3, r5, r0
 800611e:	2b08      	cmp	r3, #8
 8006120:	f105 0501 	add.w	r5, r5, #1
 8006124:	4405      	add	r5, r0
 8006126:	dc1a      	bgt.n	800615e <_strtod_l+0x266>
 8006128:	230a      	movs	r3, #10
 800612a:	990b      	ldr	r1, [sp, #44]	@ 0x2c
 800612c:	fb03 2301 	mla	r3, r3, r1, r2
 8006130:	930b      	str	r3, [sp, #44]	@ 0x2c
 8006132:	2300      	movs	r3, #0
 8006134:	9a19      	ldr	r2, [sp, #100]	@ 0x64
 8006136:	4618      	mov	r0, r3
 8006138:	1c51      	adds	r1, r2, #1
 800613a:	9119      	str	r1, [sp, #100]	@ 0x64
 800613c:	7852      	ldrb	r2, [r2, #1]
 800613e:	e7c5      	b.n	80060cc <_strtod_l+0x1d4>
 8006140:	4648      	mov	r0, r9
 8006142:	e7ce      	b.n	80060e2 <_strtod_l+0x1ea>
 8006144:	2e08      	cmp	r6, #8
 8006146:	dc05      	bgt.n	8006154 <_strtod_l+0x25c>
 8006148:	9e0b      	ldr	r6, [sp, #44]	@ 0x2c
 800614a:	fb0e f606 	mul.w	r6, lr, r6
 800614e:	960b      	str	r6, [sp, #44]	@ 0x2c
 8006150:	460e      	mov	r6, r1
 8006152:	e7dc      	b.n	800610e <_strtod_l+0x216>
 8006154:	2910      	cmp	r1, #16
 8006156:	bfd8      	it	le
 8006158:	fb0e f707 	mulle.w	r7, lr, r7
 800615c:	e7f8      	b.n	8006150 <_strtod_l+0x258>
 800615e:	2b0f      	cmp	r3, #15
 8006160:	bfdc      	itt	le
 8006162:	230a      	movle	r3, #10
 8006164:	fb03 2707 	mlale	r7, r3, r7, r2
 8006168:	e7e3      	b.n	8006132 <_strtod_l+0x23a>
 800616a:	2300      	movs	r3, #0
 800616c:	930a      	str	r3, [sp, #40]	@ 0x28
 800616e:	2301      	movs	r3, #1
 8006170:	e77a      	b.n	8006068 <_strtod_l+0x170>
 8006172:	f04f 0c00 	mov.w	ip, #0
 8006176:	1ca2      	adds	r2, r4, #2
 8006178:	9219      	str	r2, [sp, #100]	@ 0x64
 800617a:	78a2      	ldrb	r2, [r4, #2]
 800617c:	e782      	b.n	8006084 <_strtod_l+0x18c>
 800617e:	f04f 0c01 	mov.w	ip, #1
 8006182:	e7f8      	b.n	8006176 <_strtod_l+0x27e>
 8006184:	08009e24 	.word	0x08009e24
 8006188:	7ff00000 	.word	0x7ff00000
 800618c:	08009c6e 	.word	0x08009c6e
 8006190:	9a19      	ldr	r2, [sp, #100]	@ 0x64
 8006192:	1c51      	adds	r1, r2, #1
 8006194:	9119      	str	r1, [sp, #100]	@ 0x64
 8006196:	7852      	ldrb	r2, [r2, #1]
 8006198:	2a30      	cmp	r2, #48	@ 0x30
 800619a:	d0f9      	beq.n	8006190 <_strtod_l+0x298>
 800619c:	f1a2 0131 	sub.w	r1, r2, #49	@ 0x31
 80061a0:	2908      	cmp	r1, #8
 80061a2:	f63f af75 	bhi.w	8006090 <_strtod_l+0x198>
 80061a6:	f04f 080a 	mov.w	r8, #10
 80061aa:	3a30      	subs	r2, #48	@ 0x30
 80061ac:	9209      	str	r2, [sp, #36]	@ 0x24
 80061ae:	9a19      	ldr	r2, [sp, #100]	@ 0x64
 80061b0:	920f      	str	r2, [sp, #60]	@ 0x3c
 80061b2:	9a19      	ldr	r2, [sp, #100]	@ 0x64
 80061b4:	1c56      	adds	r6, r2, #1
 80061b6:	9619      	str	r6, [sp, #100]	@ 0x64
 80061b8:	7852      	ldrb	r2, [r2, #1]
 80061ba:	f1a2 0e30 	sub.w	lr, r2, #48	@ 0x30
 80061be:	f1be 0f09 	cmp.w	lr, #9
 80061c2:	d939      	bls.n	8006238 <_strtod_l+0x340>
 80061c4:	990f      	ldr	r1, [sp, #60]	@ 0x3c
 80061c6:	f644 681f 	movw	r8, #19999	@ 0x4e1f
 80061ca:	1a76      	subs	r6, r6, r1
 80061cc:	2e08      	cmp	r6, #8
 80061ce:	dc03      	bgt.n	80061d8 <_strtod_l+0x2e0>
 80061d0:	9909      	ldr	r1, [sp, #36]	@ 0x24
 80061d2:	4588      	cmp	r8, r1
 80061d4:	bfa8      	it	ge
 80061d6:	4688      	movge	r8, r1
 80061d8:	f1bc 0f00 	cmp.w	ip, #0
 80061dc:	d001      	beq.n	80061e2 <_strtod_l+0x2ea>
 80061de:	f1c8 0800 	rsb	r8, r8, #0
 80061e2:	2d00      	cmp	r5, #0
 80061e4:	d14e      	bne.n	8006284 <_strtod_l+0x38c>
 80061e6:	9908      	ldr	r1, [sp, #32]
 80061e8:	4308      	orrs	r0, r1
 80061ea:	f47f aebe 	bne.w	8005f6a <_strtod_l+0x72>
 80061ee:	2b00      	cmp	r3, #0
 80061f0:	f47f aed4 	bne.w	8005f9c <_strtod_l+0xa4>
 80061f4:	2a69      	cmp	r2, #105	@ 0x69
 80061f6:	d028      	beq.n	800624a <_strtod_l+0x352>
 80061f8:	dc25      	bgt.n	8006246 <_strtod_l+0x34e>
 80061fa:	2a49      	cmp	r2, #73	@ 0x49
 80061fc:	d025      	beq.n	800624a <_strtod_l+0x352>
 80061fe:	2a4e      	cmp	r2, #78	@ 0x4e
 8006200:	f47f aecc 	bne.w	8005f9c <_strtod_l+0xa4>
 8006204:	4999      	ldr	r1, [pc, #612]	@ (800646c <_strtod_l+0x574>)
 8006206:	a819      	add	r0, sp, #100	@ 0x64
 8006208:	f001 fece 	bl	8007fa8 <__match>
 800620c:	2800      	cmp	r0, #0
 800620e:	f43f aec5 	beq.w	8005f9c <_strtod_l+0xa4>
 8006212:	9b19      	ldr	r3, [sp, #100]	@ 0x64
 8006214:	781b      	ldrb	r3, [r3, #0]
 8006216:	2b28      	cmp	r3, #40	@ 0x28
 8006218:	d12e      	bne.n	8006278 <_strtod_l+0x380>
 800621a:	4995      	ldr	r1, [pc, #596]	@ (8006470 <_strtod_l+0x578>)
 800621c:	aa1c      	add	r2, sp, #112	@ 0x70
 800621e:	a819      	add	r0, sp, #100	@ 0x64
 8006220:	f001 fed6 	bl	8007fd0 <__hexnan>
 8006224:	2805      	cmp	r0, #5
 8006226:	d127      	bne.n	8006278 <_strtod_l+0x380>
 8006228:	9b1d      	ldr	r3, [sp, #116]	@ 0x74
 800622a:	f8dd a070 	ldr.w	sl, [sp, #112]	@ 0x70
 800622e:	f043 4bff 	orr.w	fp, r3, #2139095040	@ 0x7f800000
 8006232:	f44b 0be0 	orr.w	fp, fp, #7340032	@ 0x700000
 8006236:	e698      	b.n	8005f6a <_strtod_l+0x72>
 8006238:	9909      	ldr	r1, [sp, #36]	@ 0x24
 800623a:	fb08 2101 	mla	r1, r8, r1, r2
 800623e:	f1a1 0230 	sub.w	r2, r1, #48	@ 0x30
 8006242:	9209      	str	r2, [sp, #36]	@ 0x24
 8006244:	e7b5      	b.n	80061b2 <_strtod_l+0x2ba>
 8006246:	2a6e      	cmp	r2, #110	@ 0x6e
 8006248:	e7da      	b.n	8006200 <_strtod_l+0x308>
 800624a:	498a      	ldr	r1, [pc, #552]	@ (8006474 <_strtod_l+0x57c>)
 800624c:	a819      	add	r0, sp, #100	@ 0x64
 800624e:	f001 feab 	bl	8007fa8 <__match>
 8006252:	2800      	cmp	r0, #0
 8006254:	f43f aea2 	beq.w	8005f9c <_strtod_l+0xa4>
 8006258:	9b19      	ldr	r3, [sp, #100]	@ 0x64
 800625a:	4987      	ldr	r1, [pc, #540]	@ (8006478 <_strtod_l+0x580>)
 800625c:	3b01      	subs	r3, #1
 800625e:	a819      	add	r0, sp, #100	@ 0x64
 8006260:	9319      	str	r3, [sp, #100]	@ 0x64
 8006262:	f001 fea1 	bl	8007fa8 <__match>
 8006266:	b910      	cbnz	r0, 800626e <_strtod_l+0x376>
 8006268:	9b19      	ldr	r3, [sp, #100]	@ 0x64
 800626a:	3301      	adds	r3, #1
 800626c:	9319      	str	r3, [sp, #100]	@ 0x64
 800626e:	f04f 0a00 	mov.w	sl, #0
 8006272:	f8df b208 	ldr.w	fp, [pc, #520]	@ 800647c <_strtod_l+0x584>
 8006276:	e678      	b.n	8005f6a <_strtod_l+0x72>
 8006278:	4881      	ldr	r0, [pc, #516]	@ (8006480 <_strtod_l+0x588>)
 800627a:	f001 fbfd 	bl	8007a78 <nan>
 800627e:	4682      	mov	sl, r0
 8006280:	468b      	mov	fp, r1
 8006282:	e672      	b.n	8005f6a <_strtod_l+0x72>
 8006284:	9b0a      	ldr	r3, [sp, #40]	@ 0x28
 8006286:	f1b9 0f00 	cmp.w	r9, #0
 800628a:	bf08      	it	eq
 800628c:	46a9      	moveq	r9, r5
 800628e:	eba8 0303 	sub.w	r3, r8, r3
 8006292:	2d10      	cmp	r5, #16
 8006294:	980b      	ldr	r0, [sp, #44]	@ 0x2c
 8006296:	462c      	mov	r4, r5
 8006298:	9309      	str	r3, [sp, #36]	@ 0x24
 800629a:	bfa8      	it	ge
 800629c:	2410      	movge	r4, #16
 800629e:	f7fa f8ab 	bl	80003f8 <__aeabi_ui2d>
 80062a2:	2d09      	cmp	r5, #9
 80062a4:	4682      	mov	sl, r0
 80062a6:	468b      	mov	fp, r1
 80062a8:	dc11      	bgt.n	80062ce <_strtod_l+0x3d6>
 80062aa:	9b09      	ldr	r3, [sp, #36]	@ 0x24
 80062ac:	2b00      	cmp	r3, #0
 80062ae:	f43f ae5c 	beq.w	8005f6a <_strtod_l+0x72>
 80062b2:	9b09      	ldr	r3, [sp, #36]	@ 0x24
 80062b4:	dd76      	ble.n	80063a4 <_strtod_l+0x4ac>
 80062b6:	2b16      	cmp	r3, #22
 80062b8:	dc5d      	bgt.n	8006376 <_strtod_l+0x47e>
 80062ba:	4972      	ldr	r1, [pc, #456]	@ (8006484 <_strtod_l+0x58c>)
 80062bc:	4652      	mov	r2, sl
 80062be:	eb01 01c3 	add.w	r1, r1, r3, lsl #3
 80062c2:	465b      	mov	r3, fp
 80062c4:	e9d1 0100 	ldrd	r0, r1, [r1]
 80062c8:	f7fa f910 	bl	80004ec <__aeabi_dmul>
 80062cc:	e7d7      	b.n	800627e <_strtod_l+0x386>
 80062ce:	4b6d      	ldr	r3, [pc, #436]	@ (8006484 <_strtod_l+0x58c>)
 80062d0:	eb03 03c4 	add.w	r3, r3, r4, lsl #3
 80062d4:	e953 2312 	ldrd	r2, r3, [r3, #-72]	@ 0x48
 80062d8:	f7fa f908 	bl	80004ec <__aeabi_dmul>
 80062dc:	4682      	mov	sl, r0
 80062de:	4638      	mov	r0, r7
 80062e0:	468b      	mov	fp, r1
 80062e2:	f7fa f889 	bl	80003f8 <__aeabi_ui2d>
 80062e6:	4602      	mov	r2, r0
 80062e8:	460b      	mov	r3, r1
 80062ea:	4650      	mov	r0, sl
 80062ec:	4659      	mov	r1, fp
 80062ee:	f7f9 ff47 	bl	8000180 <__adddf3>
 80062f2:	2d0f      	cmp	r5, #15
 80062f4:	4682      	mov	sl, r0
 80062f6:	468b      	mov	fp, r1
 80062f8:	ddd7      	ble.n	80062aa <_strtod_l+0x3b2>
 80062fa:	9b09      	ldr	r3, [sp, #36]	@ 0x24
 80062fc:	1b2c      	subs	r4, r5, r4
 80062fe:	441c      	add	r4, r3
 8006300:	2c00      	cmp	r4, #0
 8006302:	f340 8093 	ble.w	800642c <_strtod_l+0x534>
 8006306:	f014 030f 	ands.w	r3, r4, #15
 800630a:	d00a      	beq.n	8006322 <_strtod_l+0x42a>
 800630c:	495d      	ldr	r1, [pc, #372]	@ (8006484 <_strtod_l+0x58c>)
 800630e:	4652      	mov	r2, sl
 8006310:	eb01 01c3 	add.w	r1, r1, r3, lsl #3
 8006314:	e9d1 0100 	ldrd	r0, r1, [r1]
 8006318:	465b      	mov	r3, fp
 800631a:	f7fa f8e7 	bl	80004ec <__aeabi_dmul>
 800631e:	4682      	mov	sl, r0
 8006320:	468b      	mov	fp, r1
 8006322:	f034 040f 	bics.w	r4, r4, #15
 8006326:	d073      	beq.n	8006410 <_strtod_l+0x518>
 8006328:	f5b4 7f9a 	cmp.w	r4, #308	@ 0x134
 800632c:	dd49      	ble.n	80063c2 <_strtod_l+0x4ca>
 800632e:	2400      	movs	r4, #0
 8006330:	46a0      	mov	r8, r4
 8006332:	46a1      	mov	r9, r4
 8006334:	940b      	str	r4, [sp, #44]	@ 0x2c
 8006336:	2322      	movs	r3, #34	@ 0x22
 8006338:	f04f 0a00 	mov.w	sl, #0
 800633c:	9a05      	ldr	r2, [sp, #20]
 800633e:	f8df b13c 	ldr.w	fp, [pc, #316]	@ 800647c <_strtod_l+0x584>
 8006342:	6013      	str	r3, [r2, #0]
 8006344:	9b0b      	ldr	r3, [sp, #44]	@ 0x2c
 8006346:	2b00      	cmp	r3, #0
 8006348:	f43f ae0f 	beq.w	8005f6a <_strtod_l+0x72>
 800634c:	991a      	ldr	r1, [sp, #104]	@ 0x68
 800634e:	9805      	ldr	r0, [sp, #20]
 8006350:	f001 ff2c 	bl	80081ac <_Bfree>
 8006354:	4649      	mov	r1, r9
 8006356:	9805      	ldr	r0, [sp, #20]
 8006358:	f001 ff28 	bl	80081ac <_Bfree>
 800635c:	4641      	mov	r1, r8
 800635e:	9805      	ldr	r0, [sp, #20]
 8006360:	f001 ff24 	bl	80081ac <_Bfree>
 8006364:	990b      	ldr	r1, [sp, #44]	@ 0x2c
 8006366:	9805      	ldr	r0, [sp, #20]
 8006368:	f001 ff20 	bl	80081ac <_Bfree>
 800636c:	4621      	mov	r1, r4
 800636e:	9805      	ldr	r0, [sp, #20]
 8006370:	f001 ff1c 	bl	80081ac <_Bfree>
 8006374:	e5f9      	b.n	8005f6a <_strtod_l+0x72>
 8006376:	9a09      	ldr	r2, [sp, #36]	@ 0x24
 8006378:	f1c5 0325 	rsb	r3, r5, #37	@ 0x25
 800637c:	4293      	cmp	r3, r2
 800637e:	dbbc      	blt.n	80062fa <_strtod_l+0x402>
 8006380:	4c40      	ldr	r4, [pc, #256]	@ (8006484 <_strtod_l+0x58c>)
 8006382:	f1c5 050f 	rsb	r5, r5, #15
 8006386:	eb04 01c5 	add.w	r1, r4, r5, lsl #3
 800638a:	4652      	mov	r2, sl
 800638c:	e9d1 0100 	ldrd	r0, r1, [r1]
 8006390:	465b      	mov	r3, fp
 8006392:	f7fa f8ab 	bl	80004ec <__aeabi_dmul>
 8006396:	9b09      	ldr	r3, [sp, #36]	@ 0x24
 8006398:	1b5d      	subs	r5, r3, r5
 800639a:	eb04 04c5 	add.w	r4, r4, r5, lsl #3
 800639e:	e9d4 2300 	ldrd	r2, r3, [r4]
 80063a2:	e791      	b.n	80062c8 <_strtod_l+0x3d0>
 80063a4:	3316      	adds	r3, #22
 80063a6:	dba8      	blt.n	80062fa <_strtod_l+0x402>
 80063a8:	9b0a      	ldr	r3, [sp, #40]	@ 0x28
 80063aa:	4650      	mov	r0, sl
 80063ac:	eba3 0808 	sub.w	r8, r3, r8
 80063b0:	4b34      	ldr	r3, [pc, #208]	@ (8006484 <_strtod_l+0x58c>)
 80063b2:	4659      	mov	r1, fp
 80063b4:	eb03 08c8 	add.w	r8, r3, r8, lsl #3
 80063b8:	e9d8 2300 	ldrd	r2, r3, [r8]
 80063bc:	f7fa f9c0 	bl	8000740 <__aeabi_ddiv>
 80063c0:	e75d      	b.n	800627e <_strtod_l+0x386>
 80063c2:	2300      	movs	r3, #0
 80063c4:	4650      	mov	r0, sl
 80063c6:	4659      	mov	r1, fp
 80063c8:	461e      	mov	r6, r3
 80063ca:	4f2f      	ldr	r7, [pc, #188]	@ (8006488 <_strtod_l+0x590>)
 80063cc:	1124      	asrs	r4, r4, #4
 80063ce:	2c01      	cmp	r4, #1
 80063d0:	dc21      	bgt.n	8006416 <_strtod_l+0x51e>
 80063d2:	b10b      	cbz	r3, 80063d8 <_strtod_l+0x4e0>
 80063d4:	4682      	mov	sl, r0
 80063d6:	468b      	mov	fp, r1
 80063d8:	492b      	ldr	r1, [pc, #172]	@ (8006488 <_strtod_l+0x590>)
 80063da:	f1ab 7b54 	sub.w	fp, fp, #55574528	@ 0x3500000
 80063de:	eb01 01c6 	add.w	r1, r1, r6, lsl #3
 80063e2:	4652      	mov	r2, sl
 80063e4:	e9d1 0100 	ldrd	r0, r1, [r1]
 80063e8:	465b      	mov	r3, fp
 80063ea:	f7fa f87f 	bl	80004ec <__aeabi_dmul>
 80063ee:	4b23      	ldr	r3, [pc, #140]	@ (800647c <_strtod_l+0x584>)
 80063f0:	460a      	mov	r2, r1
 80063f2:	400b      	ands	r3, r1
 80063f4:	4925      	ldr	r1, [pc, #148]	@ (800648c <_strtod_l+0x594>)
 80063f6:	4682      	mov	sl, r0
 80063f8:	428b      	cmp	r3, r1
 80063fa:	d898      	bhi.n	800632e <_strtod_l+0x436>
 80063fc:	f5a1 1180 	sub.w	r1, r1, #1048576	@ 0x100000
 8006400:	428b      	cmp	r3, r1
 8006402:	bf86      	itte	hi
 8006404:	f04f 3aff 	movhi.w	sl, #4294967295
 8006408:	f8df b084 	ldrhi.w	fp, [pc, #132]	@ 8006490 <_strtod_l+0x598>
 800640c:	f102 7b54 	addls.w	fp, r2, #55574528	@ 0x3500000
 8006410:	2300      	movs	r3, #0
 8006412:	9308      	str	r3, [sp, #32]
 8006414:	e076      	b.n	8006504 <_strtod_l+0x60c>
 8006416:	07e2      	lsls	r2, r4, #31
 8006418:	d504      	bpl.n	8006424 <_strtod_l+0x52c>
 800641a:	e9d7 2300 	ldrd	r2, r3, [r7]
 800641e:	f7fa f865 	bl	80004ec <__aeabi_dmul>
 8006422:	2301      	movs	r3, #1
 8006424:	3601      	adds	r6, #1
 8006426:	1064      	asrs	r4, r4, #1
 8006428:	3708      	adds	r7, #8
 800642a:	e7d0      	b.n	80063ce <_strtod_l+0x4d6>
 800642c:	d0f0      	beq.n	8006410 <_strtod_l+0x518>
 800642e:	4264      	negs	r4, r4
 8006430:	f014 020f 	ands.w	r2, r4, #15
 8006434:	d00a      	beq.n	800644c <_strtod_l+0x554>
 8006436:	4b13      	ldr	r3, [pc, #76]	@ (8006484 <_strtod_l+0x58c>)
 8006438:	4650      	mov	r0, sl
 800643a:	eb03 03c2 	add.w	r3, r3, r2, lsl #3
 800643e:	4659      	mov	r1, fp
 8006440:	e9d3 2300 	ldrd	r2, r3, [r3]
 8006444:	f7fa f97c 	bl	8000740 <__aeabi_ddiv>
 8006448:	4682      	mov	sl, r0
 800644a:	468b      	mov	fp, r1
 800644c:	1124      	asrs	r4, r4, #4
 800644e:	d0df      	beq.n	8006410 <_strtod_l+0x518>
 8006450:	2c1f      	cmp	r4, #31
 8006452:	dd1f      	ble.n	8006494 <_strtod_l+0x59c>
 8006454:	2400      	movs	r4, #0
 8006456:	46a0      	mov	r8, r4
 8006458:	46a1      	mov	r9, r4
 800645a:	940b      	str	r4, [sp, #44]	@ 0x2c
 800645c:	2322      	movs	r3, #34	@ 0x22
 800645e:	9a05      	ldr	r2, [sp, #20]
 8006460:	f04f 0a00 	mov.w	sl, #0
 8006464:	f04f 0b00 	mov.w	fp, #0
 8006468:	6013      	str	r3, [r2, #0]
 800646a:	e76b      	b.n	8006344 <_strtod_l+0x44c>
 800646c:	08009c79 	.word	0x08009c79
 8006470:	08009e10 	.word	0x08009e10
 8006474:	08009c70 	.word	0x08009c70
 8006478:	08009c73 	.word	0x08009c73
 800647c:	7ff00000 	.word	0x7ff00000
 8006480:	08009455 	.word	0x08009455
 8006484:	08009f98 	.word	0x08009f98
 8006488:	08009f70 	.word	0x08009f70
 800648c:	7ca00000 	.word	0x7ca00000
 8006490:	7fefffff 	.word	0x7fefffff
 8006494:	f014 0310 	ands.w	r3, r4, #16
 8006498:	bf18      	it	ne
 800649a:	236a      	movne	r3, #106	@ 0x6a
 800649c:	4650      	mov	r0, sl
 800649e:	9308      	str	r3, [sp, #32]
 80064a0:	4659      	mov	r1, fp
 80064a2:	2300      	movs	r3, #0
 80064a4:	4e77      	ldr	r6, [pc, #476]	@ (8006684 <_strtod_l+0x78c>)
 80064a6:	07e7      	lsls	r7, r4, #31
 80064a8:	d504      	bpl.n	80064b4 <_strtod_l+0x5bc>
 80064aa:	e9d6 2300 	ldrd	r2, r3, [r6]
 80064ae:	f7fa f81d 	bl	80004ec <__aeabi_dmul>
 80064b2:	2301      	movs	r3, #1
 80064b4:	1064      	asrs	r4, r4, #1
 80064b6:	f106 0608 	add.w	r6, r6, #8
 80064ba:	d1f4      	bne.n	80064a6 <_strtod_l+0x5ae>
 80064bc:	b10b      	cbz	r3, 80064c2 <_strtod_l+0x5ca>
 80064be:	4682      	mov	sl, r0
 80064c0:	468b      	mov	fp, r1
 80064c2:	9b08      	ldr	r3, [sp, #32]
 80064c4:	b1b3      	cbz	r3, 80064f4 <_strtod_l+0x5fc>
 80064c6:	f3cb 520a 	ubfx	r2, fp, #20, #11
 80064ca:	f1c2 036b 	rsb	r3, r2, #107	@ 0x6b
 80064ce:	2b00      	cmp	r3, #0
 80064d0:	4659      	mov	r1, fp
 80064d2:	dd0f      	ble.n	80064f4 <_strtod_l+0x5fc>
 80064d4:	2b1f      	cmp	r3, #31
 80064d6:	dd58      	ble.n	800658a <_strtod_l+0x692>
 80064d8:	2b34      	cmp	r3, #52	@ 0x34
 80064da:	bfd8      	it	le
 80064dc:	f04f 33ff 	movle.w	r3, #4294967295
 80064e0:	f04f 0a00 	mov.w	sl, #0
 80064e4:	bfcf      	iteee	gt
 80064e6:	f04f 7b5c 	movgt.w	fp, #57671680	@ 0x3700000
 80064ea:	f1c2 024b 	rsble	r2, r2, #75	@ 0x4b
 80064ee:	4093      	lslle	r3, r2
 80064f0:	ea03 0b01 	andle.w	fp, r3, r1
 80064f4:	2200      	movs	r2, #0
 80064f6:	2300      	movs	r3, #0
 80064f8:	4650      	mov	r0, sl
 80064fa:	4659      	mov	r1, fp
 80064fc:	f7fa fa5e 	bl	80009bc <__aeabi_dcmpeq>
 8006500:	2800      	cmp	r0, #0
 8006502:	d1a7      	bne.n	8006454 <_strtod_l+0x55c>
 8006504:	9b0b      	ldr	r3, [sp, #44]	@ 0x2c
 8006506:	464a      	mov	r2, r9
 8006508:	9300      	str	r3, [sp, #0]
 800650a:	990c      	ldr	r1, [sp, #48]	@ 0x30
 800650c:	462b      	mov	r3, r5
 800650e:	9805      	ldr	r0, [sp, #20]
 8006510:	f001 feb4 	bl	800827c <__s2b>
 8006514:	900b      	str	r0, [sp, #44]	@ 0x2c
 8006516:	2800      	cmp	r0, #0
 8006518:	f43f af09 	beq.w	800632e <_strtod_l+0x436>
 800651c:	2400      	movs	r4, #0
 800651e:	9a09      	ldr	r2, [sp, #36]	@ 0x24
 8006520:	9b0a      	ldr	r3, [sp, #40]	@ 0x28
 8006522:	2a00      	cmp	r2, #0
 8006524:	eba3 0308 	sub.w	r3, r3, r8
 8006528:	bfa8      	it	ge
 800652a:	2300      	movge	r3, #0
 800652c:	46a0      	mov	r8, r4
 800652e:	9312      	str	r3, [sp, #72]	@ 0x48
 8006530:	ea22 73e2 	bic.w	r3, r2, r2, asr #31
 8006534:	9316      	str	r3, [sp, #88]	@ 0x58
 8006536:	9b0b      	ldr	r3, [sp, #44]	@ 0x2c
 8006538:	9805      	ldr	r0, [sp, #20]
 800653a:	6859      	ldr	r1, [r3, #4]
 800653c:	f001 fdf6 	bl	800812c <_Balloc>
 8006540:	4681      	mov	r9, r0
 8006542:	2800      	cmp	r0, #0
 8006544:	f43f aef7 	beq.w	8006336 <_strtod_l+0x43e>
 8006548:	9b0b      	ldr	r3, [sp, #44]	@ 0x2c
 800654a:	300c      	adds	r0, #12
 800654c:	691a      	ldr	r2, [r3, #16]
 800654e:	f103 010c 	add.w	r1, r3, #12
 8006552:	3202      	adds	r2, #2
 8006554:	0092      	lsls	r2, r2, #2
 8006556:	f7ff fb7c 	bl	8005c52 <memcpy>
 800655a:	ab1c      	add	r3, sp, #112	@ 0x70
 800655c:	9301      	str	r3, [sp, #4]
 800655e:	ab1b      	add	r3, sp, #108	@ 0x6c
 8006560:	9300      	str	r3, [sp, #0]
 8006562:	4652      	mov	r2, sl
 8006564:	465b      	mov	r3, fp
 8006566:	9805      	ldr	r0, [sp, #20]
 8006568:	e9cd ab0c 	strd	sl, fp, [sp, #48]	@ 0x30
 800656c:	f002 f9b2 	bl	80088d4 <__d2b>
 8006570:	901a      	str	r0, [sp, #104]	@ 0x68
 8006572:	2800      	cmp	r0, #0
 8006574:	f43f aedf 	beq.w	8006336 <_strtod_l+0x43e>
 8006578:	2101      	movs	r1, #1
 800657a:	9805      	ldr	r0, [sp, #20]
 800657c:	f001 ff14 	bl	80083a8 <__i2b>
 8006580:	4680      	mov	r8, r0
 8006582:	b948      	cbnz	r0, 8006598 <_strtod_l+0x6a0>
 8006584:	f04f 0800 	mov.w	r8, #0
 8006588:	e6d5      	b.n	8006336 <_strtod_l+0x43e>
 800658a:	f04f 32ff 	mov.w	r2, #4294967295
 800658e:	fa02 f303 	lsl.w	r3, r2, r3
 8006592:	ea03 0a0a 	and.w	sl, r3, sl
 8006596:	e7ad      	b.n	80064f4 <_strtod_l+0x5fc>
 8006598:	9d1b      	ldr	r5, [sp, #108]	@ 0x6c
 800659a:	9a1c      	ldr	r2, [sp, #112]	@ 0x70
 800659c:	2d00      	cmp	r5, #0
 800659e:	bfab      	itete	ge
 80065a0:	9b12      	ldrge	r3, [sp, #72]	@ 0x48
 80065a2:	9b16      	ldrlt	r3, [sp, #88]	@ 0x58
 80065a4:	18ef      	addge	r7, r5, r3
 80065a6:	1b5e      	sublt	r6, r3, r5
 80065a8:	9b08      	ldr	r3, [sp, #32]
 80065aa:	bfa8      	it	ge
 80065ac:	9e16      	ldrge	r6, [sp, #88]	@ 0x58
 80065ae:	eba5 0503 	sub.w	r5, r5, r3
 80065b2:	4415      	add	r5, r2
 80065b4:	4b34      	ldr	r3, [pc, #208]	@ (8006688 <_strtod_l+0x790>)
 80065b6:	f105 35ff 	add.w	r5, r5, #4294967295
 80065ba:	bfb8      	it	lt
 80065bc:	9f12      	ldrlt	r7, [sp, #72]	@ 0x48
 80065be:	429d      	cmp	r5, r3
 80065c0:	f1c2 0236 	rsb	r2, r2, #54	@ 0x36
 80065c4:	da50      	bge.n	8006668 <_strtod_l+0x770>
 80065c6:	1b5b      	subs	r3, r3, r5
 80065c8:	2b1f      	cmp	r3, #31
 80065ca:	f04f 0101 	mov.w	r1, #1
 80065ce:	eba2 0203 	sub.w	r2, r2, r3
 80065d2:	dc3d      	bgt.n	8006650 <_strtod_l+0x758>
 80065d4:	fa01 f303 	lsl.w	r3, r1, r3
 80065d8:	9313      	str	r3, [sp, #76]	@ 0x4c
 80065da:	2300      	movs	r3, #0
 80065dc:	9310      	str	r3, [sp, #64]	@ 0x40
 80065de:	18bd      	adds	r5, r7, r2
 80065e0:	9b08      	ldr	r3, [sp, #32]
 80065e2:	42af      	cmp	r7, r5
 80065e4:	4416      	add	r6, r2
 80065e6:	441e      	add	r6, r3
 80065e8:	463b      	mov	r3, r7
 80065ea:	bfa8      	it	ge
 80065ec:	462b      	movge	r3, r5
 80065ee:	42b3      	cmp	r3, r6
 80065f0:	bfa8      	it	ge
 80065f2:	4633      	movge	r3, r6
 80065f4:	2b00      	cmp	r3, #0
 80065f6:	bfc2      	ittt	gt
 80065f8:	1aed      	subgt	r5, r5, r3
 80065fa:	1af6      	subgt	r6, r6, r3
 80065fc:	1aff      	subgt	r7, r7, r3
 80065fe:	9b12      	ldr	r3, [sp, #72]	@ 0x48
 8006600:	2b00      	cmp	r3, #0
 8006602:	dd16      	ble.n	8006632 <_strtod_l+0x73a>
 8006604:	4641      	mov	r1, r8
 8006606:	461a      	mov	r2, r3
 8006608:	9805      	ldr	r0, [sp, #20]
 800660a:	f001 ff85 	bl	8008518 <__pow5mult>
 800660e:	4680      	mov	r8, r0
 8006610:	2800      	cmp	r0, #0
 8006612:	d0b7      	beq.n	8006584 <_strtod_l+0x68c>
 8006614:	4601      	mov	r1, r0
 8006616:	9a1a      	ldr	r2, [sp, #104]	@ 0x68
 8006618:	9805      	ldr	r0, [sp, #20]
 800661a:	f001 fedb 	bl	80083d4 <__multiply>
 800661e:	900a      	str	r0, [sp, #40]	@ 0x28
 8006620:	2800      	cmp	r0, #0
 8006622:	f43f ae88 	beq.w	8006336 <_strtod_l+0x43e>
 8006626:	991a      	ldr	r1, [sp, #104]	@ 0x68
 8006628:	9805      	ldr	r0, [sp, #20]
 800662a:	f001 fdbf 	bl	80081ac <_Bfree>
 800662e:	9b0a      	ldr	r3, [sp, #40]	@ 0x28
 8006630:	931a      	str	r3, [sp, #104]	@ 0x68
 8006632:	2d00      	cmp	r5, #0
 8006634:	dc1d      	bgt.n	8006672 <_strtod_l+0x77a>
 8006636:	9b09      	ldr	r3, [sp, #36]	@ 0x24
 8006638:	2b00      	cmp	r3, #0
 800663a:	dd27      	ble.n	800668c <_strtod_l+0x794>
 800663c:	4649      	mov	r1, r9
 800663e:	9a16      	ldr	r2, [sp, #88]	@ 0x58
 8006640:	9805      	ldr	r0, [sp, #20]
 8006642:	f001 ff69 	bl	8008518 <__pow5mult>
 8006646:	4681      	mov	r9, r0
 8006648:	bb00      	cbnz	r0, 800668c <_strtod_l+0x794>
 800664a:	f04f 0900 	mov.w	r9, #0
 800664e:	e672      	b.n	8006336 <_strtod_l+0x43e>
 8006650:	f1c5 457f 	rsb	r5, r5, #4278190080	@ 0xff000000
 8006654:	f505 057f 	add.w	r5, r5, #16711680	@ 0xff0000
 8006658:	f505 457b 	add.w	r5, r5, #64256	@ 0xfb00
 800665c:	35e2      	adds	r5, #226	@ 0xe2
 800665e:	fa01 f305 	lsl.w	r3, r1, r5
 8006662:	9310      	str	r3, [sp, #64]	@ 0x40
 8006664:	9113      	str	r1, [sp, #76]	@ 0x4c
 8006666:	e7ba      	b.n	80065de <_strtod_l+0x6e6>
 8006668:	2300      	movs	r3, #0
 800666a:	9310      	str	r3, [sp, #64]	@ 0x40
 800666c:	2301      	movs	r3, #1
 800666e:	9313      	str	r3, [sp, #76]	@ 0x4c
 8006670:	e7b5      	b.n	80065de <_strtod_l+0x6e6>
 8006672:	462a      	mov	r2, r5
 8006674:	991a      	ldr	r1, [sp, #104]	@ 0x68
 8006676:	9805      	ldr	r0, [sp, #20]
 8006678:	f001 ffa8 	bl	80085cc <__lshift>
 800667c:	901a      	str	r0, [sp, #104]	@ 0x68
 800667e:	2800      	cmp	r0, #0
 8006680:	d1d9      	bne.n	8006636 <_strtod_l+0x73e>
 8006682:	e658      	b.n	8006336 <_strtod_l+0x43e>
 8006684:	08009e38 	.word	0x08009e38
 8006688:	fffffc02 	.word	0xfffffc02
 800668c:	2e00      	cmp	r6, #0
 800668e:	dd07      	ble.n	80066a0 <_strtod_l+0x7a8>
 8006690:	4649      	mov	r1, r9
 8006692:	4632      	mov	r2, r6
 8006694:	9805      	ldr	r0, [sp, #20]
 8006696:	f001 ff99 	bl	80085cc <__lshift>
 800669a:	4681      	mov	r9, r0
 800669c:	2800      	cmp	r0, #0
 800669e:	d0d4      	beq.n	800664a <_strtod_l+0x752>
 80066a0:	2f00      	cmp	r7, #0
 80066a2:	dd08      	ble.n	80066b6 <_strtod_l+0x7be>
 80066a4:	4641      	mov	r1, r8
 80066a6:	463a      	mov	r2, r7
 80066a8:	9805      	ldr	r0, [sp, #20]
 80066aa:	f001 ff8f 	bl	80085cc <__lshift>
 80066ae:	4680      	mov	r8, r0
 80066b0:	2800      	cmp	r0, #0
 80066b2:	f43f ae40 	beq.w	8006336 <_strtod_l+0x43e>
 80066b6:	464a      	mov	r2, r9
 80066b8:	991a      	ldr	r1, [sp, #104]	@ 0x68
 80066ba:	9805      	ldr	r0, [sp, #20]
 80066bc:	f002 f80e 	bl	80086dc <__mdiff>
 80066c0:	4604      	mov	r4, r0
 80066c2:	2800      	cmp	r0, #0
 80066c4:	f43f ae37 	beq.w	8006336 <_strtod_l+0x43e>
 80066c8:	68c3      	ldr	r3, [r0, #12]
 80066ca:	4641      	mov	r1, r8
 80066cc:	930f      	str	r3, [sp, #60]	@ 0x3c
 80066ce:	2300      	movs	r3, #0
 80066d0:	60c3      	str	r3, [r0, #12]
 80066d2:	f001 ffe7 	bl	80086a4 <__mcmp>
 80066d6:	2800      	cmp	r0, #0
 80066d8:	da3d      	bge.n	8006756 <_strtod_l+0x85e>
 80066da:	9b0f      	ldr	r3, [sp, #60]	@ 0x3c
 80066dc:	ea53 030a 	orrs.w	r3, r3, sl
 80066e0:	d163      	bne.n	80067aa <_strtod_l+0x8b2>
 80066e2:	f3cb 0313 	ubfx	r3, fp, #0, #20
 80066e6:	2b00      	cmp	r3, #0
 80066e8:	d15f      	bne.n	80067aa <_strtod_l+0x8b2>
 80066ea:	f02b 4300 	bic.w	r3, fp, #2147483648	@ 0x80000000
 80066ee:	0d1b      	lsrs	r3, r3, #20
 80066f0:	051b      	lsls	r3, r3, #20
 80066f2:	f1b3 6fd6 	cmp.w	r3, #112197632	@ 0x6b00000
 80066f6:	d958      	bls.n	80067aa <_strtod_l+0x8b2>
 80066f8:	6963      	ldr	r3, [r4, #20]
 80066fa:	b913      	cbnz	r3, 8006702 <_strtod_l+0x80a>
 80066fc:	6923      	ldr	r3, [r4, #16]
 80066fe:	2b01      	cmp	r3, #1
 8006700:	dd53      	ble.n	80067aa <_strtod_l+0x8b2>
 8006702:	4621      	mov	r1, r4
 8006704:	2201      	movs	r2, #1
 8006706:	9805      	ldr	r0, [sp, #20]
 8006708:	f001 ff60 	bl	80085cc <__lshift>
 800670c:	4641      	mov	r1, r8
 800670e:	4604      	mov	r4, r0
 8006710:	f001 ffc8 	bl	80086a4 <__mcmp>
 8006714:	2800      	cmp	r0, #0
 8006716:	dd48      	ble.n	80067aa <_strtod_l+0x8b2>
 8006718:	f02b 4300 	bic.w	r3, fp, #2147483648	@ 0x80000000
 800671c:	9a08      	ldr	r2, [sp, #32]
 800671e:	0d1b      	lsrs	r3, r3, #20
 8006720:	051b      	lsls	r3, r3, #20
 8006722:	2a00      	cmp	r2, #0
 8006724:	d062      	beq.n	80067ec <_strtod_l+0x8f4>
 8006726:	f1b3 6fd6 	cmp.w	r3, #112197632	@ 0x6b00000
 800672a:	d85f      	bhi.n	80067ec <_strtod_l+0x8f4>
 800672c:	f1b3 7f5c 	cmp.w	r3, #57671680	@ 0x3700000
 8006730:	f67f ae94 	bls.w	800645c <_strtod_l+0x564>
 8006734:	4650      	mov	r0, sl
 8006736:	4659      	mov	r1, fp
 8006738:	4ba3      	ldr	r3, [pc, #652]	@ (80069c8 <_strtod_l+0xad0>)
 800673a:	2200      	movs	r2, #0
 800673c:	f7f9 fed6 	bl	80004ec <__aeabi_dmul>
 8006740:	4ba2      	ldr	r3, [pc, #648]	@ (80069cc <_strtod_l+0xad4>)
 8006742:	4682      	mov	sl, r0
 8006744:	400b      	ands	r3, r1
 8006746:	468b      	mov	fp, r1
 8006748:	2b00      	cmp	r3, #0
 800674a:	f47f adff 	bne.w	800634c <_strtod_l+0x454>
 800674e:	2322      	movs	r3, #34	@ 0x22
 8006750:	9a05      	ldr	r2, [sp, #20]
 8006752:	6013      	str	r3, [r2, #0]
 8006754:	e5fa      	b.n	800634c <_strtod_l+0x454>
 8006756:	f8cd b028 	str.w	fp, [sp, #40]	@ 0x28
 800675a:	d165      	bne.n	8006828 <_strtod_l+0x930>
 800675c:	9a0f      	ldr	r2, [sp, #60]	@ 0x3c
 800675e:	f3cb 0313 	ubfx	r3, fp, #0, #20
 8006762:	b35a      	cbz	r2, 80067bc <_strtod_l+0x8c4>
 8006764:	4a9a      	ldr	r2, [pc, #616]	@ (80069d0 <_strtod_l+0xad8>)
 8006766:	4293      	cmp	r3, r2
 8006768:	d12b      	bne.n	80067c2 <_strtod_l+0x8ca>
 800676a:	9b08      	ldr	r3, [sp, #32]
 800676c:	4651      	mov	r1, sl
 800676e:	b303      	cbz	r3, 80067b2 <_strtod_l+0x8ba>
 8006770:	465a      	mov	r2, fp
 8006772:	4b96      	ldr	r3, [pc, #600]	@ (80069cc <_strtod_l+0xad4>)
 8006774:	4013      	ands	r3, r2
 8006776:	f1b3 6fd4 	cmp.w	r3, #111149056	@ 0x6a00000
 800677a:	f04f 32ff 	mov.w	r2, #4294967295
 800677e:	d81b      	bhi.n	80067b8 <_strtod_l+0x8c0>
 8006780:	0d1b      	lsrs	r3, r3, #20
 8006782:	f1c3 036b 	rsb	r3, r3, #107	@ 0x6b
 8006786:	fa02 f303 	lsl.w	r3, r2, r3
 800678a:	4299      	cmp	r1, r3
 800678c:	d119      	bne.n	80067c2 <_strtod_l+0x8ca>
 800678e:	4b91      	ldr	r3, [pc, #580]	@ (80069d4 <_strtod_l+0xadc>)
 8006790:	9a0a      	ldr	r2, [sp, #40]	@ 0x28
 8006792:	429a      	cmp	r2, r3
 8006794:	d102      	bne.n	800679c <_strtod_l+0x8a4>
 8006796:	3101      	adds	r1, #1
 8006798:	f43f adcd 	beq.w	8006336 <_strtod_l+0x43e>
 800679c:	f04f 0a00 	mov.w	sl, #0
 80067a0:	4b8a      	ldr	r3, [pc, #552]	@ (80069cc <_strtod_l+0xad4>)
 80067a2:	9a0a      	ldr	r2, [sp, #40]	@ 0x28
 80067a4:	401a      	ands	r2, r3
 80067a6:	f502 1b80 	add.w	fp, r2, #1048576	@ 0x100000
 80067aa:	9b08      	ldr	r3, [sp, #32]
 80067ac:	2b00      	cmp	r3, #0
 80067ae:	d1c1      	bne.n	8006734 <_strtod_l+0x83c>
 80067b0:	e5cc      	b.n	800634c <_strtod_l+0x454>
 80067b2:	f04f 33ff 	mov.w	r3, #4294967295
 80067b6:	e7e8      	b.n	800678a <_strtod_l+0x892>
 80067b8:	4613      	mov	r3, r2
 80067ba:	e7e6      	b.n	800678a <_strtod_l+0x892>
 80067bc:	ea53 030a 	orrs.w	r3, r3, sl
 80067c0:	d0aa      	beq.n	8006718 <_strtod_l+0x820>
 80067c2:	9b10      	ldr	r3, [sp, #64]	@ 0x40
 80067c4:	b1db      	cbz	r3, 80067fe <_strtod_l+0x906>
 80067c6:	9a0a      	ldr	r2, [sp, #40]	@ 0x28
 80067c8:	4213      	tst	r3, r2
 80067ca:	d0ee      	beq.n	80067aa <_strtod_l+0x8b2>
 80067cc:	9b0f      	ldr	r3, [sp, #60]	@ 0x3c
 80067ce:	4650      	mov	r0, sl
 80067d0:	4659      	mov	r1, fp
 80067d2:	9a08      	ldr	r2, [sp, #32]
 80067d4:	b1bb      	cbz	r3, 8006806 <_strtod_l+0x90e>
 80067d6:	f7ff fb6b 	bl	8005eb0 <sulp>
 80067da:	4602      	mov	r2, r0
 80067dc:	460b      	mov	r3, r1
 80067de:	e9dd 010c 	ldrd	r0, r1, [sp, #48]	@ 0x30
 80067e2:	f7f9 fccd 	bl	8000180 <__adddf3>
 80067e6:	4682      	mov	sl, r0
 80067e8:	468b      	mov	fp, r1
 80067ea:	e7de      	b.n	80067aa <_strtod_l+0x8b2>
 80067ec:	f5a3 1380 	sub.w	r3, r3, #1048576	@ 0x100000
 80067f0:	ea6f 5b13 	mvn.w	fp, r3, lsr #20
 80067f4:	f04f 3aff 	mov.w	sl, #4294967295
 80067f8:	ea6f 5b0b 	mvn.w	fp, fp, lsl #20
 80067fc:	e7d5      	b.n	80067aa <_strtod_l+0x8b2>
 80067fe:	9b13      	ldr	r3, [sp, #76]	@ 0x4c
 8006800:	ea13 0f0a 	tst.w	r3, sl
 8006804:	e7e1      	b.n	80067ca <_strtod_l+0x8d2>
 8006806:	f7ff fb53 	bl	8005eb0 <sulp>
 800680a:	4602      	mov	r2, r0
 800680c:	460b      	mov	r3, r1
 800680e:	e9dd 010c 	ldrd	r0, r1, [sp, #48]	@ 0x30
 8006812:	f7f9 fcb3 	bl	800017c <__aeabi_dsub>
 8006816:	2200      	movs	r2, #0
 8006818:	2300      	movs	r3, #0
 800681a:	4682      	mov	sl, r0
 800681c:	468b      	mov	fp, r1
 800681e:	f7fa f8cd 	bl	80009bc <__aeabi_dcmpeq>
 8006822:	2800      	cmp	r0, #0
 8006824:	d0c1      	beq.n	80067aa <_strtod_l+0x8b2>
 8006826:	e619      	b.n	800645c <_strtod_l+0x564>
 8006828:	4641      	mov	r1, r8
 800682a:	4620      	mov	r0, r4
 800682c:	f002 f8aa 	bl	8008984 <__ratio>
 8006830:	2200      	movs	r2, #0
 8006832:	f04f 4380 	mov.w	r3, #1073741824	@ 0x40000000
 8006836:	4606      	mov	r6, r0
 8006838:	460f      	mov	r7, r1
 800683a:	f7fa f8d3 	bl	80009e4 <__aeabi_dcmple>
 800683e:	2800      	cmp	r0, #0
 8006840:	d06d      	beq.n	800691e <_strtod_l+0xa26>
 8006842:	9b0f      	ldr	r3, [sp, #60]	@ 0x3c
 8006844:	2b00      	cmp	r3, #0
 8006846:	d178      	bne.n	800693a <_strtod_l+0xa42>
 8006848:	f1ba 0f00 	cmp.w	sl, #0
 800684c:	d156      	bne.n	80068fc <_strtod_l+0xa04>
 800684e:	9b0a      	ldr	r3, [sp, #40]	@ 0x28
 8006850:	f3c3 0313 	ubfx	r3, r3, #0, #20
 8006854:	2b00      	cmp	r3, #0
 8006856:	d158      	bne.n	800690a <_strtod_l+0xa12>
 8006858:	2200      	movs	r2, #0
 800685a:	4630      	mov	r0, r6
 800685c:	4639      	mov	r1, r7
 800685e:	4b5e      	ldr	r3, [pc, #376]	@ (80069d8 <_strtod_l+0xae0>)
 8006860:	f7fa f8b6 	bl	80009d0 <__aeabi_dcmplt>
 8006864:	2800      	cmp	r0, #0
 8006866:	d157      	bne.n	8006918 <_strtod_l+0xa20>
 8006868:	4630      	mov	r0, r6
 800686a:	4639      	mov	r1, r7
 800686c:	2200      	movs	r2, #0
 800686e:	4b5b      	ldr	r3, [pc, #364]	@ (80069dc <_strtod_l+0xae4>)
 8006870:	f7f9 fe3c 	bl	80004ec <__aeabi_dmul>
 8006874:	4606      	mov	r6, r0
 8006876:	460f      	mov	r7, r1
 8006878:	f107 4300 	add.w	r3, r7, #2147483648	@ 0x80000000
 800687c:	9606      	str	r6, [sp, #24]
 800687e:	9307      	str	r3, [sp, #28]
 8006880:	e9dd 2306 	ldrd	r2, r3, [sp, #24]
 8006884:	4d51      	ldr	r5, [pc, #324]	@ (80069cc <_strtod_l+0xad4>)
 8006886:	e9cd 2310 	strd	r2, r3, [sp, #64]	@ 0x40
 800688a:	9b0a      	ldr	r3, [sp, #40]	@ 0x28
 800688c:	401d      	ands	r5, r3
 800688e:	4b54      	ldr	r3, [pc, #336]	@ (80069e0 <_strtod_l+0xae8>)
 8006890:	429d      	cmp	r5, r3
 8006892:	f040 80ab 	bne.w	80069ec <_strtod_l+0xaf4>
 8006896:	9b0a      	ldr	r3, [sp, #40]	@ 0x28
 8006898:	4650      	mov	r0, sl
 800689a:	f1a3 7b54 	sub.w	fp, r3, #55574528	@ 0x3500000
 800689e:	4659      	mov	r1, fp
 80068a0:	f001 ffb0 	bl	8008804 <__ulp>
 80068a4:	e9dd 2306 	ldrd	r2, r3, [sp, #24]
 80068a8:	f7f9 fe20 	bl	80004ec <__aeabi_dmul>
 80068ac:	4652      	mov	r2, sl
 80068ae:	465b      	mov	r3, fp
 80068b0:	f7f9 fc66 	bl	8000180 <__adddf3>
 80068b4:	460b      	mov	r3, r1
 80068b6:	4945      	ldr	r1, [pc, #276]	@ (80069cc <_strtod_l+0xad4>)
 80068b8:	4a4a      	ldr	r2, [pc, #296]	@ (80069e4 <_strtod_l+0xaec>)
 80068ba:	4019      	ands	r1, r3
 80068bc:	4291      	cmp	r1, r2
 80068be:	4682      	mov	sl, r0
 80068c0:	d942      	bls.n	8006948 <_strtod_l+0xa50>
 80068c2:	9a0d      	ldr	r2, [sp, #52]	@ 0x34
 80068c4:	4b43      	ldr	r3, [pc, #268]	@ (80069d4 <_strtod_l+0xadc>)
 80068c6:	429a      	cmp	r2, r3
 80068c8:	d103      	bne.n	80068d2 <_strtod_l+0x9da>
 80068ca:	9b0c      	ldr	r3, [sp, #48]	@ 0x30
 80068cc:	3301      	adds	r3, #1
 80068ce:	f43f ad32 	beq.w	8006336 <_strtod_l+0x43e>
 80068d2:	f04f 3aff 	mov.w	sl, #4294967295
 80068d6:	f8df b0fc 	ldr.w	fp, [pc, #252]	@ 80069d4 <_strtod_l+0xadc>
 80068da:	991a      	ldr	r1, [sp, #104]	@ 0x68
 80068dc:	9805      	ldr	r0, [sp, #20]
 80068de:	f001 fc65 	bl	80081ac <_Bfree>
 80068e2:	4649      	mov	r1, r9
 80068e4:	9805      	ldr	r0, [sp, #20]
 80068e6:	f001 fc61 	bl	80081ac <_Bfree>
 80068ea:	4641      	mov	r1, r8
 80068ec:	9805      	ldr	r0, [sp, #20]
 80068ee:	f001 fc5d 	bl	80081ac <_Bfree>
 80068f2:	4621      	mov	r1, r4
 80068f4:	9805      	ldr	r0, [sp, #20]
 80068f6:	f001 fc59 	bl	80081ac <_Bfree>
 80068fa:	e61c      	b.n	8006536 <_strtod_l+0x63e>
 80068fc:	f1ba 0f01 	cmp.w	sl, #1
 8006900:	d103      	bne.n	800690a <_strtod_l+0xa12>
 8006902:	9b0a      	ldr	r3, [sp, #40]	@ 0x28
 8006904:	2b00      	cmp	r3, #0
 8006906:	f43f ada9 	beq.w	800645c <_strtod_l+0x564>
 800690a:	2200      	movs	r2, #0
 800690c:	4b36      	ldr	r3, [pc, #216]	@ (80069e8 <_strtod_l+0xaf0>)
 800690e:	2600      	movs	r6, #0
 8006910:	e9cd 2306 	strd	r2, r3, [sp, #24]
 8006914:	4f30      	ldr	r7, [pc, #192]	@ (80069d8 <_strtod_l+0xae0>)
 8006916:	e7b3      	b.n	8006880 <_strtod_l+0x988>
 8006918:	2600      	movs	r6, #0
 800691a:	4f30      	ldr	r7, [pc, #192]	@ (80069dc <_strtod_l+0xae4>)
 800691c:	e7ac      	b.n	8006878 <_strtod_l+0x980>
 800691e:	4630      	mov	r0, r6
 8006920:	4639      	mov	r1, r7
 8006922:	4b2e      	ldr	r3, [pc, #184]	@ (80069dc <_strtod_l+0xae4>)
 8006924:	2200      	movs	r2, #0
 8006926:	f7f9 fde1 	bl	80004ec <__aeabi_dmul>
 800692a:	9b0f      	ldr	r3, [sp, #60]	@ 0x3c
 800692c:	4606      	mov	r6, r0
 800692e:	460f      	mov	r7, r1
 8006930:	2b00      	cmp	r3, #0
 8006932:	d0a1      	beq.n	8006878 <_strtod_l+0x980>
 8006934:	e9cd 6706 	strd	r6, r7, [sp, #24]
 8006938:	e7a2      	b.n	8006880 <_strtod_l+0x988>
 800693a:	2200      	movs	r2, #0
 800693c:	4b26      	ldr	r3, [pc, #152]	@ (80069d8 <_strtod_l+0xae0>)
 800693e:	4616      	mov	r6, r2
 8006940:	461f      	mov	r7, r3
 8006942:	e9cd 2306 	strd	r2, r3, [sp, #24]
 8006946:	e79b      	b.n	8006880 <_strtod_l+0x988>
 8006948:	f103 7b54 	add.w	fp, r3, #55574528	@ 0x3500000
 800694c:	9b08      	ldr	r3, [sp, #32]
 800694e:	f8cd b028 	str.w	fp, [sp, #40]	@ 0x28
 8006952:	2b00      	cmp	r3, #0
 8006954:	d1c1      	bne.n	80068da <_strtod_l+0x9e2>
 8006956:	f02b 4300 	bic.w	r3, fp, #2147483648	@ 0x80000000
 800695a:	0d1b      	lsrs	r3, r3, #20
 800695c:	051b      	lsls	r3, r3, #20
 800695e:	429d      	cmp	r5, r3
 8006960:	d1bb      	bne.n	80068da <_strtod_l+0x9e2>
 8006962:	4630      	mov	r0, r6
 8006964:	4639      	mov	r1, r7
 8006966:	f7fa f957 	bl	8000c18 <__aeabi_d2lz>
 800696a:	f7f9 fd91 	bl	8000490 <__aeabi_l2d>
 800696e:	4602      	mov	r2, r0
 8006970:	460b      	mov	r3, r1
 8006972:	4630      	mov	r0, r6
 8006974:	4639      	mov	r1, r7
 8006976:	f7f9 fc01 	bl	800017c <__aeabi_dsub>
 800697a:	460b      	mov	r3, r1
 800697c:	4602      	mov	r2, r0
 800697e:	f3cb 0613 	ubfx	r6, fp, #0, #20
 8006982:	e9cd 230c 	strd	r2, r3, [sp, #48]	@ 0x30
 8006986:	9b0f      	ldr	r3, [sp, #60]	@ 0x3c
 8006988:	ea46 060a 	orr.w	r6, r6, sl
 800698c:	431e      	orrs	r6, r3
 800698e:	d06a      	beq.n	8006a66 <_strtod_l+0xb6e>
 8006990:	a309      	add	r3, pc, #36	@ (adr r3, 80069b8 <_strtod_l+0xac0>)
 8006992:	e9d3 2300 	ldrd	r2, r3, [r3]
 8006996:	f7fa f81b 	bl	80009d0 <__aeabi_dcmplt>
 800699a:	2800      	cmp	r0, #0
 800699c:	f47f acd6 	bne.w	800634c <_strtod_l+0x454>
 80069a0:	a307      	add	r3, pc, #28	@ (adr r3, 80069c0 <_strtod_l+0xac8>)
 80069a2:	e9d3 2300 	ldrd	r2, r3, [r3]
 80069a6:	e9dd 010c 	ldrd	r0, r1, [sp, #48]	@ 0x30
 80069aa:	f7fa f82f 	bl	8000a0c <__aeabi_dcmpgt>
 80069ae:	2800      	cmp	r0, #0
 80069b0:	d093      	beq.n	80068da <_strtod_l+0x9e2>
 80069b2:	e4cb      	b.n	800634c <_strtod_l+0x454>
 80069b4:	f3af 8000 	nop.w
 80069b8:	94a03595 	.word	0x94a03595
 80069bc:	3fdfffff 	.word	0x3fdfffff
 80069c0:	35afe535 	.word	0x35afe535
 80069c4:	3fe00000 	.word	0x3fe00000
 80069c8:	39500000 	.word	0x39500000
 80069cc:	7ff00000 	.word	0x7ff00000
 80069d0:	000fffff 	.word	0x000fffff
 80069d4:	7fefffff 	.word	0x7fefffff
 80069d8:	3ff00000 	.word	0x3ff00000
 80069dc:	3fe00000 	.word	0x3fe00000
 80069e0:	7fe00000 	.word	0x7fe00000
 80069e4:	7c9fffff 	.word	0x7c9fffff
 80069e8:	bff00000 	.word	0xbff00000
 80069ec:	9b08      	ldr	r3, [sp, #32]
 80069ee:	b323      	cbz	r3, 8006a3a <_strtod_l+0xb42>
 80069f0:	f1b5 6fd4 	cmp.w	r5, #111149056	@ 0x6a00000
 80069f4:	d821      	bhi.n	8006a3a <_strtod_l+0xb42>
 80069f6:	a328      	add	r3, pc, #160	@ (adr r3, 8006a98 <_strtod_l+0xba0>)
 80069f8:	e9d3 2300 	ldrd	r2, r3, [r3]
 80069fc:	4630      	mov	r0, r6
 80069fe:	4639      	mov	r1, r7
 8006a00:	f7f9 fff0 	bl	80009e4 <__aeabi_dcmple>
 8006a04:	b1a0      	cbz	r0, 8006a30 <_strtod_l+0xb38>
 8006a06:	4639      	mov	r1, r7
 8006a08:	4630      	mov	r0, r6
 8006a0a:	f7fa f81f 	bl	8000a4c <__aeabi_d2uiz>
 8006a0e:	2801      	cmp	r0, #1
 8006a10:	bf38      	it	cc
 8006a12:	2001      	movcc	r0, #1
 8006a14:	f7f9 fcf0 	bl	80003f8 <__aeabi_ui2d>
 8006a18:	9b0f      	ldr	r3, [sp, #60]	@ 0x3c
 8006a1a:	4606      	mov	r6, r0
 8006a1c:	460f      	mov	r7, r1
 8006a1e:	b9fb      	cbnz	r3, 8006a60 <_strtod_l+0xb68>
 8006a20:	f101 4300 	add.w	r3, r1, #2147483648	@ 0x80000000
 8006a24:	9014      	str	r0, [sp, #80]	@ 0x50
 8006a26:	9315      	str	r3, [sp, #84]	@ 0x54
 8006a28:	e9dd 2314 	ldrd	r2, r3, [sp, #80]	@ 0x50
 8006a2c:	e9cd 2310 	strd	r2, r3, [sp, #64]	@ 0x40
 8006a30:	9b11      	ldr	r3, [sp, #68]	@ 0x44
 8006a32:	f103 63d6 	add.w	r3, r3, #112197632	@ 0x6b00000
 8006a36:	1b5b      	subs	r3, r3, r5
 8006a38:	9311      	str	r3, [sp, #68]	@ 0x44
 8006a3a:	e9dd 010c 	ldrd	r0, r1, [sp, #48]	@ 0x30
 8006a3e:	e9dd ab10 	ldrd	sl, fp, [sp, #64]	@ 0x40
 8006a42:	f001 fedf 	bl	8008804 <__ulp>
 8006a46:	4602      	mov	r2, r0
 8006a48:	460b      	mov	r3, r1
 8006a4a:	4650      	mov	r0, sl
 8006a4c:	4659      	mov	r1, fp
 8006a4e:	f7f9 fd4d 	bl	80004ec <__aeabi_dmul>
 8006a52:	e9dd 230c 	ldrd	r2, r3, [sp, #48]	@ 0x30
 8006a56:	f7f9 fb93 	bl	8000180 <__adddf3>
 8006a5a:	4682      	mov	sl, r0
 8006a5c:	468b      	mov	fp, r1
 8006a5e:	e775      	b.n	800694c <_strtod_l+0xa54>
 8006a60:	e9cd 6714 	strd	r6, r7, [sp, #80]	@ 0x50
 8006a64:	e7e0      	b.n	8006a28 <_strtod_l+0xb30>
 8006a66:	a30e      	add	r3, pc, #56	@ (adr r3, 8006aa0 <_strtod_l+0xba8>)
 8006a68:	e9d3 2300 	ldrd	r2, r3, [r3]
 8006a6c:	f7f9 ffb0 	bl	80009d0 <__aeabi_dcmplt>
 8006a70:	e79d      	b.n	80069ae <_strtod_l+0xab6>
 8006a72:	2300      	movs	r3, #0
 8006a74:	930e      	str	r3, [sp, #56]	@ 0x38
 8006a76:	9b19      	ldr	r3, [sp, #100]	@ 0x64
 8006a78:	9a17      	ldr	r2, [sp, #92]	@ 0x5c
 8006a7a:	6013      	str	r3, [r2, #0]
 8006a7c:	f7ff ba79 	b.w	8005f72 <_strtod_l+0x7a>
 8006a80:	2a65      	cmp	r2, #101	@ 0x65
 8006a82:	f43f ab72 	beq.w	800616a <_strtod_l+0x272>
 8006a86:	2a45      	cmp	r2, #69	@ 0x45
 8006a88:	f43f ab6f 	beq.w	800616a <_strtod_l+0x272>
 8006a8c:	2301      	movs	r3, #1
 8006a8e:	f7ff bbaa 	b.w	80061e6 <_strtod_l+0x2ee>
 8006a92:	bf00      	nop
 8006a94:	f3af 8000 	nop.w
 8006a98:	ffc00000 	.word	0xffc00000
 8006a9c:	41dfffff 	.word	0x41dfffff
 8006aa0:	94a03595 	.word	0x94a03595
 8006aa4:	3fcfffff 	.word	0x3fcfffff

08006aa8 <_strtod_r>:
 8006aa8:	4b01      	ldr	r3, [pc, #4]	@ (8006ab0 <_strtod_r+0x8>)
 8006aaa:	f7ff ba25 	b.w	8005ef8 <_strtod_l>
 8006aae:	bf00      	nop
 8006ab0:	2000006c 	.word	0x2000006c

08006ab4 <_strtol_l.isra.0>:
 8006ab4:	2b24      	cmp	r3, #36	@ 0x24
 8006ab6:	e92d 47f0 	stmdb	sp!, {r4, r5, r6, r7, r8, r9, sl, lr}
 8006aba:	4686      	mov	lr, r0
 8006abc:	4690      	mov	r8, r2
 8006abe:	d801      	bhi.n	8006ac4 <_strtol_l.isra.0+0x10>
 8006ac0:	2b01      	cmp	r3, #1
 8006ac2:	d106      	bne.n	8006ad2 <_strtol_l.isra.0+0x1e>
 8006ac4:	f7ff f898 	bl	8005bf8 <__errno>
 8006ac8:	2316      	movs	r3, #22
 8006aca:	6003      	str	r3, [r0, #0]
 8006acc:	2000      	movs	r0, #0
 8006ace:	e8bd 87f0 	ldmia.w	sp!, {r4, r5, r6, r7, r8, r9, sl, pc}
 8006ad2:	460d      	mov	r5, r1
 8006ad4:	4833      	ldr	r0, [pc, #204]	@ (8006ba4 <_strtol_l.isra.0+0xf0>)
 8006ad6:	462a      	mov	r2, r5
 8006ad8:	f815 4b01 	ldrb.w	r4, [r5], #1
 8006adc:	5d06      	ldrb	r6, [r0, r4]
 8006ade:	f016 0608 	ands.w	r6, r6, #8
 8006ae2:	d1f8      	bne.n	8006ad6 <_strtol_l.isra.0+0x22>
 8006ae4:	2c2d      	cmp	r4, #45	@ 0x2d
 8006ae6:	d110      	bne.n	8006b0a <_strtol_l.isra.0+0x56>
 8006ae8:	2601      	movs	r6, #1
 8006aea:	782c      	ldrb	r4, [r5, #0]
 8006aec:	1c95      	adds	r5, r2, #2
 8006aee:	f033 0210 	bics.w	r2, r3, #16
 8006af2:	d115      	bne.n	8006b20 <_strtol_l.isra.0+0x6c>
 8006af4:	2c30      	cmp	r4, #48	@ 0x30
 8006af6:	d10d      	bne.n	8006b14 <_strtol_l.isra.0+0x60>
 8006af8:	782a      	ldrb	r2, [r5, #0]
 8006afa:	f002 02df 	and.w	r2, r2, #223	@ 0xdf
 8006afe:	2a58      	cmp	r2, #88	@ 0x58
 8006b00:	d108      	bne.n	8006b14 <_strtol_l.isra.0+0x60>
 8006b02:	786c      	ldrb	r4, [r5, #1]
 8006b04:	3502      	adds	r5, #2
 8006b06:	2310      	movs	r3, #16
 8006b08:	e00a      	b.n	8006b20 <_strtol_l.isra.0+0x6c>
 8006b0a:	2c2b      	cmp	r4, #43	@ 0x2b
 8006b0c:	bf04      	itt	eq
 8006b0e:	782c      	ldrbeq	r4, [r5, #0]
 8006b10:	1c95      	addeq	r5, r2, #2
 8006b12:	e7ec      	b.n	8006aee <_strtol_l.isra.0+0x3a>
 8006b14:	2b00      	cmp	r3, #0
 8006b16:	d1f6      	bne.n	8006b06 <_strtol_l.isra.0+0x52>
 8006b18:	2c30      	cmp	r4, #48	@ 0x30
 8006b1a:	bf14      	ite	ne
 8006b1c:	230a      	movne	r3, #10
 8006b1e:	2308      	moveq	r3, #8
 8006b20:	2200      	movs	r2, #0
 8006b22:	f106 4c00 	add.w	ip, r6, #2147483648	@ 0x80000000
 8006b26:	f10c 3cff 	add.w	ip, ip, #4294967295
 8006b2a:	fbbc f9f3 	udiv	r9, ip, r3
 8006b2e:	4610      	mov	r0, r2
 8006b30:	fb03 ca19 	mls	sl, r3, r9, ip
 8006b34:	f1a4 0730 	sub.w	r7, r4, #48	@ 0x30
 8006b38:	2f09      	cmp	r7, #9
 8006b3a:	d80f      	bhi.n	8006b5c <_strtol_l.isra.0+0xa8>
 8006b3c:	463c      	mov	r4, r7
 8006b3e:	42a3      	cmp	r3, r4
 8006b40:	dd1b      	ble.n	8006b7a <_strtol_l.isra.0+0xc6>
 8006b42:	1c57      	adds	r7, r2, #1
 8006b44:	d007      	beq.n	8006b56 <_strtol_l.isra.0+0xa2>
 8006b46:	4581      	cmp	r9, r0
 8006b48:	d314      	bcc.n	8006b74 <_strtol_l.isra.0+0xc0>
 8006b4a:	d101      	bne.n	8006b50 <_strtol_l.isra.0+0x9c>
 8006b4c:	45a2      	cmp	sl, r4
 8006b4e:	db11      	blt.n	8006b74 <_strtol_l.isra.0+0xc0>
 8006b50:	2201      	movs	r2, #1
 8006b52:	fb00 4003 	mla	r0, r0, r3, r4
 8006b56:	f815 4b01 	ldrb.w	r4, [r5], #1
 8006b5a:	e7eb      	b.n	8006b34 <_strtol_l.isra.0+0x80>
 8006b5c:	f1a4 0741 	sub.w	r7, r4, #65	@ 0x41
 8006b60:	2f19      	cmp	r7, #25
 8006b62:	d801      	bhi.n	8006b68 <_strtol_l.isra.0+0xb4>
 8006b64:	3c37      	subs	r4, #55	@ 0x37
 8006b66:	e7ea      	b.n	8006b3e <_strtol_l.isra.0+0x8a>
 8006b68:	f1a4 0761 	sub.w	r7, r4, #97	@ 0x61
 8006b6c:	2f19      	cmp	r7, #25
 8006b6e:	d804      	bhi.n	8006b7a <_strtol_l.isra.0+0xc6>
 8006b70:	3c57      	subs	r4, #87	@ 0x57
 8006b72:	e7e4      	b.n	8006b3e <_strtol_l.isra.0+0x8a>
 8006b74:	f04f 32ff 	mov.w	r2, #4294967295
 8006b78:	e7ed      	b.n	8006b56 <_strtol_l.isra.0+0xa2>
 8006b7a:	1c53      	adds	r3, r2, #1
 8006b7c:	d108      	bne.n	8006b90 <_strtol_l.isra.0+0xdc>
 8006b7e:	2322      	movs	r3, #34	@ 0x22
 8006b80:	4660      	mov	r0, ip
 8006b82:	f8ce 3000 	str.w	r3, [lr]
 8006b86:	f1b8 0f00 	cmp.w	r8, #0
 8006b8a:	d0a0      	beq.n	8006ace <_strtol_l.isra.0+0x1a>
 8006b8c:	1e69      	subs	r1, r5, #1
 8006b8e:	e006      	b.n	8006b9e <_strtol_l.isra.0+0xea>
 8006b90:	b106      	cbz	r6, 8006b94 <_strtol_l.isra.0+0xe0>
 8006b92:	4240      	negs	r0, r0
 8006b94:	f1b8 0f00 	cmp.w	r8, #0
 8006b98:	d099      	beq.n	8006ace <_strtol_l.isra.0+0x1a>
 8006b9a:	2a00      	cmp	r2, #0
 8006b9c:	d1f6      	bne.n	8006b8c <_strtol_l.isra.0+0xd8>
 8006b9e:	f8c8 1000 	str.w	r1, [r8]
 8006ba2:	e794      	b.n	8006ace <_strtol_l.isra.0+0x1a>
 8006ba4:	08009e61 	.word	0x08009e61

08006ba8 <_strtol_r>:
 8006ba8:	f7ff bf84 	b.w	8006ab4 <_strtol_l.isra.0>

08006bac <__ssputs_r>:
 8006bac:	e92d 47f0 	stmdb	sp!, {r4, r5, r6, r7, r8, r9, sl, lr}
 8006bb0:	461f      	mov	r7, r3
 8006bb2:	688e      	ldr	r6, [r1, #8]
 8006bb4:	4682      	mov	sl, r0
 8006bb6:	42be      	cmp	r6, r7
 8006bb8:	460c      	mov	r4, r1
 8006bba:	4690      	mov	r8, r2
 8006bbc:	680b      	ldr	r3, [r1, #0]
 8006bbe:	d82d      	bhi.n	8006c1c <__ssputs_r+0x70>
 8006bc0:	f9b1 200c 	ldrsh.w	r2, [r1, #12]
 8006bc4:	f412 6f90 	tst.w	r2, #1152	@ 0x480
 8006bc8:	d026      	beq.n	8006c18 <__ssputs_r+0x6c>
 8006bca:	6965      	ldr	r5, [r4, #20]
 8006bcc:	6909      	ldr	r1, [r1, #16]
 8006bce:	eb05 0545 	add.w	r5, r5, r5, lsl #1
 8006bd2:	eba3 0901 	sub.w	r9, r3, r1
 8006bd6:	eb05 75d5 	add.w	r5, r5, r5, lsr #31
 8006bda:	1c7b      	adds	r3, r7, #1
 8006bdc:	444b      	add	r3, r9
 8006bde:	106d      	asrs	r5, r5, #1
 8006be0:	429d      	cmp	r5, r3
 8006be2:	bf38      	it	cc
 8006be4:	461d      	movcc	r5, r3
 8006be6:	0553      	lsls	r3, r2, #21
 8006be8:	d527      	bpl.n	8006c3a <__ssputs_r+0x8e>
 8006bea:	4629      	mov	r1, r5
 8006bec:	f7ff f8d4 	bl	8005d98 <_malloc_r>
 8006bf0:	4606      	mov	r6, r0
 8006bf2:	b360      	cbz	r0, 8006c4e <__ssputs_r+0xa2>
 8006bf4:	464a      	mov	r2, r9
 8006bf6:	6921      	ldr	r1, [r4, #16]
 8006bf8:	f7ff f82b 	bl	8005c52 <memcpy>
 8006bfc:	89a3      	ldrh	r3, [r4, #12]
 8006bfe:	f423 6390 	bic.w	r3, r3, #1152	@ 0x480
 8006c02:	f043 0380 	orr.w	r3, r3, #128	@ 0x80
 8006c06:	81a3      	strh	r3, [r4, #12]
 8006c08:	6126      	str	r6, [r4, #16]
 8006c0a:	444e      	add	r6, r9
 8006c0c:	6026      	str	r6, [r4, #0]
 8006c0e:	463e      	mov	r6, r7
 8006c10:	6165      	str	r5, [r4, #20]
 8006c12:	eba5 0509 	sub.w	r5, r5, r9
 8006c16:	60a5      	str	r5, [r4, #8]
 8006c18:	42be      	cmp	r6, r7
 8006c1a:	d900      	bls.n	8006c1e <__ssputs_r+0x72>
 8006c1c:	463e      	mov	r6, r7
 8006c1e:	4632      	mov	r2, r6
 8006c20:	4641      	mov	r1, r8
 8006c22:	6820      	ldr	r0, [r4, #0]
 8006c24:	f000 feef 	bl	8007a06 <memmove>
 8006c28:	2000      	movs	r0, #0
 8006c2a:	68a3      	ldr	r3, [r4, #8]
 8006c2c:	1b9b      	subs	r3, r3, r6
 8006c2e:	60a3      	str	r3, [r4, #8]
 8006c30:	6823      	ldr	r3, [r4, #0]
 8006c32:	4433      	add	r3, r6
 8006c34:	6023      	str	r3, [r4, #0]
 8006c36:	e8bd 87f0 	ldmia.w	sp!, {r4, r5, r6, r7, r8, r9, sl, pc}
 8006c3a:	462a      	mov	r2, r5
 8006c3c:	f001 ff16 	bl	8008a6c <_realloc_r>
 8006c40:	4606      	mov	r6, r0
 8006c42:	2800      	cmp	r0, #0
 8006c44:	d1e0      	bne.n	8006c08 <__ssputs_r+0x5c>
 8006c46:	4650      	mov	r0, sl
 8006c48:	6921      	ldr	r1, [r4, #16]
 8006c4a:	f7ff f833 	bl	8005cb4 <_free_r>
 8006c4e:	230c      	movs	r3, #12
 8006c50:	f8ca 3000 	str.w	r3, [sl]
 8006c54:	89a3      	ldrh	r3, [r4, #12]
 8006c56:	f04f 30ff 	mov.w	r0, #4294967295
 8006c5a:	f043 0340 	orr.w	r3, r3, #64	@ 0x40
 8006c5e:	81a3      	strh	r3, [r4, #12]
 8006c60:	e7e9      	b.n	8006c36 <__ssputs_r+0x8a>
	...

08006c64 <_svfiprintf_r>:
 8006c64:	e92d 4ff0 	stmdb	sp!, {r4, r5, r6, r7, r8, r9, sl, fp, lr}
 8006c68:	4698      	mov	r8, r3
 8006c6a:	898b      	ldrh	r3, [r1, #12]
 8006c6c:	4607      	mov	r7, r0
 8006c6e:	061b      	lsls	r3, r3, #24
 8006c70:	460d      	mov	r5, r1
 8006c72:	4614      	mov	r4, r2
 8006c74:	b09d      	sub	sp, #116	@ 0x74
 8006c76:	d510      	bpl.n	8006c9a <_svfiprintf_r+0x36>
 8006c78:	690b      	ldr	r3, [r1, #16]
 8006c7a:	b973      	cbnz	r3, 8006c9a <_svfiprintf_r+0x36>
 8006c7c:	2140      	movs	r1, #64	@ 0x40
 8006c7e:	f7ff f88b 	bl	8005d98 <_malloc_r>
 8006c82:	6028      	str	r0, [r5, #0]
 8006c84:	6128      	str	r0, [r5, #16]
 8006c86:	b930      	cbnz	r0, 8006c96 <_svfiprintf_r+0x32>
 8006c88:	230c      	movs	r3, #12
 8006c8a:	603b      	str	r3, [r7, #0]
 8006c8c:	f04f 30ff 	mov.w	r0, #4294967295
 8006c90:	b01d      	add	sp, #116	@ 0x74
 8006c92:	e8bd 8ff0 	ldmia.w	sp!, {r4, r5, r6, r7, r8, r9, sl, fp, pc}
 8006c96:	2340      	movs	r3, #64	@ 0x40
 8006c98:	616b      	str	r3, [r5, #20]
 8006c9a:	2300      	movs	r3, #0
 8006c9c:	9309      	str	r3, [sp, #36]	@ 0x24
 8006c9e:	2320      	movs	r3, #32
 8006ca0:	f88d 3029 	strb.w	r3, [sp, #41]	@ 0x29
 8006ca4:	2330      	movs	r3, #48	@ 0x30
 8006ca6:	f04f 0901 	mov.w	r9, #1
 8006caa:	f8cd 800c 	str.w	r8, [sp, #12]
 8006cae:	f8df 8198 	ldr.w	r8, [pc, #408]	@ 8006e48 <_svfiprintf_r+0x1e4>
 8006cb2:	f88d 302a 	strb.w	r3, [sp, #42]	@ 0x2a
 8006cb6:	4623      	mov	r3, r4
 8006cb8:	469a      	mov	sl, r3
 8006cba:	f813 2b01 	ldrb.w	r2, [r3], #1
 8006cbe:	b10a      	cbz	r2, 8006cc4 <_svfiprintf_r+0x60>
 8006cc0:	2a25      	cmp	r2, #37	@ 0x25
 8006cc2:	d1f9      	bne.n	8006cb8 <_svfiprintf_r+0x54>
 8006cc4:	ebba 0b04 	subs.w	fp, sl, r4
 8006cc8:	d00b      	beq.n	8006ce2 <_svfiprintf_r+0x7e>
 8006cca:	465b      	mov	r3, fp
 8006ccc:	4622      	mov	r2, r4
 8006cce:	4629      	mov	r1, r5
 8006cd0:	4638      	mov	r0, r7
 8006cd2:	f7ff ff6b 	bl	8006bac <__ssputs_r>
 8006cd6:	3001      	adds	r0, #1
 8006cd8:	f000 80a7 	beq.w	8006e2a <_svfiprintf_r+0x1c6>
 8006cdc:	9a09      	ldr	r2, [sp, #36]	@ 0x24
 8006cde:	445a      	add	r2, fp
 8006ce0:	9209      	str	r2, [sp, #36]	@ 0x24
 8006ce2:	f89a 3000 	ldrb.w	r3, [sl]
 8006ce6:	2b00      	cmp	r3, #0
 8006ce8:	f000 809f 	beq.w	8006e2a <_svfiprintf_r+0x1c6>
 8006cec:	2300      	movs	r3, #0
 8006cee:	f04f 32ff 	mov.w	r2, #4294967295
 8006cf2:	e9cd 2305 	strd	r2, r3, [sp, #20]
 8006cf6:	f10a 0a01 	add.w	sl, sl, #1
 8006cfa:	9304      	str	r3, [sp, #16]
 8006cfc:	9307      	str	r3, [sp, #28]
 8006cfe:	f88d 3053 	strb.w	r3, [sp, #83]	@ 0x53
 8006d02:	931a      	str	r3, [sp, #104]	@ 0x68
 8006d04:	4654      	mov	r4, sl
 8006d06:	2205      	movs	r2, #5
 8006d08:	f814 1b01 	ldrb.w	r1, [r4], #1
 8006d0c:	484e      	ldr	r0, [pc, #312]	@ (8006e48 <_svfiprintf_r+0x1e4>)
 8006d0e:	f000 fea5 	bl	8007a5c <memchr>
 8006d12:	9a04      	ldr	r2, [sp, #16]
 8006d14:	b9d8      	cbnz	r0, 8006d4e <_svfiprintf_r+0xea>
 8006d16:	06d0      	lsls	r0, r2, #27
 8006d18:	bf44      	itt	mi
 8006d1a:	2320      	movmi	r3, #32
 8006d1c:	f88d 3053 	strbmi.w	r3, [sp, #83]	@ 0x53
 8006d20:	0711      	lsls	r1, r2, #28
 8006d22:	bf44      	itt	mi
 8006d24:	232b      	movmi	r3, #43	@ 0x2b
 8006d26:	f88d 3053 	strbmi.w	r3, [sp, #83]	@ 0x53
 8006d2a:	f89a 3000 	ldrb.w	r3, [sl]
 8006d2e:	2b2a      	cmp	r3, #42	@ 0x2a
 8006d30:	d015      	beq.n	8006d5e <_svfiprintf_r+0xfa>
 8006d32:	4654      	mov	r4, sl
 8006d34:	2000      	movs	r0, #0
 8006d36:	f04f 0c0a 	mov.w	ip, #10
 8006d3a:	9a07      	ldr	r2, [sp, #28]
 8006d3c:	4621      	mov	r1, r4
 8006d3e:	f811 3b01 	ldrb.w	r3, [r1], #1
 8006d42:	3b30      	subs	r3, #48	@ 0x30
 8006d44:	2b09      	cmp	r3, #9
 8006d46:	d94b      	bls.n	8006de0 <_svfiprintf_r+0x17c>
 8006d48:	b1b0      	cbz	r0, 8006d78 <_svfiprintf_r+0x114>
 8006d4a:	9207      	str	r2, [sp, #28]
 8006d4c:	e014      	b.n	8006d78 <_svfiprintf_r+0x114>
 8006d4e:	eba0 0308 	sub.w	r3, r0, r8
 8006d52:	fa09 f303 	lsl.w	r3, r9, r3
 8006d56:	4313      	orrs	r3, r2
 8006d58:	46a2      	mov	sl, r4
 8006d5a:	9304      	str	r3, [sp, #16]
 8006d5c:	e7d2      	b.n	8006d04 <_svfiprintf_r+0xa0>
 8006d5e:	9b03      	ldr	r3, [sp, #12]
 8006d60:	1d19      	adds	r1, r3, #4
 8006d62:	681b      	ldr	r3, [r3, #0]
 8006d64:	9103      	str	r1, [sp, #12]
 8006d66:	2b00      	cmp	r3, #0
 8006d68:	bfbb      	ittet	lt
 8006d6a:	425b      	neglt	r3, r3
 8006d6c:	f042 0202 	orrlt.w	r2, r2, #2
 8006d70:	9307      	strge	r3, [sp, #28]
 8006d72:	9307      	strlt	r3, [sp, #28]
 8006d74:	bfb8      	it	lt
 8006d76:	9204      	strlt	r2, [sp, #16]
 8006d78:	7823      	ldrb	r3, [r4, #0]
 8006d7a:	2b2e      	cmp	r3, #46	@ 0x2e
 8006d7c:	d10a      	bne.n	8006d94 <_svfiprintf_r+0x130>
 8006d7e:	7863      	ldrb	r3, [r4, #1]
 8006d80:	2b2a      	cmp	r3, #42	@ 0x2a
 8006d82:	d132      	bne.n	8006dea <_svfiprintf_r+0x186>
 8006d84:	9b03      	ldr	r3, [sp, #12]
 8006d86:	3402      	adds	r4, #2
 8006d88:	1d1a      	adds	r2, r3, #4
 8006d8a:	681b      	ldr	r3, [r3, #0]
 8006d8c:	9203      	str	r2, [sp, #12]
 8006d8e:	ea43 73e3 	orr.w	r3, r3, r3, asr #31
 8006d92:	9305      	str	r3, [sp, #20]
 8006d94:	f8df a0b4 	ldr.w	sl, [pc, #180]	@ 8006e4c <_svfiprintf_r+0x1e8>
 8006d98:	2203      	movs	r2, #3
 8006d9a:	4650      	mov	r0, sl
 8006d9c:	7821      	ldrb	r1, [r4, #0]
 8006d9e:	f000 fe5d 	bl	8007a5c <memchr>
 8006da2:	b138      	cbz	r0, 8006db4 <_svfiprintf_r+0x150>
 8006da4:	2240      	movs	r2, #64	@ 0x40
 8006da6:	9b04      	ldr	r3, [sp, #16]
 8006da8:	eba0 000a 	sub.w	r0, r0, sl
 8006dac:	4082      	lsls	r2, r0
 8006dae:	4313      	orrs	r3, r2
 8006db0:	3401      	adds	r4, #1
 8006db2:	9304      	str	r3, [sp, #16]
 8006db4:	f814 1b01 	ldrb.w	r1, [r4], #1
 8006db8:	2206      	movs	r2, #6
 8006dba:	4825      	ldr	r0, [pc, #148]	@ (8006e50 <_svfiprintf_r+0x1ec>)
 8006dbc:	f88d 1028 	strb.w	r1, [sp, #40]	@ 0x28
 8006dc0:	f000 fe4c 	bl	8007a5c <memchr>
 8006dc4:	2800      	cmp	r0, #0
 8006dc6:	d036      	beq.n	8006e36 <_svfiprintf_r+0x1d2>
 8006dc8:	4b22      	ldr	r3, [pc, #136]	@ (8006e54 <_svfiprintf_r+0x1f0>)
 8006dca:	bb1b      	cbnz	r3, 8006e14 <_svfiprintf_r+0x1b0>
 8006dcc:	9b03      	ldr	r3, [sp, #12]
 8006dce:	3307      	adds	r3, #7
 8006dd0:	f023 0307 	bic.w	r3, r3, #7
 8006dd4:	3308      	adds	r3, #8
 8006dd6:	9303      	str	r3, [sp, #12]
 8006dd8:	9b09      	ldr	r3, [sp, #36]	@ 0x24
 8006dda:	4433      	add	r3, r6
 8006ddc:	9309      	str	r3, [sp, #36]	@ 0x24
 8006dde:	e76a      	b.n	8006cb6 <_svfiprintf_r+0x52>
 8006de0:	460c      	mov	r4, r1
 8006de2:	2001      	movs	r0, #1
 8006de4:	fb0c 3202 	mla	r2, ip, r2, r3
 8006de8:	e7a8      	b.n	8006d3c <_svfiprintf_r+0xd8>
 8006dea:	2300      	movs	r3, #0
 8006dec:	f04f 0c0a 	mov.w	ip, #10
 8006df0:	4619      	mov	r1, r3
 8006df2:	3401      	adds	r4, #1
 8006df4:	9305      	str	r3, [sp, #20]
 8006df6:	4620      	mov	r0, r4
 8006df8:	f810 2b01 	ldrb.w	r2, [r0], #1
 8006dfc:	3a30      	subs	r2, #48	@ 0x30
 8006dfe:	2a09      	cmp	r2, #9
 8006e00:	d903      	bls.n	8006e0a <_svfiprintf_r+0x1a6>
 8006e02:	2b00      	cmp	r3, #0
 8006e04:	d0c6      	beq.n	8006d94 <_svfiprintf_r+0x130>
 8006e06:	9105      	str	r1, [sp, #20]
 8006e08:	e7c4      	b.n	8006d94 <_svfiprintf_r+0x130>
 8006e0a:	4604      	mov	r4, r0
 8006e0c:	2301      	movs	r3, #1
 8006e0e:	fb0c 2101 	mla	r1, ip, r1, r2
 8006e12:	e7f0      	b.n	8006df6 <_svfiprintf_r+0x192>
 8006e14:	ab03      	add	r3, sp, #12
 8006e16:	9300      	str	r3, [sp, #0]
 8006e18:	462a      	mov	r2, r5
 8006e1a:	4638      	mov	r0, r7
 8006e1c:	4b0e      	ldr	r3, [pc, #56]	@ (8006e58 <_svfiprintf_r+0x1f4>)
 8006e1e:	a904      	add	r1, sp, #16
 8006e20:	f3af 8000 	nop.w
 8006e24:	1c42      	adds	r2, r0, #1
 8006e26:	4606      	mov	r6, r0
 8006e28:	d1d6      	bne.n	8006dd8 <_svfiprintf_r+0x174>
 8006e2a:	89ab      	ldrh	r3, [r5, #12]
 8006e2c:	065b      	lsls	r3, r3, #25
 8006e2e:	f53f af2d 	bmi.w	8006c8c <_svfiprintf_r+0x28>
 8006e32:	9809      	ldr	r0, [sp, #36]	@ 0x24
 8006e34:	e72c      	b.n	8006c90 <_svfiprintf_r+0x2c>
 8006e36:	ab03      	add	r3, sp, #12
 8006e38:	9300      	str	r3, [sp, #0]
 8006e3a:	462a      	mov	r2, r5
 8006e3c:	4638      	mov	r0, r7
 8006e3e:	4b06      	ldr	r3, [pc, #24]	@ (8006e58 <_svfiprintf_r+0x1f4>)
 8006e40:	a904      	add	r1, sp, #16
 8006e42:	f000 fa4b 	bl	80072dc <_printf_i>
 8006e46:	e7ed      	b.n	8006e24 <_svfiprintf_r+0x1c0>
 8006e48:	08009c7c 	.word	0x08009c7c
 8006e4c:	08009c82 	.word	0x08009c82
 8006e50:	08009c86 	.word	0x08009c86
 8006e54:	00000000 	.word	0x00000000
 8006e58:	08006bad 	.word	0x08006bad

08006e5c <_sungetc_r>:
 8006e5c:	b538      	push	{r3, r4, r5, lr}
 8006e5e:	1c4b      	adds	r3, r1, #1
 8006e60:	4614      	mov	r4, r2
 8006e62:	d103      	bne.n	8006e6c <_sungetc_r+0x10>
 8006e64:	f04f 35ff 	mov.w	r5, #4294967295
 8006e68:	4628      	mov	r0, r5
 8006e6a:	bd38      	pop	{r3, r4, r5, pc}
 8006e6c:	8993      	ldrh	r3, [r2, #12]
 8006e6e:	b2cd      	uxtb	r5, r1
 8006e70:	f023 0320 	bic.w	r3, r3, #32
 8006e74:	8193      	strh	r3, [r2, #12]
 8006e76:	6b63      	ldr	r3, [r4, #52]	@ 0x34
 8006e78:	6852      	ldr	r2, [r2, #4]
 8006e7a:	b18b      	cbz	r3, 8006ea0 <_sungetc_r+0x44>
 8006e7c:	6ba3      	ldr	r3, [r4, #56]	@ 0x38
 8006e7e:	4293      	cmp	r3, r2
 8006e80:	dd08      	ble.n	8006e94 <_sungetc_r+0x38>
 8006e82:	6823      	ldr	r3, [r4, #0]
 8006e84:	1e5a      	subs	r2, r3, #1
 8006e86:	6022      	str	r2, [r4, #0]
 8006e88:	f803 5c01 	strb.w	r5, [r3, #-1]
 8006e8c:	6863      	ldr	r3, [r4, #4]
 8006e8e:	3301      	adds	r3, #1
 8006e90:	6063      	str	r3, [r4, #4]
 8006e92:	e7e9      	b.n	8006e68 <_sungetc_r+0xc>
 8006e94:	4621      	mov	r1, r4
 8006e96:	f000 fd7e 	bl	8007996 <__submore>
 8006e9a:	2800      	cmp	r0, #0
 8006e9c:	d0f1      	beq.n	8006e82 <_sungetc_r+0x26>
 8006e9e:	e7e1      	b.n	8006e64 <_sungetc_r+0x8>
 8006ea0:	6921      	ldr	r1, [r4, #16]
 8006ea2:	6823      	ldr	r3, [r4, #0]
 8006ea4:	b151      	cbz	r1, 8006ebc <_sungetc_r+0x60>
 8006ea6:	4299      	cmp	r1, r3
 8006ea8:	d208      	bcs.n	8006ebc <_sungetc_r+0x60>
 8006eaa:	f813 1c01 	ldrb.w	r1, [r3, #-1]
 8006eae:	42a9      	cmp	r1, r5
 8006eb0:	d104      	bne.n	8006ebc <_sungetc_r+0x60>
 8006eb2:	3b01      	subs	r3, #1
 8006eb4:	3201      	adds	r2, #1
 8006eb6:	6023      	str	r3, [r4, #0]
 8006eb8:	6062      	str	r2, [r4, #4]
 8006eba:	e7d5      	b.n	8006e68 <_sungetc_r+0xc>
 8006ebc:	e9c4 320f 	strd	r3, r2, [r4, #60]	@ 0x3c
 8006ec0:	f104 0344 	add.w	r3, r4, #68	@ 0x44
 8006ec4:	6363      	str	r3, [r4, #52]	@ 0x34
 8006ec6:	2303      	movs	r3, #3
 8006ec8:	63a3      	str	r3, [r4, #56]	@ 0x38
 8006eca:	4623      	mov	r3, r4
 8006ecc:	f803 5f46 	strb.w	r5, [r3, #70]!
 8006ed0:	6023      	str	r3, [r4, #0]
 8006ed2:	2301      	movs	r3, #1
 8006ed4:	e7dc      	b.n	8006e90 <_sungetc_r+0x34>

08006ed6 <__ssrefill_r>:
 8006ed6:	b510      	push	{r4, lr}
 8006ed8:	460c      	mov	r4, r1
 8006eda:	6b49      	ldr	r1, [r1, #52]	@ 0x34
 8006edc:	b169      	cbz	r1, 8006efa <__ssrefill_r+0x24>
 8006ede:	f104 0344 	add.w	r3, r4, #68	@ 0x44
 8006ee2:	4299      	cmp	r1, r3
 8006ee4:	d001      	beq.n	8006eea <__ssrefill_r+0x14>
 8006ee6:	f7fe fee5 	bl	8005cb4 <_free_r>
 8006eea:	2000      	movs	r0, #0
 8006eec:	6c23      	ldr	r3, [r4, #64]	@ 0x40
 8006eee:	6360      	str	r0, [r4, #52]	@ 0x34
 8006ef0:	6063      	str	r3, [r4, #4]
 8006ef2:	b113      	cbz	r3, 8006efa <__ssrefill_r+0x24>
 8006ef4:	6be3      	ldr	r3, [r4, #60]	@ 0x3c
 8006ef6:	6023      	str	r3, [r4, #0]
 8006ef8:	bd10      	pop	{r4, pc}
 8006efa:	6923      	ldr	r3, [r4, #16]
 8006efc:	f04f 30ff 	mov.w	r0, #4294967295
 8006f00:	6023      	str	r3, [r4, #0]
 8006f02:	2300      	movs	r3, #0
 8006f04:	6063      	str	r3, [r4, #4]
 8006f06:	89a3      	ldrh	r3, [r4, #12]
 8006f08:	f043 0320 	orr.w	r3, r3, #32
 8006f0c:	81a3      	strh	r3, [r4, #12]
 8006f0e:	e7f3      	b.n	8006ef8 <__ssrefill_r+0x22>

08006f10 <__ssvfiscanf_r>:
 8006f10:	e92d 4ff0 	stmdb	sp!, {r4, r5, r6, r7, r8, r9, sl, fp, lr}
 8006f14:	460c      	mov	r4, r1
 8006f16:	2100      	movs	r1, #0
 8006f18:	4606      	mov	r6, r0
 8006f1a:	f5ad 7d23 	sub.w	sp, sp, #652	@ 0x28c
 8006f1e:	e9cd 1144 	strd	r1, r1, [sp, #272]	@ 0x110
 8006f22:	49ab      	ldr	r1, [pc, #684]	@ (80071d0 <__ssvfiscanf_r+0x2c0>)
 8006f24:	f10d 0804 	add.w	r8, sp, #4
 8006f28:	91a0      	str	r1, [sp, #640]	@ 0x280
 8006f2a:	49aa      	ldr	r1, [pc, #680]	@ (80071d4 <__ssvfiscanf_r+0x2c4>)
 8006f2c:	4faa      	ldr	r7, [pc, #680]	@ (80071d8 <__ssvfiscanf_r+0x2c8>)
 8006f2e:	f8cd 8118 	str.w	r8, [sp, #280]	@ 0x118
 8006f32:	91a1      	str	r1, [sp, #644]	@ 0x284
 8006f34:	9300      	str	r3, [sp, #0]
 8006f36:	f892 9000 	ldrb.w	r9, [r2]
 8006f3a:	f1b9 0f00 	cmp.w	r9, #0
 8006f3e:	f000 8159 	beq.w	80071f4 <__ssvfiscanf_r+0x2e4>
 8006f42:	f817 3009 	ldrb.w	r3, [r7, r9]
 8006f46:	1c55      	adds	r5, r2, #1
 8006f48:	f013 0308 	ands.w	r3, r3, #8
 8006f4c:	d019      	beq.n	8006f82 <__ssvfiscanf_r+0x72>
 8006f4e:	6863      	ldr	r3, [r4, #4]
 8006f50:	2b00      	cmp	r3, #0
 8006f52:	dd0f      	ble.n	8006f74 <__ssvfiscanf_r+0x64>
 8006f54:	6823      	ldr	r3, [r4, #0]
 8006f56:	781a      	ldrb	r2, [r3, #0]
 8006f58:	5cba      	ldrb	r2, [r7, r2]
 8006f5a:	0712      	lsls	r2, r2, #28
 8006f5c:	d401      	bmi.n	8006f62 <__ssvfiscanf_r+0x52>
 8006f5e:	462a      	mov	r2, r5
 8006f60:	e7e9      	b.n	8006f36 <__ssvfiscanf_r+0x26>
 8006f62:	9a45      	ldr	r2, [sp, #276]	@ 0x114
 8006f64:	3301      	adds	r3, #1
 8006f66:	3201      	adds	r2, #1
 8006f68:	9245      	str	r2, [sp, #276]	@ 0x114
 8006f6a:	6862      	ldr	r2, [r4, #4]
 8006f6c:	6023      	str	r3, [r4, #0]
 8006f6e:	3a01      	subs	r2, #1
 8006f70:	6062      	str	r2, [r4, #4]
 8006f72:	e7ec      	b.n	8006f4e <__ssvfiscanf_r+0x3e>
 8006f74:	4621      	mov	r1, r4
 8006f76:	4630      	mov	r0, r6
 8006f78:	9ba1      	ldr	r3, [sp, #644]	@ 0x284
 8006f7a:	4798      	blx	r3
 8006f7c:	2800      	cmp	r0, #0
 8006f7e:	d0e9      	beq.n	8006f54 <__ssvfiscanf_r+0x44>
 8006f80:	e7ed      	b.n	8006f5e <__ssvfiscanf_r+0x4e>
 8006f82:	f1b9 0f25 	cmp.w	r9, #37	@ 0x25
 8006f86:	f040 8086 	bne.w	8007096 <__ssvfiscanf_r+0x186>
 8006f8a:	9341      	str	r3, [sp, #260]	@ 0x104
 8006f8c:	9343      	str	r3, [sp, #268]	@ 0x10c
 8006f8e:	7853      	ldrb	r3, [r2, #1]
 8006f90:	2b2a      	cmp	r3, #42	@ 0x2a
 8006f92:	bf04      	itt	eq
 8006f94:	2310      	moveq	r3, #16
 8006f96:	1c95      	addeq	r5, r2, #2
 8006f98:	f04f 020a 	mov.w	r2, #10
 8006f9c:	bf08      	it	eq
 8006f9e:	9341      	streq	r3, [sp, #260]	@ 0x104
 8006fa0:	46aa      	mov	sl, r5
 8006fa2:	f81a 1b01 	ldrb.w	r1, [sl], #1
 8006fa6:	f1a1 0330 	sub.w	r3, r1, #48	@ 0x30
 8006faa:	2b09      	cmp	r3, #9
 8006fac:	d91e      	bls.n	8006fec <__ssvfiscanf_r+0xdc>
 8006fae:	f8df b22c 	ldr.w	fp, [pc, #556]	@ 80071dc <__ssvfiscanf_r+0x2cc>
 8006fb2:	2203      	movs	r2, #3
 8006fb4:	4658      	mov	r0, fp
 8006fb6:	f000 fd51 	bl	8007a5c <memchr>
 8006fba:	b138      	cbz	r0, 8006fcc <__ssvfiscanf_r+0xbc>
 8006fbc:	2301      	movs	r3, #1
 8006fbe:	4655      	mov	r5, sl
 8006fc0:	9a41      	ldr	r2, [sp, #260]	@ 0x104
 8006fc2:	eba0 000b 	sub.w	r0, r0, fp
 8006fc6:	4083      	lsls	r3, r0
 8006fc8:	4313      	orrs	r3, r2
 8006fca:	9341      	str	r3, [sp, #260]	@ 0x104
 8006fcc:	f815 3b01 	ldrb.w	r3, [r5], #1
 8006fd0:	2b78      	cmp	r3, #120	@ 0x78
 8006fd2:	d806      	bhi.n	8006fe2 <__ssvfiscanf_r+0xd2>
 8006fd4:	2b57      	cmp	r3, #87	@ 0x57
 8006fd6:	d810      	bhi.n	8006ffa <__ssvfiscanf_r+0xea>
 8006fd8:	2b25      	cmp	r3, #37	@ 0x25
 8006fda:	d05c      	beq.n	8007096 <__ssvfiscanf_r+0x186>
 8006fdc:	d856      	bhi.n	800708c <__ssvfiscanf_r+0x17c>
 8006fde:	2b00      	cmp	r3, #0
 8006fe0:	d074      	beq.n	80070cc <__ssvfiscanf_r+0x1bc>
 8006fe2:	2303      	movs	r3, #3
 8006fe4:	9347      	str	r3, [sp, #284]	@ 0x11c
 8006fe6:	230a      	movs	r3, #10
 8006fe8:	9342      	str	r3, [sp, #264]	@ 0x108
 8006fea:	e087      	b.n	80070fc <__ssvfiscanf_r+0x1ec>
 8006fec:	9b43      	ldr	r3, [sp, #268]	@ 0x10c
 8006fee:	4655      	mov	r5, sl
 8006ff0:	fb02 1103 	mla	r1, r2, r3, r1
 8006ff4:	3930      	subs	r1, #48	@ 0x30
 8006ff6:	9143      	str	r1, [sp, #268]	@ 0x10c
 8006ff8:	e7d2      	b.n	8006fa0 <__ssvfiscanf_r+0x90>
 8006ffa:	f1a3 0258 	sub.w	r2, r3, #88	@ 0x58
 8006ffe:	2a20      	cmp	r2, #32
 8007000:	d8ef      	bhi.n	8006fe2 <__ssvfiscanf_r+0xd2>
 8007002:	a101      	add	r1, pc, #4	@ (adr r1, 8007008 <__ssvfiscanf_r+0xf8>)
 8007004:	f851 f022 	ldr.w	pc, [r1, r2, lsl #2]
 8007008:	080070db 	.word	0x080070db
 800700c:	08006fe3 	.word	0x08006fe3
 8007010:	08006fe3 	.word	0x08006fe3
 8007014:	08007135 	.word	0x08007135
 8007018:	08006fe3 	.word	0x08006fe3
 800701c:	08006fe3 	.word	0x08006fe3
 8007020:	08006fe3 	.word	0x08006fe3
 8007024:	08006fe3 	.word	0x08006fe3
 8007028:	08006fe3 	.word	0x08006fe3
 800702c:	08006fe3 	.word	0x08006fe3
 8007030:	08006fe3 	.word	0x08006fe3
 8007034:	0800714b 	.word	0x0800714b
 8007038:	08007131 	.word	0x08007131
 800703c:	08007093 	.word	0x08007093
 8007040:	08007093 	.word	0x08007093
 8007044:	08007093 	.word	0x08007093
 8007048:	08006fe3 	.word	0x08006fe3
 800704c:	080070ed 	.word	0x080070ed
 8007050:	08006fe3 	.word	0x08006fe3
 8007054:	08006fe3 	.word	0x08006fe3
 8007058:	08006fe3 	.word	0x08006fe3
 800705c:	08006fe3 	.word	0x08006fe3
 8007060:	0800715b 	.word	0x0800715b
 8007064:	080070f5 	.word	0x080070f5
 8007068:	080070d3 	.word	0x080070d3
 800706c:	08006fe3 	.word	0x08006fe3
 8007070:	08006fe3 	.word	0x08006fe3
 8007074:	08007157 	.word	0x08007157
 8007078:	08006fe3 	.word	0x08006fe3
 800707c:	08007131 	.word	0x08007131
 8007080:	08006fe3 	.word	0x08006fe3
 8007084:	08006fe3 	.word	0x08006fe3
 8007088:	080070db 	.word	0x080070db
 800708c:	3b45      	subs	r3, #69	@ 0x45
 800708e:	2b02      	cmp	r3, #2
 8007090:	d8a7      	bhi.n	8006fe2 <__ssvfiscanf_r+0xd2>
 8007092:	2305      	movs	r3, #5
 8007094:	e031      	b.n	80070fa <__ssvfiscanf_r+0x1ea>
 8007096:	6863      	ldr	r3, [r4, #4]
 8007098:	2b00      	cmp	r3, #0
 800709a:	dd0d      	ble.n	80070b8 <__ssvfiscanf_r+0x1a8>
 800709c:	6823      	ldr	r3, [r4, #0]
 800709e:	781a      	ldrb	r2, [r3, #0]
 80070a0:	454a      	cmp	r2, r9
 80070a2:	f040 80a7 	bne.w	80071f4 <__ssvfiscanf_r+0x2e4>
 80070a6:	3301      	adds	r3, #1
 80070a8:	6862      	ldr	r2, [r4, #4]
 80070aa:	6023      	str	r3, [r4, #0]
 80070ac:	9b45      	ldr	r3, [sp, #276]	@ 0x114
 80070ae:	3a01      	subs	r2, #1
 80070b0:	3301      	adds	r3, #1
 80070b2:	6062      	str	r2, [r4, #4]
 80070b4:	9345      	str	r3, [sp, #276]	@ 0x114
 80070b6:	e752      	b.n	8006f5e <__ssvfiscanf_r+0x4e>
 80070b8:	4621      	mov	r1, r4
 80070ba:	4630      	mov	r0, r6
 80070bc:	9ba1      	ldr	r3, [sp, #644]	@ 0x284
 80070be:	4798      	blx	r3
 80070c0:	2800      	cmp	r0, #0
 80070c2:	d0eb      	beq.n	800709c <__ssvfiscanf_r+0x18c>
 80070c4:	9844      	ldr	r0, [sp, #272]	@ 0x110
 80070c6:	2800      	cmp	r0, #0
 80070c8:	f040 808c 	bne.w	80071e4 <__ssvfiscanf_r+0x2d4>
 80070cc:	f04f 30ff 	mov.w	r0, #4294967295
 80070d0:	e08c      	b.n	80071ec <__ssvfiscanf_r+0x2dc>
 80070d2:	9a41      	ldr	r2, [sp, #260]	@ 0x104
 80070d4:	f042 0220 	orr.w	r2, r2, #32
 80070d8:	9241      	str	r2, [sp, #260]	@ 0x104
 80070da:	9a41      	ldr	r2, [sp, #260]	@ 0x104
 80070dc:	f442 7200 	orr.w	r2, r2, #512	@ 0x200
 80070e0:	9241      	str	r2, [sp, #260]	@ 0x104
 80070e2:	2210      	movs	r2, #16
 80070e4:	2b6e      	cmp	r3, #110	@ 0x6e
 80070e6:	9242      	str	r2, [sp, #264]	@ 0x108
 80070e8:	d902      	bls.n	80070f0 <__ssvfiscanf_r+0x1e0>
 80070ea:	e005      	b.n	80070f8 <__ssvfiscanf_r+0x1e8>
 80070ec:	2300      	movs	r3, #0
 80070ee:	9342      	str	r3, [sp, #264]	@ 0x108
 80070f0:	2303      	movs	r3, #3
 80070f2:	e002      	b.n	80070fa <__ssvfiscanf_r+0x1ea>
 80070f4:	2308      	movs	r3, #8
 80070f6:	9342      	str	r3, [sp, #264]	@ 0x108
 80070f8:	2304      	movs	r3, #4
 80070fa:	9347      	str	r3, [sp, #284]	@ 0x11c
 80070fc:	6863      	ldr	r3, [r4, #4]
 80070fe:	2b00      	cmp	r3, #0
 8007100:	dd39      	ble.n	8007176 <__ssvfiscanf_r+0x266>
 8007102:	9b41      	ldr	r3, [sp, #260]	@ 0x104
 8007104:	0659      	lsls	r1, r3, #25
 8007106:	d404      	bmi.n	8007112 <__ssvfiscanf_r+0x202>
 8007108:	6823      	ldr	r3, [r4, #0]
 800710a:	781a      	ldrb	r2, [r3, #0]
 800710c:	5cba      	ldrb	r2, [r7, r2]
 800710e:	0712      	lsls	r2, r2, #28
 8007110:	d438      	bmi.n	8007184 <__ssvfiscanf_r+0x274>
 8007112:	9b47      	ldr	r3, [sp, #284]	@ 0x11c
 8007114:	2b02      	cmp	r3, #2
 8007116:	dc47      	bgt.n	80071a8 <__ssvfiscanf_r+0x298>
 8007118:	466b      	mov	r3, sp
 800711a:	4622      	mov	r2, r4
 800711c:	4630      	mov	r0, r6
 800711e:	a941      	add	r1, sp, #260	@ 0x104
 8007120:	f000 f9fa 	bl	8007518 <_scanf_chars>
 8007124:	2801      	cmp	r0, #1
 8007126:	d065      	beq.n	80071f4 <__ssvfiscanf_r+0x2e4>
 8007128:	2802      	cmp	r0, #2
 800712a:	f47f af18 	bne.w	8006f5e <__ssvfiscanf_r+0x4e>
 800712e:	e7c9      	b.n	80070c4 <__ssvfiscanf_r+0x1b4>
 8007130:	220a      	movs	r2, #10
 8007132:	e7d7      	b.n	80070e4 <__ssvfiscanf_r+0x1d4>
 8007134:	4629      	mov	r1, r5
 8007136:	4640      	mov	r0, r8
 8007138:	f000 fbf4 	bl	8007924 <__sccl>
 800713c:	9b41      	ldr	r3, [sp, #260]	@ 0x104
 800713e:	4605      	mov	r5, r0
 8007140:	f043 0340 	orr.w	r3, r3, #64	@ 0x40
 8007144:	9341      	str	r3, [sp, #260]	@ 0x104
 8007146:	2301      	movs	r3, #1
 8007148:	e7d7      	b.n	80070fa <__ssvfiscanf_r+0x1ea>
 800714a:	9b41      	ldr	r3, [sp, #260]	@ 0x104
 800714c:	f043 0340 	orr.w	r3, r3, #64	@ 0x40
 8007150:	9341      	str	r3, [sp, #260]	@ 0x104
 8007152:	2300      	movs	r3, #0
 8007154:	e7d1      	b.n	80070fa <__ssvfiscanf_r+0x1ea>
 8007156:	2302      	movs	r3, #2
 8007158:	e7cf      	b.n	80070fa <__ssvfiscanf_r+0x1ea>
 800715a:	9841      	ldr	r0, [sp, #260]	@ 0x104
 800715c:	06c3      	lsls	r3, r0, #27
 800715e:	f53f aefe 	bmi.w	8006f5e <__ssvfiscanf_r+0x4e>
 8007162:	9b00      	ldr	r3, [sp, #0]
 8007164:	9a45      	ldr	r2, [sp, #276]	@ 0x114
 8007166:	1d19      	adds	r1, r3, #4
 8007168:	9100      	str	r1, [sp, #0]
 800716a:	681b      	ldr	r3, [r3, #0]
 800716c:	07c0      	lsls	r0, r0, #31
 800716e:	bf4c      	ite	mi
 8007170:	801a      	strhmi	r2, [r3, #0]
 8007172:	601a      	strpl	r2, [r3, #0]
 8007174:	e6f3      	b.n	8006f5e <__ssvfiscanf_r+0x4e>
 8007176:	4621      	mov	r1, r4
 8007178:	4630      	mov	r0, r6
 800717a:	9ba1      	ldr	r3, [sp, #644]	@ 0x284
 800717c:	4798      	blx	r3
 800717e:	2800      	cmp	r0, #0
 8007180:	d0bf      	beq.n	8007102 <__ssvfiscanf_r+0x1f2>
 8007182:	e79f      	b.n	80070c4 <__ssvfiscanf_r+0x1b4>
 8007184:	9a45      	ldr	r2, [sp, #276]	@ 0x114
 8007186:	3201      	adds	r2, #1
 8007188:	9245      	str	r2, [sp, #276]	@ 0x114
 800718a:	6862      	ldr	r2, [r4, #4]
 800718c:	3a01      	subs	r2, #1
 800718e:	2a00      	cmp	r2, #0
 8007190:	6062      	str	r2, [r4, #4]
 8007192:	dd02      	ble.n	800719a <__ssvfiscanf_r+0x28a>
 8007194:	3301      	adds	r3, #1
 8007196:	6023      	str	r3, [r4, #0]
 8007198:	e7b6      	b.n	8007108 <__ssvfiscanf_r+0x1f8>
 800719a:	4621      	mov	r1, r4
 800719c:	4630      	mov	r0, r6
 800719e:	9ba1      	ldr	r3, [sp, #644]	@ 0x284
 80071a0:	4798      	blx	r3
 80071a2:	2800      	cmp	r0, #0
 80071a4:	d0b0      	beq.n	8007108 <__ssvfiscanf_r+0x1f8>
 80071a6:	e78d      	b.n	80070c4 <__ssvfiscanf_r+0x1b4>
 80071a8:	2b04      	cmp	r3, #4
 80071aa:	dc06      	bgt.n	80071ba <__ssvfiscanf_r+0x2aa>
 80071ac:	466b      	mov	r3, sp
 80071ae:	4622      	mov	r2, r4
 80071b0:	4630      	mov	r0, r6
 80071b2:	a941      	add	r1, sp, #260	@ 0x104
 80071b4:	f000 fa0a 	bl	80075cc <_scanf_i>
 80071b8:	e7b4      	b.n	8007124 <__ssvfiscanf_r+0x214>
 80071ba:	4b09      	ldr	r3, [pc, #36]	@ (80071e0 <__ssvfiscanf_r+0x2d0>)
 80071bc:	2b00      	cmp	r3, #0
 80071be:	f43f aece 	beq.w	8006f5e <__ssvfiscanf_r+0x4e>
 80071c2:	466b      	mov	r3, sp
 80071c4:	4622      	mov	r2, r4
 80071c6:	4630      	mov	r0, r6
 80071c8:	a941      	add	r1, sp, #260	@ 0x104
 80071ca:	f7fe f865 	bl	8005298 <_scanf_float>
 80071ce:	e7a9      	b.n	8007124 <__ssvfiscanf_r+0x214>
 80071d0:	08006e5d 	.word	0x08006e5d
 80071d4:	08006ed7 	.word	0x08006ed7
 80071d8:	08009e61 	.word	0x08009e61
 80071dc:	08009c82 	.word	0x08009c82
 80071e0:	08005299 	.word	0x08005299
 80071e4:	89a3      	ldrh	r3, [r4, #12]
 80071e6:	065b      	lsls	r3, r3, #25
 80071e8:	f53f af70 	bmi.w	80070cc <__ssvfiscanf_r+0x1bc>
 80071ec:	f50d 7d23 	add.w	sp, sp, #652	@ 0x28c
 80071f0:	e8bd 8ff0 	ldmia.w	sp!, {r4, r5, r6, r7, r8, r9, sl, fp, pc}
 80071f4:	9844      	ldr	r0, [sp, #272]	@ 0x110
 80071f6:	e7f9      	b.n	80071ec <__ssvfiscanf_r+0x2dc>

080071f8 <_printf_common>:
 80071f8:	e92d 47f0 	stmdb	sp!, {r4, r5, r6, r7, r8, r9, sl, lr}
 80071fc:	4616      	mov	r6, r2
 80071fe:	4698      	mov	r8, r3
 8007200:	688a      	ldr	r2, [r1, #8]
 8007202:	690b      	ldr	r3, [r1, #16]
 8007204:	4607      	mov	r7, r0
 8007206:	4293      	cmp	r3, r2
 8007208:	bfb8      	it	lt
 800720a:	4613      	movlt	r3, r2
 800720c:	6033      	str	r3, [r6, #0]
 800720e:	f891 2043 	ldrb.w	r2, [r1, #67]	@ 0x43
 8007212:	460c      	mov	r4, r1
 8007214:	f8dd 9020 	ldr.w	r9, [sp, #32]
 8007218:	b10a      	cbz	r2, 800721e <_printf_common+0x26>
 800721a:	3301      	adds	r3, #1
 800721c:	6033      	str	r3, [r6, #0]
 800721e:	6823      	ldr	r3, [r4, #0]
 8007220:	0699      	lsls	r1, r3, #26
 8007222:	bf42      	ittt	mi
 8007224:	6833      	ldrmi	r3, [r6, #0]
 8007226:	3302      	addmi	r3, #2
 8007228:	6033      	strmi	r3, [r6, #0]
 800722a:	6825      	ldr	r5, [r4, #0]
 800722c:	f015 0506 	ands.w	r5, r5, #6
 8007230:	d106      	bne.n	8007240 <_printf_common+0x48>
 8007232:	f104 0a19 	add.w	sl, r4, #25
 8007236:	68e3      	ldr	r3, [r4, #12]
 8007238:	6832      	ldr	r2, [r6, #0]
 800723a:	1a9b      	subs	r3, r3, r2
 800723c:	42ab      	cmp	r3, r5
 800723e:	dc2b      	bgt.n	8007298 <_printf_common+0xa0>
 8007240:	f894 3043 	ldrb.w	r3, [r4, #67]	@ 0x43
 8007244:	6822      	ldr	r2, [r4, #0]
 8007246:	3b00      	subs	r3, #0
 8007248:	bf18      	it	ne
 800724a:	2301      	movne	r3, #1
 800724c:	0692      	lsls	r2, r2, #26
 800724e:	d430      	bmi.n	80072b2 <_printf_common+0xba>
 8007250:	4641      	mov	r1, r8
 8007252:	4638      	mov	r0, r7
 8007254:	f104 0243 	add.w	r2, r4, #67	@ 0x43
 8007258:	47c8      	blx	r9
 800725a:	3001      	adds	r0, #1
 800725c:	d023      	beq.n	80072a6 <_printf_common+0xae>
 800725e:	6823      	ldr	r3, [r4, #0]
 8007260:	6922      	ldr	r2, [r4, #16]
 8007262:	f003 0306 	and.w	r3, r3, #6
 8007266:	2b04      	cmp	r3, #4
 8007268:	bf14      	ite	ne
 800726a:	2500      	movne	r5, #0
 800726c:	6833      	ldreq	r3, [r6, #0]
 800726e:	f04f 0600 	mov.w	r6, #0
 8007272:	bf08      	it	eq
 8007274:	68e5      	ldreq	r5, [r4, #12]
 8007276:	f104 041a 	add.w	r4, r4, #26
 800727a:	bf08      	it	eq
 800727c:	1aed      	subeq	r5, r5, r3
 800727e:	f854 3c12 	ldr.w	r3, [r4, #-18]
 8007282:	bf08      	it	eq
 8007284:	ea25 75e5 	biceq.w	r5, r5, r5, asr #31
 8007288:	4293      	cmp	r3, r2
 800728a:	bfc4      	itt	gt
 800728c:	1a9b      	subgt	r3, r3, r2
 800728e:	18ed      	addgt	r5, r5, r3
 8007290:	42b5      	cmp	r5, r6
 8007292:	d11a      	bne.n	80072ca <_printf_common+0xd2>
 8007294:	2000      	movs	r0, #0
 8007296:	e008      	b.n	80072aa <_printf_common+0xb2>
 8007298:	2301      	movs	r3, #1
 800729a:	4652      	mov	r2, sl
 800729c:	4641      	mov	r1, r8
 800729e:	4638      	mov	r0, r7
 80072a0:	47c8      	blx	r9
 80072a2:	3001      	adds	r0, #1
 80072a4:	d103      	bne.n	80072ae <_printf_common+0xb6>
 80072a6:	f04f 30ff 	mov.w	r0, #4294967295
 80072aa:	e8bd 87f0 	ldmia.w	sp!, {r4, r5, r6, r7, r8, r9, sl, pc}
 80072ae:	3501      	adds	r5, #1
 80072b0:	e7c1      	b.n	8007236 <_printf_common+0x3e>
 80072b2:	2030      	movs	r0, #48	@ 0x30
 80072b4:	18e1      	adds	r1, r4, r3
 80072b6:	f881 0043 	strb.w	r0, [r1, #67]	@ 0x43
 80072ba:	1c5a      	adds	r2, r3, #1
 80072bc:	f894 1045 	ldrb.w	r1, [r4, #69]	@ 0x45
 80072c0:	4422      	add	r2, r4
 80072c2:	3302      	adds	r3, #2
 80072c4:	f882 1043 	strb.w	r1, [r2, #67]	@ 0x43
 80072c8:	e7c2      	b.n	8007250 <_printf_common+0x58>
 80072ca:	2301      	movs	r3, #1
 80072cc:	4622      	mov	r2, r4
 80072ce:	4641      	mov	r1, r8
 80072d0:	4638      	mov	r0, r7
 80072d2:	47c8      	blx	r9
 80072d4:	3001      	adds	r0, #1
 80072d6:	d0e6      	beq.n	80072a6 <_printf_common+0xae>
 80072d8:	3601      	adds	r6, #1
 80072da:	e7d9      	b.n	8007290 <_printf_common+0x98>

080072dc <_printf_i>:
 80072dc:	e92d 47ff 	stmdb	sp!, {r0, r1, r2, r3, r4, r5, r6, r7, r8, r9, sl, lr}
 80072e0:	7e0f      	ldrb	r7, [r1, #24]
 80072e2:	4691      	mov	r9, r2
 80072e4:	2f78      	cmp	r7, #120	@ 0x78
 80072e6:	4680      	mov	r8, r0
 80072e8:	460c      	mov	r4, r1
 80072ea:	469a      	mov	sl, r3
 80072ec:	9e0c      	ldr	r6, [sp, #48]	@ 0x30
 80072ee:	f101 0243 	add.w	r2, r1, #67	@ 0x43
 80072f2:	d807      	bhi.n	8007304 <_printf_i+0x28>
 80072f4:	2f62      	cmp	r7, #98	@ 0x62
 80072f6:	d80a      	bhi.n	800730e <_printf_i+0x32>
 80072f8:	2f00      	cmp	r7, #0
 80072fa:	f000 80d1 	beq.w	80074a0 <_printf_i+0x1c4>
 80072fe:	2f58      	cmp	r7, #88	@ 0x58
 8007300:	f000 80b8 	beq.w	8007474 <_printf_i+0x198>
 8007304:	f104 0642 	add.w	r6, r4, #66	@ 0x42
 8007308:	f884 7042 	strb.w	r7, [r4, #66]	@ 0x42
 800730c:	e03a      	b.n	8007384 <_printf_i+0xa8>
 800730e:	f1a7 0363 	sub.w	r3, r7, #99	@ 0x63
 8007312:	2b15      	cmp	r3, #21
 8007314:	d8f6      	bhi.n	8007304 <_printf_i+0x28>
 8007316:	a101      	add	r1, pc, #4	@ (adr r1, 800731c <_printf_i+0x40>)
 8007318:	f851 f023 	ldr.w	pc, [r1, r3, lsl #2]
 800731c:	08007375 	.word	0x08007375
 8007320:	08007389 	.word	0x08007389
 8007324:	08007305 	.word	0x08007305
 8007328:	08007305 	.word	0x08007305
 800732c:	08007305 	.word	0x08007305
 8007330:	08007305 	.word	0x08007305
 8007334:	08007389 	.word	0x08007389
 8007338:	08007305 	.word	0x08007305
 800733c:	08007305 	.word	0x08007305
 8007340:	08007305 	.word	0x08007305
 8007344:	08007305 	.word	0x08007305
 8007348:	08007487 	.word	0x08007487
 800734c:	080073b3 	.word	0x080073b3
 8007350:	08007441 	.word	0x08007441
 8007354:	08007305 	.word	0x08007305
 8007358:	08007305 	.word	0x08007305
 800735c:	080074a9 	.word	0x080074a9
 8007360:	08007305 	.word	0x08007305
 8007364:	080073b3 	.word	0x080073b3
 8007368:	08007305 	.word	0x08007305
 800736c:	08007305 	.word	0x08007305
 8007370:	08007449 	.word	0x08007449
 8007374:	6833      	ldr	r3, [r6, #0]
 8007376:	1d1a      	adds	r2, r3, #4
 8007378:	681b      	ldr	r3, [r3, #0]
 800737a:	6032      	str	r2, [r6, #0]
 800737c:	f104 0642 	add.w	r6, r4, #66	@ 0x42
 8007380:	f884 3042 	strb.w	r3, [r4, #66]	@ 0x42
 8007384:	2301      	movs	r3, #1
 8007386:	e09c      	b.n	80074c2 <_printf_i+0x1e6>
 8007388:	6833      	ldr	r3, [r6, #0]
 800738a:	6820      	ldr	r0, [r4, #0]
 800738c:	1d19      	adds	r1, r3, #4
 800738e:	6031      	str	r1, [r6, #0]
 8007390:	0606      	lsls	r6, r0, #24
 8007392:	d501      	bpl.n	8007398 <_printf_i+0xbc>
 8007394:	681d      	ldr	r5, [r3, #0]
 8007396:	e003      	b.n	80073a0 <_printf_i+0xc4>
 8007398:	0645      	lsls	r5, r0, #25
 800739a:	d5fb      	bpl.n	8007394 <_printf_i+0xb8>
 800739c:	f9b3 5000 	ldrsh.w	r5, [r3]
 80073a0:	2d00      	cmp	r5, #0
 80073a2:	da03      	bge.n	80073ac <_printf_i+0xd0>
 80073a4:	232d      	movs	r3, #45	@ 0x2d
 80073a6:	426d      	negs	r5, r5
 80073a8:	f884 3043 	strb.w	r3, [r4, #67]	@ 0x43
 80073ac:	230a      	movs	r3, #10
 80073ae:	4858      	ldr	r0, [pc, #352]	@ (8007510 <_printf_i+0x234>)
 80073b0:	e011      	b.n	80073d6 <_printf_i+0xfa>
 80073b2:	6821      	ldr	r1, [r4, #0]
 80073b4:	6833      	ldr	r3, [r6, #0]
 80073b6:	0608      	lsls	r0, r1, #24
 80073b8:	f853 5b04 	ldr.w	r5, [r3], #4
 80073bc:	d402      	bmi.n	80073c4 <_printf_i+0xe8>
 80073be:	0649      	lsls	r1, r1, #25
 80073c0:	bf48      	it	mi
 80073c2:	b2ad      	uxthmi	r5, r5
 80073c4:	2f6f      	cmp	r7, #111	@ 0x6f
 80073c6:	6033      	str	r3, [r6, #0]
 80073c8:	bf14      	ite	ne
 80073ca:	230a      	movne	r3, #10
 80073cc:	2308      	moveq	r3, #8
 80073ce:	4850      	ldr	r0, [pc, #320]	@ (8007510 <_printf_i+0x234>)
 80073d0:	2100      	movs	r1, #0
 80073d2:	f884 1043 	strb.w	r1, [r4, #67]	@ 0x43
 80073d6:	6866      	ldr	r6, [r4, #4]
 80073d8:	2e00      	cmp	r6, #0
 80073da:	60a6      	str	r6, [r4, #8]
 80073dc:	db05      	blt.n	80073ea <_printf_i+0x10e>
 80073de:	6821      	ldr	r1, [r4, #0]
 80073e0:	432e      	orrs	r6, r5
 80073e2:	f021 0104 	bic.w	r1, r1, #4
 80073e6:	6021      	str	r1, [r4, #0]
 80073e8:	d04b      	beq.n	8007482 <_printf_i+0x1a6>
 80073ea:	4616      	mov	r6, r2
 80073ec:	fbb5 f1f3 	udiv	r1, r5, r3
 80073f0:	fb03 5711 	mls	r7, r3, r1, r5
 80073f4:	5dc7      	ldrb	r7, [r0, r7]
 80073f6:	f806 7d01 	strb.w	r7, [r6, #-1]!
 80073fa:	462f      	mov	r7, r5
 80073fc:	42bb      	cmp	r3, r7
 80073fe:	460d      	mov	r5, r1
 8007400:	d9f4      	bls.n	80073ec <_printf_i+0x110>
 8007402:	2b08      	cmp	r3, #8
 8007404:	d10b      	bne.n	800741e <_printf_i+0x142>
 8007406:	6823      	ldr	r3, [r4, #0]
 8007408:	07df      	lsls	r7, r3, #31
 800740a:	d508      	bpl.n	800741e <_printf_i+0x142>
 800740c:	6923      	ldr	r3, [r4, #16]
 800740e:	6861      	ldr	r1, [r4, #4]
 8007410:	4299      	cmp	r1, r3
 8007412:	bfde      	ittt	le
 8007414:	2330      	movle	r3, #48	@ 0x30
 8007416:	f806 3c01 	strble.w	r3, [r6, #-1]
 800741a:	f106 36ff 	addle.w	r6, r6, #4294967295
 800741e:	1b92      	subs	r2, r2, r6
 8007420:	6122      	str	r2, [r4, #16]
 8007422:	464b      	mov	r3, r9
 8007424:	4621      	mov	r1, r4
 8007426:	4640      	mov	r0, r8
 8007428:	f8cd a000 	str.w	sl, [sp]
 800742c:	aa03      	add	r2, sp, #12
 800742e:	f7ff fee3 	bl	80071f8 <_printf_common>
 8007432:	3001      	adds	r0, #1
 8007434:	d14a      	bne.n	80074cc <_printf_i+0x1f0>
 8007436:	f04f 30ff 	mov.w	r0, #4294967295
 800743a:	b004      	add	sp, #16
 800743c:	e8bd 87f0 	ldmia.w	sp!, {r4, r5, r6, r7, r8, r9, sl, pc}
 8007440:	6823      	ldr	r3, [r4, #0]
 8007442:	f043 0320 	orr.w	r3, r3, #32
 8007446:	6023      	str	r3, [r4, #0]
 8007448:	2778      	movs	r7, #120	@ 0x78
 800744a:	4832      	ldr	r0, [pc, #200]	@ (8007514 <_printf_i+0x238>)
 800744c:	f884 7045 	strb.w	r7, [r4, #69]	@ 0x45
 8007450:	6823      	ldr	r3, [r4, #0]
 8007452:	6831      	ldr	r1, [r6, #0]
 8007454:	061f      	lsls	r7, r3, #24
 8007456:	f851 5b04 	ldr.w	r5, [r1], #4
 800745a:	d402      	bmi.n	8007462 <_printf_i+0x186>
 800745c:	065f      	lsls	r7, r3, #25
 800745e:	bf48      	it	mi
 8007460:	b2ad      	uxthmi	r5, r5
 8007462:	6031      	str	r1, [r6, #0]
 8007464:	07d9      	lsls	r1, r3, #31
 8007466:	bf44      	itt	mi
 8007468:	f043 0320 	orrmi.w	r3, r3, #32
 800746c:	6023      	strmi	r3, [r4, #0]
 800746e:	b11d      	cbz	r5, 8007478 <_printf_i+0x19c>
 8007470:	2310      	movs	r3, #16
 8007472:	e7ad      	b.n	80073d0 <_printf_i+0xf4>
 8007474:	4826      	ldr	r0, [pc, #152]	@ (8007510 <_printf_i+0x234>)
 8007476:	e7e9      	b.n	800744c <_printf_i+0x170>
 8007478:	6823      	ldr	r3, [r4, #0]
 800747a:	f023 0320 	bic.w	r3, r3, #32
 800747e:	6023      	str	r3, [r4, #0]
 8007480:	e7f6      	b.n	8007470 <_printf_i+0x194>
 8007482:	4616      	mov	r6, r2
 8007484:	e7bd      	b.n	8007402 <_printf_i+0x126>
 8007486:	6833      	ldr	r3, [r6, #0]
 8007488:	6825      	ldr	r5, [r4, #0]
 800748a:	1d18      	adds	r0, r3, #4
 800748c:	6961      	ldr	r1, [r4, #20]
 800748e:	6030      	str	r0, [r6, #0]
 8007490:	062e      	lsls	r6, r5, #24
 8007492:	681b      	ldr	r3, [r3, #0]
 8007494:	d501      	bpl.n	800749a <_printf_i+0x1be>
 8007496:	6019      	str	r1, [r3, #0]
 8007498:	e002      	b.n	80074a0 <_printf_i+0x1c4>
 800749a:	0668      	lsls	r0, r5, #25
 800749c:	d5fb      	bpl.n	8007496 <_printf_i+0x1ba>
 800749e:	8019      	strh	r1, [r3, #0]
 80074a0:	2300      	movs	r3, #0
 80074a2:	4616      	mov	r6, r2
 80074a4:	6123      	str	r3, [r4, #16]
 80074a6:	e7bc      	b.n	8007422 <_printf_i+0x146>
 80074a8:	6833      	ldr	r3, [r6, #0]
 80074aa:	2100      	movs	r1, #0
 80074ac:	1d1a      	adds	r2, r3, #4
 80074ae:	6032      	str	r2, [r6, #0]
 80074b0:	681e      	ldr	r6, [r3, #0]
 80074b2:	6862      	ldr	r2, [r4, #4]
 80074b4:	4630      	mov	r0, r6
 80074b6:	f000 fad1 	bl	8007a5c <memchr>
 80074ba:	b108      	cbz	r0, 80074c0 <_printf_i+0x1e4>
 80074bc:	1b80      	subs	r0, r0, r6
 80074be:	6060      	str	r0, [r4, #4]
 80074c0:	6863      	ldr	r3, [r4, #4]
 80074c2:	6123      	str	r3, [r4, #16]
 80074c4:	2300      	movs	r3, #0
 80074c6:	f884 3043 	strb.w	r3, [r4, #67]	@ 0x43
 80074ca:	e7aa      	b.n	8007422 <_printf_i+0x146>
 80074cc:	4632      	mov	r2, r6
 80074ce:	4649      	mov	r1, r9
 80074d0:	4640      	mov	r0, r8
 80074d2:	6923      	ldr	r3, [r4, #16]
 80074d4:	47d0      	blx	sl
 80074d6:	3001      	adds	r0, #1
 80074d8:	d0ad      	beq.n	8007436 <_printf_i+0x15a>
 80074da:	6823      	ldr	r3, [r4, #0]
 80074dc:	079b      	lsls	r3, r3, #30
 80074de:	d413      	bmi.n	8007508 <_printf_i+0x22c>
 80074e0:	68e0      	ldr	r0, [r4, #12]
 80074e2:	9b03      	ldr	r3, [sp, #12]
 80074e4:	4298      	cmp	r0, r3
 80074e6:	bfb8      	it	lt
 80074e8:	4618      	movlt	r0, r3
 80074ea:	e7a6      	b.n	800743a <_printf_i+0x15e>
 80074ec:	2301      	movs	r3, #1
 80074ee:	4632      	mov	r2, r6
 80074f0:	4649      	mov	r1, r9
 80074f2:	4640      	mov	r0, r8
 80074f4:	47d0      	blx	sl
 80074f6:	3001      	adds	r0, #1
 80074f8:	d09d      	beq.n	8007436 <_printf_i+0x15a>
 80074fa:	3501      	adds	r5, #1
 80074fc:	68e3      	ldr	r3, [r4, #12]
 80074fe:	9903      	ldr	r1, [sp, #12]
 8007500:	1a5b      	subs	r3, r3, r1
 8007502:	42ab      	cmp	r3, r5
 8007504:	dcf2      	bgt.n	80074ec <_printf_i+0x210>
 8007506:	e7eb      	b.n	80074e0 <_printf_i+0x204>
 8007508:	2500      	movs	r5, #0
 800750a:	f104 0619 	add.w	r6, r4, #25
 800750e:	e7f5      	b.n	80074fc <_printf_i+0x220>
 8007510:	08009c8d 	.word	0x08009c8d
 8007514:	08009c9e 	.word	0x08009c9e

08007518 <_scanf_chars>:
 8007518:	e92d 43f8 	stmdb	sp!, {r3, r4, r5, r6, r7, r8, r9, lr}
 800751c:	4615      	mov	r5, r2
 800751e:	688a      	ldr	r2, [r1, #8]
 8007520:	4680      	mov	r8, r0
 8007522:	460c      	mov	r4, r1
 8007524:	b932      	cbnz	r2, 8007534 <_scanf_chars+0x1c>
 8007526:	698a      	ldr	r2, [r1, #24]
 8007528:	2a00      	cmp	r2, #0
 800752a:	bf14      	ite	ne
 800752c:	f04f 32ff 	movne.w	r2, #4294967295
 8007530:	2201      	moveq	r2, #1
 8007532:	608a      	str	r2, [r1, #8]
 8007534:	2700      	movs	r7, #0
 8007536:	6822      	ldr	r2, [r4, #0]
 8007538:	f8df 908c 	ldr.w	r9, [pc, #140]	@ 80075c8 <_scanf_chars+0xb0>
 800753c:	06d1      	lsls	r1, r2, #27
 800753e:	bf5f      	itttt	pl
 8007540:	681a      	ldrpl	r2, [r3, #0]
 8007542:	1d11      	addpl	r1, r2, #4
 8007544:	6019      	strpl	r1, [r3, #0]
 8007546:	6816      	ldrpl	r6, [r2, #0]
 8007548:	69a0      	ldr	r0, [r4, #24]
 800754a:	b188      	cbz	r0, 8007570 <_scanf_chars+0x58>
 800754c:	2801      	cmp	r0, #1
 800754e:	d107      	bne.n	8007560 <_scanf_chars+0x48>
 8007550:	682b      	ldr	r3, [r5, #0]
 8007552:	781a      	ldrb	r2, [r3, #0]
 8007554:	6963      	ldr	r3, [r4, #20]
 8007556:	5c9b      	ldrb	r3, [r3, r2]
 8007558:	b953      	cbnz	r3, 8007570 <_scanf_chars+0x58>
 800755a:	2f00      	cmp	r7, #0
 800755c:	d031      	beq.n	80075c2 <_scanf_chars+0xaa>
 800755e:	e022      	b.n	80075a6 <_scanf_chars+0x8e>
 8007560:	2802      	cmp	r0, #2
 8007562:	d120      	bne.n	80075a6 <_scanf_chars+0x8e>
 8007564:	682b      	ldr	r3, [r5, #0]
 8007566:	781b      	ldrb	r3, [r3, #0]
 8007568:	f819 3003 	ldrb.w	r3, [r9, r3]
 800756c:	071b      	lsls	r3, r3, #28
 800756e:	d41a      	bmi.n	80075a6 <_scanf_chars+0x8e>
 8007570:	6823      	ldr	r3, [r4, #0]
 8007572:	3701      	adds	r7, #1
 8007574:	06da      	lsls	r2, r3, #27
 8007576:	bf5e      	ittt	pl
 8007578:	682b      	ldrpl	r3, [r5, #0]
 800757a:	781b      	ldrbpl	r3, [r3, #0]
 800757c:	f806 3b01 	strbpl.w	r3, [r6], #1
 8007580:	682a      	ldr	r2, [r5, #0]
 8007582:	686b      	ldr	r3, [r5, #4]
 8007584:	3201      	adds	r2, #1
 8007586:	602a      	str	r2, [r5, #0]
 8007588:	68a2      	ldr	r2, [r4, #8]
 800758a:	3b01      	subs	r3, #1
 800758c:	3a01      	subs	r2, #1
 800758e:	606b      	str	r3, [r5, #4]
 8007590:	60a2      	str	r2, [r4, #8]
 8007592:	b142      	cbz	r2, 80075a6 <_scanf_chars+0x8e>
 8007594:	2b00      	cmp	r3, #0
 8007596:	dcd7      	bgt.n	8007548 <_scanf_chars+0x30>
 8007598:	4629      	mov	r1, r5
 800759a:	4640      	mov	r0, r8
 800759c:	f8d4 3180 	ldr.w	r3, [r4, #384]	@ 0x180
 80075a0:	4798      	blx	r3
 80075a2:	2800      	cmp	r0, #0
 80075a4:	d0d0      	beq.n	8007548 <_scanf_chars+0x30>
 80075a6:	6823      	ldr	r3, [r4, #0]
 80075a8:	f013 0310 	ands.w	r3, r3, #16
 80075ac:	d105      	bne.n	80075ba <_scanf_chars+0xa2>
 80075ae:	68e2      	ldr	r2, [r4, #12]
 80075b0:	3201      	adds	r2, #1
 80075b2:	60e2      	str	r2, [r4, #12]
 80075b4:	69a2      	ldr	r2, [r4, #24]
 80075b6:	b102      	cbz	r2, 80075ba <_scanf_chars+0xa2>
 80075b8:	7033      	strb	r3, [r6, #0]
 80075ba:	2000      	movs	r0, #0
 80075bc:	6923      	ldr	r3, [r4, #16]
 80075be:	443b      	add	r3, r7
 80075c0:	6123      	str	r3, [r4, #16]
 80075c2:	e8bd 83f8 	ldmia.w	sp!, {r3, r4, r5, r6, r7, r8, r9, pc}
 80075c6:	bf00      	nop
 80075c8:	08009e61 	.word	0x08009e61

080075cc <_scanf_i>:
 80075cc:	e92d 4ff0 	stmdb	sp!, {r4, r5, r6, r7, r8, r9, sl, fp, lr}
 80075d0:	460c      	mov	r4, r1
 80075d2:	4698      	mov	r8, r3
 80075d4:	4b72      	ldr	r3, [pc, #456]	@ (80077a0 <_scanf_i+0x1d4>)
 80075d6:	b087      	sub	sp, #28
 80075d8:	4682      	mov	sl, r0
 80075da:	4616      	mov	r6, r2
 80075dc:	e893 0007 	ldmia.w	r3, {r0, r1, r2}
 80075e0:	ab03      	add	r3, sp, #12
 80075e2:	e883 0007 	stmia.w	r3, {r0, r1, r2}
 80075e6:	4b6f      	ldr	r3, [pc, #444]	@ (80077a4 <_scanf_i+0x1d8>)
 80075e8:	69a1      	ldr	r1, [r4, #24]
 80075ea:	4a6f      	ldr	r2, [pc, #444]	@ (80077a8 <_scanf_i+0x1dc>)
 80075ec:	4627      	mov	r7, r4
 80075ee:	2903      	cmp	r1, #3
 80075f0:	bf08      	it	eq
 80075f2:	461a      	moveq	r2, r3
 80075f4:	68a3      	ldr	r3, [r4, #8]
 80075f6:	9201      	str	r2, [sp, #4]
 80075f8:	1e5a      	subs	r2, r3, #1
 80075fa:	f5b2 7fae 	cmp.w	r2, #348	@ 0x15c
 80075fe:	bf81      	itttt	hi
 8007600:	f46f 75ae 	mvnhi.w	r5, #348	@ 0x15c
 8007604:	eb03 0905 	addhi.w	r9, r3, r5
 8007608:	f240 135d 	movwhi	r3, #349	@ 0x15d
 800760c:	60a3      	strhi	r3, [r4, #8]
 800760e:	f857 3b1c 	ldr.w	r3, [r7], #28
 8007612:	bf98      	it	ls
 8007614:	f04f 0900 	movls.w	r9, #0
 8007618:	463d      	mov	r5, r7
 800761a:	f04f 0b00 	mov.w	fp, #0
 800761e:	f443 6350 	orr.w	r3, r3, #3328	@ 0xd00
 8007622:	6023      	str	r3, [r4, #0]
 8007624:	6831      	ldr	r1, [r6, #0]
 8007626:	ab03      	add	r3, sp, #12
 8007628:	2202      	movs	r2, #2
 800762a:	7809      	ldrb	r1, [r1, #0]
 800762c:	f853 002b 	ldr.w	r0, [r3, fp, lsl #2]
 8007630:	f000 fa14 	bl	8007a5c <memchr>
 8007634:	b328      	cbz	r0, 8007682 <_scanf_i+0xb6>
 8007636:	f1bb 0f01 	cmp.w	fp, #1
 800763a:	d159      	bne.n	80076f0 <_scanf_i+0x124>
 800763c:	6862      	ldr	r2, [r4, #4]
 800763e:	b92a      	cbnz	r2, 800764c <_scanf_i+0x80>
 8007640:	2108      	movs	r1, #8
 8007642:	6822      	ldr	r2, [r4, #0]
 8007644:	6061      	str	r1, [r4, #4]
 8007646:	f442 7200 	orr.w	r2, r2, #512	@ 0x200
 800764a:	6022      	str	r2, [r4, #0]
 800764c:	6822      	ldr	r2, [r4, #0]
 800764e:	f422 62a0 	bic.w	r2, r2, #1280	@ 0x500
 8007652:	6022      	str	r2, [r4, #0]
 8007654:	68a2      	ldr	r2, [r4, #8]
 8007656:	1e51      	subs	r1, r2, #1
 8007658:	60a1      	str	r1, [r4, #8]
 800765a:	b192      	cbz	r2, 8007682 <_scanf_i+0xb6>
 800765c:	6832      	ldr	r2, [r6, #0]
 800765e:	1c51      	adds	r1, r2, #1
 8007660:	6031      	str	r1, [r6, #0]
 8007662:	7812      	ldrb	r2, [r2, #0]
 8007664:	f805 2b01 	strb.w	r2, [r5], #1
 8007668:	6872      	ldr	r2, [r6, #4]
 800766a:	3a01      	subs	r2, #1
 800766c:	2a00      	cmp	r2, #0
 800766e:	6072      	str	r2, [r6, #4]
 8007670:	dc07      	bgt.n	8007682 <_scanf_i+0xb6>
 8007672:	4631      	mov	r1, r6
 8007674:	4650      	mov	r0, sl
 8007676:	f8d4 2180 	ldr.w	r2, [r4, #384]	@ 0x180
 800767a:	4790      	blx	r2
 800767c:	2800      	cmp	r0, #0
 800767e:	f040 8085 	bne.w	800778c <_scanf_i+0x1c0>
 8007682:	f10b 0b01 	add.w	fp, fp, #1
 8007686:	f1bb 0f03 	cmp.w	fp, #3
 800768a:	d1cb      	bne.n	8007624 <_scanf_i+0x58>
 800768c:	6863      	ldr	r3, [r4, #4]
 800768e:	b90b      	cbnz	r3, 8007694 <_scanf_i+0xc8>
 8007690:	230a      	movs	r3, #10
 8007692:	6063      	str	r3, [r4, #4]
 8007694:	6863      	ldr	r3, [r4, #4]
 8007696:	4945      	ldr	r1, [pc, #276]	@ (80077ac <_scanf_i+0x1e0>)
 8007698:	6960      	ldr	r0, [r4, #20]
 800769a:	1ac9      	subs	r1, r1, r3
 800769c:	f000 f942 	bl	8007924 <__sccl>
 80076a0:	f04f 0b00 	mov.w	fp, #0
 80076a4:	68a3      	ldr	r3, [r4, #8]
 80076a6:	6822      	ldr	r2, [r4, #0]
 80076a8:	2b00      	cmp	r3, #0
 80076aa:	d03d      	beq.n	8007728 <_scanf_i+0x15c>
 80076ac:	6831      	ldr	r1, [r6, #0]
 80076ae:	6960      	ldr	r0, [r4, #20]
 80076b0:	f891 c000 	ldrb.w	ip, [r1]
 80076b4:	f810 000c 	ldrb.w	r0, [r0, ip]
 80076b8:	2800      	cmp	r0, #0
 80076ba:	d035      	beq.n	8007728 <_scanf_i+0x15c>
 80076bc:	f1bc 0f30 	cmp.w	ip, #48	@ 0x30
 80076c0:	d124      	bne.n	800770c <_scanf_i+0x140>
 80076c2:	0510      	lsls	r0, r2, #20
 80076c4:	d522      	bpl.n	800770c <_scanf_i+0x140>
 80076c6:	f10b 0b01 	add.w	fp, fp, #1
 80076ca:	f1b9 0f00 	cmp.w	r9, #0
 80076ce:	d003      	beq.n	80076d8 <_scanf_i+0x10c>
 80076d0:	3301      	adds	r3, #1
 80076d2:	f109 39ff 	add.w	r9, r9, #4294967295
 80076d6:	60a3      	str	r3, [r4, #8]
 80076d8:	6873      	ldr	r3, [r6, #4]
 80076da:	3b01      	subs	r3, #1
 80076dc:	2b00      	cmp	r3, #0
 80076de:	6073      	str	r3, [r6, #4]
 80076e0:	dd1b      	ble.n	800771a <_scanf_i+0x14e>
 80076e2:	6833      	ldr	r3, [r6, #0]
 80076e4:	3301      	adds	r3, #1
 80076e6:	6033      	str	r3, [r6, #0]
 80076e8:	68a3      	ldr	r3, [r4, #8]
 80076ea:	3b01      	subs	r3, #1
 80076ec:	60a3      	str	r3, [r4, #8]
 80076ee:	e7d9      	b.n	80076a4 <_scanf_i+0xd8>
 80076f0:	f1bb 0f02 	cmp.w	fp, #2
 80076f4:	d1ae      	bne.n	8007654 <_scanf_i+0x88>
 80076f6:	6822      	ldr	r2, [r4, #0]
 80076f8:	f402 61c0 	and.w	r1, r2, #1536	@ 0x600
 80076fc:	f5b1 7f00 	cmp.w	r1, #512	@ 0x200
 8007700:	d1c4      	bne.n	800768c <_scanf_i+0xc0>
 8007702:	2110      	movs	r1, #16
 8007704:	f442 7280 	orr.w	r2, r2, #256	@ 0x100
 8007708:	6061      	str	r1, [r4, #4]
 800770a:	e7a2      	b.n	8007652 <_scanf_i+0x86>
 800770c:	f422 6210 	bic.w	r2, r2, #2304	@ 0x900
 8007710:	6022      	str	r2, [r4, #0]
 8007712:	780b      	ldrb	r3, [r1, #0]
 8007714:	f805 3b01 	strb.w	r3, [r5], #1
 8007718:	e7de      	b.n	80076d8 <_scanf_i+0x10c>
 800771a:	4631      	mov	r1, r6
 800771c:	4650      	mov	r0, sl
 800771e:	f8d4 3180 	ldr.w	r3, [r4, #384]	@ 0x180
 8007722:	4798      	blx	r3
 8007724:	2800      	cmp	r0, #0
 8007726:	d0df      	beq.n	80076e8 <_scanf_i+0x11c>
 8007728:	6823      	ldr	r3, [r4, #0]
 800772a:	05d9      	lsls	r1, r3, #23
 800772c:	d50d      	bpl.n	800774a <_scanf_i+0x17e>
 800772e:	42bd      	cmp	r5, r7
 8007730:	d909      	bls.n	8007746 <_scanf_i+0x17a>
 8007732:	f815 1c01 	ldrb.w	r1, [r5, #-1]
 8007736:	4632      	mov	r2, r6
 8007738:	4650      	mov	r0, sl
 800773a:	f8d4 317c 	ldr.w	r3, [r4, #380]	@ 0x17c
 800773e:	f105 39ff 	add.w	r9, r5, #4294967295
 8007742:	4798      	blx	r3
 8007744:	464d      	mov	r5, r9
 8007746:	42bd      	cmp	r5, r7
 8007748:	d028      	beq.n	800779c <_scanf_i+0x1d0>
 800774a:	6822      	ldr	r2, [r4, #0]
 800774c:	f012 0210 	ands.w	r2, r2, #16
 8007750:	d113      	bne.n	800777a <_scanf_i+0x1ae>
 8007752:	702a      	strb	r2, [r5, #0]
 8007754:	4639      	mov	r1, r7
 8007756:	6863      	ldr	r3, [r4, #4]
 8007758:	4650      	mov	r0, sl
 800775a:	9e01      	ldr	r6, [sp, #4]
 800775c:	47b0      	blx	r6
 800775e:	f8d8 3000 	ldr.w	r3, [r8]
 8007762:	6821      	ldr	r1, [r4, #0]
 8007764:	1d1a      	adds	r2, r3, #4
 8007766:	f8c8 2000 	str.w	r2, [r8]
 800776a:	f011 0f20 	tst.w	r1, #32
 800776e:	681b      	ldr	r3, [r3, #0]
 8007770:	d00f      	beq.n	8007792 <_scanf_i+0x1c6>
 8007772:	6018      	str	r0, [r3, #0]
 8007774:	68e3      	ldr	r3, [r4, #12]
 8007776:	3301      	adds	r3, #1
 8007778:	60e3      	str	r3, [r4, #12]
 800777a:	2000      	movs	r0, #0
 800777c:	6923      	ldr	r3, [r4, #16]
 800777e:	1bed      	subs	r5, r5, r7
 8007780:	445d      	add	r5, fp
 8007782:	442b      	add	r3, r5
 8007784:	6123      	str	r3, [r4, #16]
 8007786:	b007      	add	sp, #28
 8007788:	e8bd 8ff0 	ldmia.w	sp!, {r4, r5, r6, r7, r8, r9, sl, fp, pc}
 800778c:	f04f 0b00 	mov.w	fp, #0
 8007790:	e7ca      	b.n	8007728 <_scanf_i+0x15c>
 8007792:	07ca      	lsls	r2, r1, #31
 8007794:	bf4c      	ite	mi
 8007796:	8018      	strhmi	r0, [r3, #0]
 8007798:	6018      	strpl	r0, [r3, #0]
 800779a:	e7eb      	b.n	8007774 <_scanf_i+0x1a8>
 800779c:	2001      	movs	r0, #1
 800779e:	e7f2      	b.n	8007786 <_scanf_i+0x1ba>
 80077a0:	08009148 	.word	0x08009148
 80077a4:	08006ba9 	.word	0x08006ba9
 80077a8:	08008ba5 	.word	0x08008ba5
 80077ac:	08009cbf 	.word	0x08009cbf

080077b0 <__sflush_r>:
 80077b0:	f9b1 200c 	ldrsh.w	r2, [r1, #12]
 80077b4:	b5f8      	push	{r3, r4, r5, r6, r7, lr}
 80077b6:	0716      	lsls	r6, r2, #28
 80077b8:	4605      	mov	r5, r0
 80077ba:	460c      	mov	r4, r1
 80077bc:	d454      	bmi.n	8007868 <__sflush_r+0xb8>
 80077be:	684b      	ldr	r3, [r1, #4]
 80077c0:	2b00      	cmp	r3, #0
 80077c2:	dc02      	bgt.n	80077ca <__sflush_r+0x1a>
 80077c4:	6c0b      	ldr	r3, [r1, #64]	@ 0x40
 80077c6:	2b00      	cmp	r3, #0
 80077c8:	dd48      	ble.n	800785c <__sflush_r+0xac>
 80077ca:	6ae6      	ldr	r6, [r4, #44]	@ 0x2c
 80077cc:	2e00      	cmp	r6, #0
 80077ce:	d045      	beq.n	800785c <__sflush_r+0xac>
 80077d0:	2300      	movs	r3, #0
 80077d2:	f412 5280 	ands.w	r2, r2, #4096	@ 0x1000
 80077d6:	682f      	ldr	r7, [r5, #0]
 80077d8:	6a21      	ldr	r1, [r4, #32]
 80077da:	602b      	str	r3, [r5, #0]
 80077dc:	d030      	beq.n	8007840 <__sflush_r+0x90>
 80077de:	6d62      	ldr	r2, [r4, #84]	@ 0x54
 80077e0:	89a3      	ldrh	r3, [r4, #12]
 80077e2:	0759      	lsls	r1, r3, #29
 80077e4:	d505      	bpl.n	80077f2 <__sflush_r+0x42>
 80077e6:	6863      	ldr	r3, [r4, #4]
 80077e8:	1ad2      	subs	r2, r2, r3
 80077ea:	6b63      	ldr	r3, [r4, #52]	@ 0x34
 80077ec:	b10b      	cbz	r3, 80077f2 <__sflush_r+0x42>
 80077ee:	6c23      	ldr	r3, [r4, #64]	@ 0x40
 80077f0:	1ad2      	subs	r2, r2, r3
 80077f2:	2300      	movs	r3, #0
 80077f4:	4628      	mov	r0, r5
 80077f6:	6ae6      	ldr	r6, [r4, #44]	@ 0x2c
 80077f8:	6a21      	ldr	r1, [r4, #32]
 80077fa:	47b0      	blx	r6
 80077fc:	1c43      	adds	r3, r0, #1
 80077fe:	89a3      	ldrh	r3, [r4, #12]
 8007800:	d106      	bne.n	8007810 <__sflush_r+0x60>
 8007802:	6829      	ldr	r1, [r5, #0]
 8007804:	291d      	cmp	r1, #29
 8007806:	d82b      	bhi.n	8007860 <__sflush_r+0xb0>
 8007808:	4a28      	ldr	r2, [pc, #160]	@ (80078ac <__sflush_r+0xfc>)
 800780a:	40ca      	lsrs	r2, r1
 800780c:	07d6      	lsls	r6, r2, #31
 800780e:	d527      	bpl.n	8007860 <__sflush_r+0xb0>
 8007810:	2200      	movs	r2, #0
 8007812:	6062      	str	r2, [r4, #4]
 8007814:	6922      	ldr	r2, [r4, #16]
 8007816:	04d9      	lsls	r1, r3, #19
 8007818:	6022      	str	r2, [r4, #0]
 800781a:	d504      	bpl.n	8007826 <__sflush_r+0x76>
 800781c:	1c42      	adds	r2, r0, #1
 800781e:	d101      	bne.n	8007824 <__sflush_r+0x74>
 8007820:	682b      	ldr	r3, [r5, #0]
 8007822:	b903      	cbnz	r3, 8007826 <__sflush_r+0x76>
 8007824:	6560      	str	r0, [r4, #84]	@ 0x54
 8007826:	6b61      	ldr	r1, [r4, #52]	@ 0x34
 8007828:	602f      	str	r7, [r5, #0]
 800782a:	b1b9      	cbz	r1, 800785c <__sflush_r+0xac>
 800782c:	f104 0344 	add.w	r3, r4, #68	@ 0x44
 8007830:	4299      	cmp	r1, r3
 8007832:	d002      	beq.n	800783a <__sflush_r+0x8a>
 8007834:	4628      	mov	r0, r5
 8007836:	f7fe fa3d 	bl	8005cb4 <_free_r>
 800783a:	2300      	movs	r3, #0
 800783c:	6363      	str	r3, [r4, #52]	@ 0x34
 800783e:	e00d      	b.n	800785c <__sflush_r+0xac>
 8007840:	2301      	movs	r3, #1
 8007842:	4628      	mov	r0, r5
 8007844:	47b0      	blx	r6
 8007846:	4602      	mov	r2, r0
 8007848:	1c50      	adds	r0, r2, #1
 800784a:	d1c9      	bne.n	80077e0 <__sflush_r+0x30>
 800784c:	682b      	ldr	r3, [r5, #0]
 800784e:	2b00      	cmp	r3, #0
 8007850:	d0c6      	beq.n	80077e0 <__sflush_r+0x30>
 8007852:	2b1d      	cmp	r3, #29
 8007854:	d001      	beq.n	800785a <__sflush_r+0xaa>
 8007856:	2b16      	cmp	r3, #22
 8007858:	d11d      	bne.n	8007896 <__sflush_r+0xe6>
 800785a:	602f      	str	r7, [r5, #0]
 800785c:	2000      	movs	r0, #0
 800785e:	e021      	b.n	80078a4 <__sflush_r+0xf4>
 8007860:	f043 0340 	orr.w	r3, r3, #64	@ 0x40
 8007864:	b21b      	sxth	r3, r3
 8007866:	e01a      	b.n	800789e <__sflush_r+0xee>
 8007868:	690f      	ldr	r7, [r1, #16]
 800786a:	2f00      	cmp	r7, #0
 800786c:	d0f6      	beq.n	800785c <__sflush_r+0xac>
 800786e:	0793      	lsls	r3, r2, #30
 8007870:	bf18      	it	ne
 8007872:	2300      	movne	r3, #0
 8007874:	680e      	ldr	r6, [r1, #0]
 8007876:	bf08      	it	eq
 8007878:	694b      	ldreq	r3, [r1, #20]
 800787a:	1bf6      	subs	r6, r6, r7
 800787c:	600f      	str	r7, [r1, #0]
 800787e:	608b      	str	r3, [r1, #8]
 8007880:	2e00      	cmp	r6, #0
 8007882:	ddeb      	ble.n	800785c <__sflush_r+0xac>
 8007884:	4633      	mov	r3, r6
 8007886:	463a      	mov	r2, r7
 8007888:	4628      	mov	r0, r5
 800788a:	6a21      	ldr	r1, [r4, #32]
 800788c:	f8d4 c028 	ldr.w	ip, [r4, #40]	@ 0x28
 8007890:	47e0      	blx	ip
 8007892:	2800      	cmp	r0, #0
 8007894:	dc07      	bgt.n	80078a6 <__sflush_r+0xf6>
 8007896:	f9b4 300c 	ldrsh.w	r3, [r4, #12]
 800789a:	f043 0340 	orr.w	r3, r3, #64	@ 0x40
 800789e:	f04f 30ff 	mov.w	r0, #4294967295
 80078a2:	81a3      	strh	r3, [r4, #12]
 80078a4:	bdf8      	pop	{r3, r4, r5, r6, r7, pc}
 80078a6:	4407      	add	r7, r0
 80078a8:	1a36      	subs	r6, r6, r0
 80078aa:	e7e9      	b.n	8007880 <__sflush_r+0xd0>
 80078ac:	20400001 	.word	0x20400001

080078b0 <_fflush_r>:
 80078b0:	b538      	push	{r3, r4, r5, lr}
 80078b2:	690b      	ldr	r3, [r1, #16]
 80078b4:	4605      	mov	r5, r0
 80078b6:	460c      	mov	r4, r1
 80078b8:	b913      	cbnz	r3, 80078c0 <_fflush_r+0x10>
 80078ba:	2500      	movs	r5, #0
 80078bc:	4628      	mov	r0, r5
 80078be:	bd38      	pop	{r3, r4, r5, pc}
 80078c0:	b118      	cbz	r0, 80078ca <_fflush_r+0x1a>
 80078c2:	6a03      	ldr	r3, [r0, #32]
 80078c4:	b90b      	cbnz	r3, 80078ca <_fflush_r+0x1a>
 80078c6:	f7fd ff7d 	bl	80057c4 <__sinit>
 80078ca:	f9b4 300c 	ldrsh.w	r3, [r4, #12]
 80078ce:	2b00      	cmp	r3, #0
 80078d0:	d0f3      	beq.n	80078ba <_fflush_r+0xa>
 80078d2:	6e62      	ldr	r2, [r4, #100]	@ 0x64
 80078d4:	07d0      	lsls	r0, r2, #31
 80078d6:	d404      	bmi.n	80078e2 <_fflush_r+0x32>
 80078d8:	0599      	lsls	r1, r3, #22
 80078da:	d402      	bmi.n	80078e2 <_fflush_r+0x32>
 80078dc:	6da0      	ldr	r0, [r4, #88]	@ 0x58
 80078de:	f7fe f9b6 	bl	8005c4e <__retarget_lock_acquire_recursive>
 80078e2:	4628      	mov	r0, r5
 80078e4:	4621      	mov	r1, r4
 80078e6:	f7ff ff63 	bl	80077b0 <__sflush_r>
 80078ea:	6e63      	ldr	r3, [r4, #100]	@ 0x64
 80078ec:	4605      	mov	r5, r0
 80078ee:	07da      	lsls	r2, r3, #31
 80078f0:	d4e4      	bmi.n	80078bc <_fflush_r+0xc>
 80078f2:	89a3      	ldrh	r3, [r4, #12]
 80078f4:	059b      	lsls	r3, r3, #22
 80078f6:	d4e1      	bmi.n	80078bc <_fflush_r+0xc>
 80078f8:	6da0      	ldr	r0, [r4, #88]	@ 0x58
 80078fa:	f7fe f9a9 	bl	8005c50 <__retarget_lock_release_recursive>
 80078fe:	e7dd      	b.n	80078bc <_fflush_r+0xc>

08007900 <fiprintf>:
 8007900:	b40e      	push	{r1, r2, r3}
 8007902:	b503      	push	{r0, r1, lr}
 8007904:	4601      	mov	r1, r0
 8007906:	ab03      	add	r3, sp, #12
 8007908:	4805      	ldr	r0, [pc, #20]	@ (8007920 <fiprintf+0x20>)
 800790a:	f853 2b04 	ldr.w	r2, [r3], #4
 800790e:	6800      	ldr	r0, [r0, #0]
 8007910:	9301      	str	r3, [sp, #4]
 8007912:	f001 f97d 	bl	8008c10 <_vfiprintf_r>
 8007916:	b002      	add	sp, #8
 8007918:	f85d eb04 	ldr.w	lr, [sp], #4
 800791c:	b003      	add	sp, #12
 800791e:	4770      	bx	lr
 8007920:	2000001c 	.word	0x2000001c

08007924 <__sccl>:
 8007924:	b570      	push	{r4, r5, r6, lr}
 8007926:	780b      	ldrb	r3, [r1, #0]
 8007928:	4604      	mov	r4, r0
 800792a:	2b5e      	cmp	r3, #94	@ 0x5e
 800792c:	bf0b      	itete	eq
 800792e:	784b      	ldrbeq	r3, [r1, #1]
 8007930:	1c4a      	addne	r2, r1, #1
 8007932:	1c8a      	addeq	r2, r1, #2
 8007934:	2100      	movne	r1, #0
 8007936:	bf08      	it	eq
 8007938:	2101      	moveq	r1, #1
 800793a:	3801      	subs	r0, #1
 800793c:	f104 05ff 	add.w	r5, r4, #255	@ 0xff
 8007940:	f800 1f01 	strb.w	r1, [r0, #1]!
 8007944:	42a8      	cmp	r0, r5
 8007946:	d1fb      	bne.n	8007940 <__sccl+0x1c>
 8007948:	b90b      	cbnz	r3, 800794e <__sccl+0x2a>
 800794a:	1e50      	subs	r0, r2, #1
 800794c:	bd70      	pop	{r4, r5, r6, pc}
 800794e:	f081 0101 	eor.w	r1, r1, #1
 8007952:	4610      	mov	r0, r2
 8007954:	54e1      	strb	r1, [r4, r3]
 8007956:	4602      	mov	r2, r0
 8007958:	f812 5b01 	ldrb.w	r5, [r2], #1
 800795c:	2d2d      	cmp	r5, #45	@ 0x2d
 800795e:	d005      	beq.n	800796c <__sccl+0x48>
 8007960:	2d5d      	cmp	r5, #93	@ 0x5d
 8007962:	d016      	beq.n	8007992 <__sccl+0x6e>
 8007964:	2d00      	cmp	r5, #0
 8007966:	d0f1      	beq.n	800794c <__sccl+0x28>
 8007968:	462b      	mov	r3, r5
 800796a:	e7f2      	b.n	8007952 <__sccl+0x2e>
 800796c:	7846      	ldrb	r6, [r0, #1]
 800796e:	2e5d      	cmp	r6, #93	@ 0x5d
 8007970:	d0fa      	beq.n	8007968 <__sccl+0x44>
 8007972:	42b3      	cmp	r3, r6
 8007974:	dcf8      	bgt.n	8007968 <__sccl+0x44>
 8007976:	461a      	mov	r2, r3
 8007978:	3002      	adds	r0, #2
 800797a:	3201      	adds	r2, #1
 800797c:	4296      	cmp	r6, r2
 800797e:	54a1      	strb	r1, [r4, r2]
 8007980:	dcfb      	bgt.n	800797a <__sccl+0x56>
 8007982:	1af2      	subs	r2, r6, r3
 8007984:	3a01      	subs	r2, #1
 8007986:	42b3      	cmp	r3, r6
 8007988:	bfa8      	it	ge
 800798a:	2200      	movge	r2, #0
 800798c:	1c5d      	adds	r5, r3, #1
 800798e:	18ab      	adds	r3, r5, r2
 8007990:	e7e1      	b.n	8007956 <__sccl+0x32>
 8007992:	4610      	mov	r0, r2
 8007994:	e7da      	b.n	800794c <__sccl+0x28>

08007996 <__submore>:
 8007996:	e92d 41f0 	stmdb	sp!, {r4, r5, r6, r7, r8, lr}
 800799a:	460c      	mov	r4, r1
 800799c:	6b49      	ldr	r1, [r1, #52]	@ 0x34
 800799e:	f104 0344 	add.w	r3, r4, #68	@ 0x44
 80079a2:	4299      	cmp	r1, r3
 80079a4:	d11b      	bne.n	80079de <__submore+0x48>
 80079a6:	f44f 6180 	mov.w	r1, #1024	@ 0x400
 80079aa:	f7fe f9f5 	bl	8005d98 <_malloc_r>
 80079ae:	b918      	cbnz	r0, 80079b8 <__submore+0x22>
 80079b0:	f04f 30ff 	mov.w	r0, #4294967295
 80079b4:	e8bd 81f0 	ldmia.w	sp!, {r4, r5, r6, r7, r8, pc}
 80079b8:	f44f 6380 	mov.w	r3, #1024	@ 0x400
 80079bc:	63a3      	str	r3, [r4, #56]	@ 0x38
 80079be:	f894 3046 	ldrb.w	r3, [r4, #70]	@ 0x46
 80079c2:	6360      	str	r0, [r4, #52]	@ 0x34
 80079c4:	f880 33ff 	strb.w	r3, [r0, #1023]	@ 0x3ff
 80079c8:	f894 3045 	ldrb.w	r3, [r4, #69]	@ 0x45
 80079cc:	f200 30fd 	addw	r0, r0, #1021	@ 0x3fd
 80079d0:	7043      	strb	r3, [r0, #1]
 80079d2:	f894 3044 	ldrb.w	r3, [r4, #68]	@ 0x44
 80079d6:	7003      	strb	r3, [r0, #0]
 80079d8:	6020      	str	r0, [r4, #0]
 80079da:	2000      	movs	r0, #0
 80079dc:	e7ea      	b.n	80079b4 <__submore+0x1e>
 80079de:	6ba6      	ldr	r6, [r4, #56]	@ 0x38
 80079e0:	0077      	lsls	r7, r6, #1
 80079e2:	463a      	mov	r2, r7
 80079e4:	f001 f842 	bl	8008a6c <_realloc_r>
 80079e8:	4605      	mov	r5, r0
 80079ea:	2800      	cmp	r0, #0
 80079ec:	d0e0      	beq.n	80079b0 <__submore+0x1a>
 80079ee:	eb00 0806 	add.w	r8, r0, r6
 80079f2:	4601      	mov	r1, r0
 80079f4:	4632      	mov	r2, r6
 80079f6:	4640      	mov	r0, r8
 80079f8:	f7fe f92b 	bl	8005c52 <memcpy>
 80079fc:	e9c4 570d 	strd	r5, r7, [r4, #52]	@ 0x34
 8007a00:	f8c4 8000 	str.w	r8, [r4]
 8007a04:	e7e9      	b.n	80079da <__submore+0x44>

08007a06 <memmove>:
 8007a06:	4288      	cmp	r0, r1
 8007a08:	b510      	push	{r4, lr}
 8007a0a:	eb01 0402 	add.w	r4, r1, r2
 8007a0e:	d902      	bls.n	8007a16 <memmove+0x10>
 8007a10:	4284      	cmp	r4, r0
 8007a12:	4623      	mov	r3, r4
 8007a14:	d807      	bhi.n	8007a26 <memmove+0x20>
 8007a16:	1e43      	subs	r3, r0, #1
 8007a18:	42a1      	cmp	r1, r4
 8007a1a:	d008      	beq.n	8007a2e <memmove+0x28>
 8007a1c:	f811 2b01 	ldrb.w	r2, [r1], #1
 8007a20:	f803 2f01 	strb.w	r2, [r3, #1]!
 8007a24:	e7f8      	b.n	8007a18 <memmove+0x12>
 8007a26:	4601      	mov	r1, r0
 8007a28:	4402      	add	r2, r0
 8007a2a:	428a      	cmp	r2, r1
 8007a2c:	d100      	bne.n	8007a30 <memmove+0x2a>
 8007a2e:	bd10      	pop	{r4, pc}
 8007a30:	f813 4d01 	ldrb.w	r4, [r3, #-1]!
 8007a34:	f802 4d01 	strb.w	r4, [r2, #-1]!
 8007a38:	e7f7      	b.n	8007a2a <memmove+0x24>
	...

08007a3c <_sbrk_r>:
 8007a3c:	b538      	push	{r3, r4, r5, lr}
 8007a3e:	2300      	movs	r3, #0
 8007a40:	4d05      	ldr	r5, [pc, #20]	@ (8007a58 <_sbrk_r+0x1c>)
 8007a42:	4604      	mov	r4, r0
 8007a44:	4608      	mov	r0, r1
 8007a46:	602b      	str	r3, [r5, #0]
 8007a48:	f7fa fa44 	bl	8001ed4 <_sbrk>
 8007a4c:	1c43      	adds	r3, r0, #1
 8007a4e:	d102      	bne.n	8007a56 <_sbrk_r+0x1a>
 8007a50:	682b      	ldr	r3, [r5, #0]
 8007a52:	b103      	cbz	r3, 8007a56 <_sbrk_r+0x1a>
 8007a54:	6023      	str	r3, [r4, #0]
 8007a56:	bd38      	pop	{r3, r4, r5, pc}
 8007a58:	200020f4 	.word	0x200020f4

08007a5c <memchr>:
 8007a5c:	4603      	mov	r3, r0
 8007a5e:	b510      	push	{r4, lr}
 8007a60:	b2c9      	uxtb	r1, r1
 8007a62:	4402      	add	r2, r0
 8007a64:	4293      	cmp	r3, r2
 8007a66:	4618      	mov	r0, r3
 8007a68:	d101      	bne.n	8007a6e <memchr+0x12>
 8007a6a:	2000      	movs	r0, #0
 8007a6c:	e003      	b.n	8007a76 <memchr+0x1a>
 8007a6e:	7804      	ldrb	r4, [r0, #0]
 8007a70:	3301      	adds	r3, #1
 8007a72:	428c      	cmp	r4, r1
 8007a74:	d1f6      	bne.n	8007a64 <memchr+0x8>
 8007a76:	bd10      	pop	{r4, pc}

08007a78 <nan>:
 8007a78:	2000      	movs	r0, #0
 8007a7a:	4901      	ldr	r1, [pc, #4]	@ (8007a80 <nan+0x8>)
 8007a7c:	4770      	bx	lr
 8007a7e:	bf00      	nop
 8007a80:	7ff80000 	.word	0x7ff80000

08007a84 <abort>:
 8007a84:	2006      	movs	r0, #6
 8007a86:	b508      	push	{r3, lr}
 8007a88:	f001 fa96 	bl	8008fb8 <raise>
 8007a8c:	2001      	movs	r0, #1
 8007a8e:	f7fa f9f3 	bl	8001e78 <_exit>

08007a92 <rshift>:
 8007a92:	6903      	ldr	r3, [r0, #16]
 8007a94:	e92d 43f0 	stmdb	sp!, {r4, r5, r6, r7, r8, r9, lr}
 8007a98:	ebb3 1f61 	cmp.w	r3, r1, asr #5
 8007a9c:	f100 0414 	add.w	r4, r0, #20
 8007aa0:	ea4f 1261 	mov.w	r2, r1, asr #5
 8007aa4:	dd46      	ble.n	8007b34 <rshift+0xa2>
 8007aa6:	f011 011f 	ands.w	r1, r1, #31
 8007aaa:	eb04 0683 	add.w	r6, r4, r3, lsl #2
 8007aae:	eb04 0582 	add.w	r5, r4, r2, lsl #2
 8007ab2:	d10c      	bne.n	8007ace <rshift+0x3c>
 8007ab4:	4629      	mov	r1, r5
 8007ab6:	f100 0710 	add.w	r7, r0, #16
 8007aba:	42b1      	cmp	r1, r6
 8007abc:	d335      	bcc.n	8007b2a <rshift+0x98>
 8007abe:	1a9b      	subs	r3, r3, r2
 8007ac0:	009b      	lsls	r3, r3, #2
 8007ac2:	1eea      	subs	r2, r5, #3
 8007ac4:	4296      	cmp	r6, r2
 8007ac6:	bf38      	it	cc
 8007ac8:	2300      	movcc	r3, #0
 8007aca:	4423      	add	r3, r4
 8007acc:	e015      	b.n	8007afa <rshift+0x68>
 8007ace:	46a1      	mov	r9, r4
 8007ad0:	f854 7022 	ldr.w	r7, [r4, r2, lsl #2]
 8007ad4:	f1c1 0820 	rsb	r8, r1, #32
 8007ad8:	40cf      	lsrs	r7, r1
 8007ada:	f105 0e04 	add.w	lr, r5, #4
 8007ade:	4576      	cmp	r6, lr
 8007ae0:	46f4      	mov	ip, lr
 8007ae2:	d816      	bhi.n	8007b12 <rshift+0x80>
 8007ae4:	1a9a      	subs	r2, r3, r2
 8007ae6:	0092      	lsls	r2, r2, #2
 8007ae8:	3a04      	subs	r2, #4
 8007aea:	3501      	adds	r5, #1
 8007aec:	42ae      	cmp	r6, r5
 8007aee:	bf38      	it	cc
 8007af0:	2200      	movcc	r2, #0
 8007af2:	18a3      	adds	r3, r4, r2
 8007af4:	50a7      	str	r7, [r4, r2]
 8007af6:	b107      	cbz	r7, 8007afa <rshift+0x68>
 8007af8:	3304      	adds	r3, #4
 8007afa:	42a3      	cmp	r3, r4
 8007afc:	eba3 0204 	sub.w	r2, r3, r4
 8007b00:	bf08      	it	eq
 8007b02:	2300      	moveq	r3, #0
 8007b04:	ea4f 02a2 	mov.w	r2, r2, asr #2
 8007b08:	6102      	str	r2, [r0, #16]
 8007b0a:	bf08      	it	eq
 8007b0c:	6143      	streq	r3, [r0, #20]
 8007b0e:	e8bd 83f0 	ldmia.w	sp!, {r4, r5, r6, r7, r8, r9, pc}
 8007b12:	f8dc c000 	ldr.w	ip, [ip]
 8007b16:	fa0c fc08 	lsl.w	ip, ip, r8
 8007b1a:	ea4c 0707 	orr.w	r7, ip, r7
 8007b1e:	f849 7b04 	str.w	r7, [r9], #4
 8007b22:	f85e 7b04 	ldr.w	r7, [lr], #4
 8007b26:	40cf      	lsrs	r7, r1
 8007b28:	e7d9      	b.n	8007ade <rshift+0x4c>
 8007b2a:	f851 cb04 	ldr.w	ip, [r1], #4
 8007b2e:	f847 cf04 	str.w	ip, [r7, #4]!
 8007b32:	e7c2      	b.n	8007aba <rshift+0x28>
 8007b34:	4623      	mov	r3, r4
 8007b36:	e7e0      	b.n	8007afa <rshift+0x68>

08007b38 <__hexdig_fun>:
 8007b38:	f1a0 0330 	sub.w	r3, r0, #48	@ 0x30
 8007b3c:	2b09      	cmp	r3, #9
 8007b3e:	d802      	bhi.n	8007b46 <__hexdig_fun+0xe>
 8007b40:	3820      	subs	r0, #32
 8007b42:	b2c0      	uxtb	r0, r0
 8007b44:	4770      	bx	lr
 8007b46:	f1a0 0361 	sub.w	r3, r0, #97	@ 0x61
 8007b4a:	2b05      	cmp	r3, #5
 8007b4c:	d801      	bhi.n	8007b52 <__hexdig_fun+0x1a>
 8007b4e:	3847      	subs	r0, #71	@ 0x47
 8007b50:	e7f7      	b.n	8007b42 <__hexdig_fun+0xa>
 8007b52:	f1a0 0341 	sub.w	r3, r0, #65	@ 0x41
 8007b56:	2b05      	cmp	r3, #5
 8007b58:	d801      	bhi.n	8007b5e <__hexdig_fun+0x26>
 8007b5a:	3827      	subs	r0, #39	@ 0x27
 8007b5c:	e7f1      	b.n	8007b42 <__hexdig_fun+0xa>
 8007b5e:	2000      	movs	r0, #0
 8007b60:	4770      	bx	lr
	...

08007b64 <__gethex>:
 8007b64:	e92d 4ff0 	stmdb	sp!, {r4, r5, r6, r7, r8, r9, sl, fp, lr}
 8007b68:	468a      	mov	sl, r1
 8007b6a:	4690      	mov	r8, r2
 8007b6c:	b085      	sub	sp, #20
 8007b6e:	9302      	str	r3, [sp, #8]
 8007b70:	680b      	ldr	r3, [r1, #0]
 8007b72:	9001      	str	r0, [sp, #4]
 8007b74:	1c9c      	adds	r4, r3, #2
 8007b76:	46a1      	mov	r9, r4
 8007b78:	f814 0b01 	ldrb.w	r0, [r4], #1
 8007b7c:	2830      	cmp	r0, #48	@ 0x30
 8007b7e:	d0fa      	beq.n	8007b76 <__gethex+0x12>
 8007b80:	eba9 0303 	sub.w	r3, r9, r3
 8007b84:	f1a3 0b02 	sub.w	fp, r3, #2
 8007b88:	f7ff ffd6 	bl	8007b38 <__hexdig_fun>
 8007b8c:	4605      	mov	r5, r0
 8007b8e:	2800      	cmp	r0, #0
 8007b90:	d168      	bne.n	8007c64 <__gethex+0x100>
 8007b92:	2201      	movs	r2, #1
 8007b94:	4648      	mov	r0, r9
 8007b96:	499f      	ldr	r1, [pc, #636]	@ (8007e14 <__gethex+0x2b0>)
 8007b98:	f7fd fef2 	bl	8005980 <strncmp>
 8007b9c:	4607      	mov	r7, r0
 8007b9e:	2800      	cmp	r0, #0
 8007ba0:	d167      	bne.n	8007c72 <__gethex+0x10e>
 8007ba2:	f899 0001 	ldrb.w	r0, [r9, #1]
 8007ba6:	4626      	mov	r6, r4
 8007ba8:	f7ff ffc6 	bl	8007b38 <__hexdig_fun>
 8007bac:	2800      	cmp	r0, #0
 8007bae:	d062      	beq.n	8007c76 <__gethex+0x112>
 8007bb0:	4623      	mov	r3, r4
 8007bb2:	7818      	ldrb	r0, [r3, #0]
 8007bb4:	4699      	mov	r9, r3
 8007bb6:	2830      	cmp	r0, #48	@ 0x30
 8007bb8:	f103 0301 	add.w	r3, r3, #1
 8007bbc:	d0f9      	beq.n	8007bb2 <__gethex+0x4e>
 8007bbe:	f7ff ffbb 	bl	8007b38 <__hexdig_fun>
 8007bc2:	fab0 f580 	clz	r5, r0
 8007bc6:	f04f 0b01 	mov.w	fp, #1
 8007bca:	096d      	lsrs	r5, r5, #5
 8007bcc:	464a      	mov	r2, r9
 8007bce:	4616      	mov	r6, r2
 8007bd0:	7830      	ldrb	r0, [r6, #0]
 8007bd2:	3201      	adds	r2, #1
 8007bd4:	f7ff ffb0 	bl	8007b38 <__hexdig_fun>
 8007bd8:	2800      	cmp	r0, #0
 8007bda:	d1f8      	bne.n	8007bce <__gethex+0x6a>
 8007bdc:	2201      	movs	r2, #1
 8007bde:	4630      	mov	r0, r6
 8007be0:	498c      	ldr	r1, [pc, #560]	@ (8007e14 <__gethex+0x2b0>)
 8007be2:	f7fd fecd 	bl	8005980 <strncmp>
 8007be6:	2800      	cmp	r0, #0
 8007be8:	d13f      	bne.n	8007c6a <__gethex+0x106>
 8007bea:	b944      	cbnz	r4, 8007bfe <__gethex+0x9a>
 8007bec:	1c74      	adds	r4, r6, #1
 8007bee:	4622      	mov	r2, r4
 8007bf0:	4616      	mov	r6, r2
 8007bf2:	7830      	ldrb	r0, [r6, #0]
 8007bf4:	3201      	adds	r2, #1
 8007bf6:	f7ff ff9f 	bl	8007b38 <__hexdig_fun>
 8007bfa:	2800      	cmp	r0, #0
 8007bfc:	d1f8      	bne.n	8007bf0 <__gethex+0x8c>
 8007bfe:	1ba4      	subs	r4, r4, r6
 8007c00:	00a7      	lsls	r7, r4, #2
 8007c02:	7833      	ldrb	r3, [r6, #0]
 8007c04:	f003 03df 	and.w	r3, r3, #223	@ 0xdf
 8007c08:	2b50      	cmp	r3, #80	@ 0x50
 8007c0a:	d13e      	bne.n	8007c8a <__gethex+0x126>
 8007c0c:	7873      	ldrb	r3, [r6, #1]
 8007c0e:	2b2b      	cmp	r3, #43	@ 0x2b
 8007c10:	d033      	beq.n	8007c7a <__gethex+0x116>
 8007c12:	2b2d      	cmp	r3, #45	@ 0x2d
 8007c14:	d034      	beq.n	8007c80 <__gethex+0x11c>
 8007c16:	2400      	movs	r4, #0
 8007c18:	1c71      	adds	r1, r6, #1
 8007c1a:	7808      	ldrb	r0, [r1, #0]
 8007c1c:	f7ff ff8c 	bl	8007b38 <__hexdig_fun>
 8007c20:	1e43      	subs	r3, r0, #1
 8007c22:	b2db      	uxtb	r3, r3
 8007c24:	2b18      	cmp	r3, #24
 8007c26:	d830      	bhi.n	8007c8a <__gethex+0x126>
 8007c28:	f1a0 0210 	sub.w	r2, r0, #16
 8007c2c:	f811 0f01 	ldrb.w	r0, [r1, #1]!
 8007c30:	f7ff ff82 	bl	8007b38 <__hexdig_fun>
 8007c34:	f100 3cff 	add.w	ip, r0, #4294967295
 8007c38:	fa5f fc8c 	uxtb.w	ip, ip
 8007c3c:	f1bc 0f18 	cmp.w	ip, #24
 8007c40:	f04f 030a 	mov.w	r3, #10
 8007c44:	d91e      	bls.n	8007c84 <__gethex+0x120>
 8007c46:	b104      	cbz	r4, 8007c4a <__gethex+0xe6>
 8007c48:	4252      	negs	r2, r2
 8007c4a:	4417      	add	r7, r2
 8007c4c:	f8ca 1000 	str.w	r1, [sl]
 8007c50:	b1ed      	cbz	r5, 8007c8e <__gethex+0x12a>
 8007c52:	f1bb 0f00 	cmp.w	fp, #0
 8007c56:	bf0c      	ite	eq
 8007c58:	2506      	moveq	r5, #6
 8007c5a:	2500      	movne	r5, #0
 8007c5c:	4628      	mov	r0, r5
 8007c5e:	b005      	add	sp, #20
 8007c60:	e8bd 8ff0 	ldmia.w	sp!, {r4, r5, r6, r7, r8, r9, sl, fp, pc}
 8007c64:	2500      	movs	r5, #0
 8007c66:	462c      	mov	r4, r5
 8007c68:	e7b0      	b.n	8007bcc <__gethex+0x68>
 8007c6a:	2c00      	cmp	r4, #0
 8007c6c:	d1c7      	bne.n	8007bfe <__gethex+0x9a>
 8007c6e:	4627      	mov	r7, r4
 8007c70:	e7c7      	b.n	8007c02 <__gethex+0x9e>
 8007c72:	464e      	mov	r6, r9
 8007c74:	462f      	mov	r7, r5
 8007c76:	2501      	movs	r5, #1
 8007c78:	e7c3      	b.n	8007c02 <__gethex+0x9e>
 8007c7a:	2400      	movs	r4, #0
 8007c7c:	1cb1      	adds	r1, r6, #2
 8007c7e:	e7cc      	b.n	8007c1a <__gethex+0xb6>
 8007c80:	2401      	movs	r4, #1
 8007c82:	e7fb      	b.n	8007c7c <__gethex+0x118>
 8007c84:	fb03 0002 	mla	r0, r3, r2, r0
 8007c88:	e7ce      	b.n	8007c28 <__gethex+0xc4>
 8007c8a:	4631      	mov	r1, r6
 8007c8c:	e7de      	b.n	8007c4c <__gethex+0xe8>
 8007c8e:	4629      	mov	r1, r5
 8007c90:	eba6 0309 	sub.w	r3, r6, r9
 8007c94:	3b01      	subs	r3, #1
 8007c96:	2b07      	cmp	r3, #7
 8007c98:	dc0a      	bgt.n	8007cb0 <__gethex+0x14c>
 8007c9a:	9801      	ldr	r0, [sp, #4]
 8007c9c:	f000 fa46 	bl	800812c <_Balloc>
 8007ca0:	4604      	mov	r4, r0
 8007ca2:	b940      	cbnz	r0, 8007cb6 <__gethex+0x152>
 8007ca4:	4602      	mov	r2, r0
 8007ca6:	21e4      	movs	r1, #228	@ 0xe4
 8007ca8:	4b5b      	ldr	r3, [pc, #364]	@ (8007e18 <__gethex+0x2b4>)
 8007caa:	485c      	ldr	r0, [pc, #368]	@ (8007e1c <__gethex+0x2b8>)
 8007cac:	f7fd ffe4 	bl	8005c78 <__assert_func>
 8007cb0:	3101      	adds	r1, #1
 8007cb2:	105b      	asrs	r3, r3, #1
 8007cb4:	e7ef      	b.n	8007c96 <__gethex+0x132>
 8007cb6:	2300      	movs	r3, #0
 8007cb8:	f100 0a14 	add.w	sl, r0, #20
 8007cbc:	4655      	mov	r5, sl
 8007cbe:	469b      	mov	fp, r3
 8007cc0:	45b1      	cmp	r9, r6
 8007cc2:	d337      	bcc.n	8007d34 <__gethex+0x1d0>
 8007cc4:	f845 bb04 	str.w	fp, [r5], #4
 8007cc8:	eba5 050a 	sub.w	r5, r5, sl
 8007ccc:	10ad      	asrs	r5, r5, #2
 8007cce:	6125      	str	r5, [r4, #16]
 8007cd0:	4658      	mov	r0, fp
 8007cd2:	f000 fb1d 	bl	8008310 <__hi0bits>
 8007cd6:	016d      	lsls	r5, r5, #5
 8007cd8:	f8d8 6000 	ldr.w	r6, [r8]
 8007cdc:	1a2d      	subs	r5, r5, r0
 8007cde:	42b5      	cmp	r5, r6
 8007ce0:	dd54      	ble.n	8007d8c <__gethex+0x228>
 8007ce2:	1bad      	subs	r5, r5, r6
 8007ce4:	4629      	mov	r1, r5
 8007ce6:	4620      	mov	r0, r4
 8007ce8:	f000 fe9f 	bl	8008a2a <__any_on>
 8007cec:	4681      	mov	r9, r0
 8007cee:	b178      	cbz	r0, 8007d10 <__gethex+0x1ac>
 8007cf0:	f04f 0901 	mov.w	r9, #1
 8007cf4:	1e6b      	subs	r3, r5, #1
 8007cf6:	1159      	asrs	r1, r3, #5
 8007cf8:	f85a 1021 	ldr.w	r1, [sl, r1, lsl #2]
 8007cfc:	f003 021f 	and.w	r2, r3, #31
 8007d00:	fa09 f202 	lsl.w	r2, r9, r2
 8007d04:	420a      	tst	r2, r1
 8007d06:	d003      	beq.n	8007d10 <__gethex+0x1ac>
 8007d08:	454b      	cmp	r3, r9
 8007d0a:	dc36      	bgt.n	8007d7a <__gethex+0x216>
 8007d0c:	f04f 0902 	mov.w	r9, #2
 8007d10:	4629      	mov	r1, r5
 8007d12:	4620      	mov	r0, r4
 8007d14:	f7ff febd 	bl	8007a92 <rshift>
 8007d18:	442f      	add	r7, r5
 8007d1a:	f8d8 3008 	ldr.w	r3, [r8, #8]
 8007d1e:	42bb      	cmp	r3, r7
 8007d20:	da42      	bge.n	8007da8 <__gethex+0x244>
 8007d22:	4621      	mov	r1, r4
 8007d24:	9801      	ldr	r0, [sp, #4]
 8007d26:	f000 fa41 	bl	80081ac <_Bfree>
 8007d2a:	2300      	movs	r3, #0
 8007d2c:	9a0e      	ldr	r2, [sp, #56]	@ 0x38
 8007d2e:	25a3      	movs	r5, #163	@ 0xa3
 8007d30:	6013      	str	r3, [r2, #0]
 8007d32:	e793      	b.n	8007c5c <__gethex+0xf8>
 8007d34:	f816 2d01 	ldrb.w	r2, [r6, #-1]!
 8007d38:	2a2e      	cmp	r2, #46	@ 0x2e
 8007d3a:	d012      	beq.n	8007d62 <__gethex+0x1fe>
 8007d3c:	2b20      	cmp	r3, #32
 8007d3e:	d104      	bne.n	8007d4a <__gethex+0x1e6>
 8007d40:	f845 bb04 	str.w	fp, [r5], #4
 8007d44:	f04f 0b00 	mov.w	fp, #0
 8007d48:	465b      	mov	r3, fp
 8007d4a:	7830      	ldrb	r0, [r6, #0]
 8007d4c:	9303      	str	r3, [sp, #12]
 8007d4e:	f7ff fef3 	bl	8007b38 <__hexdig_fun>
 8007d52:	9b03      	ldr	r3, [sp, #12]
 8007d54:	f000 000f 	and.w	r0, r0, #15
 8007d58:	4098      	lsls	r0, r3
 8007d5a:	ea4b 0b00 	orr.w	fp, fp, r0
 8007d5e:	3304      	adds	r3, #4
 8007d60:	e7ae      	b.n	8007cc0 <__gethex+0x15c>
 8007d62:	45b1      	cmp	r9, r6
 8007d64:	d8ea      	bhi.n	8007d3c <__gethex+0x1d8>
 8007d66:	2201      	movs	r2, #1
 8007d68:	4630      	mov	r0, r6
 8007d6a:	492a      	ldr	r1, [pc, #168]	@ (8007e14 <__gethex+0x2b0>)
 8007d6c:	9303      	str	r3, [sp, #12]
 8007d6e:	f7fd fe07 	bl	8005980 <strncmp>
 8007d72:	9b03      	ldr	r3, [sp, #12]
 8007d74:	2800      	cmp	r0, #0
 8007d76:	d1e1      	bne.n	8007d3c <__gethex+0x1d8>
 8007d78:	e7a2      	b.n	8007cc0 <__gethex+0x15c>
 8007d7a:	4620      	mov	r0, r4
 8007d7c:	1ea9      	subs	r1, r5, #2
 8007d7e:	f000 fe54 	bl	8008a2a <__any_on>
 8007d82:	2800      	cmp	r0, #0
 8007d84:	d0c2      	beq.n	8007d0c <__gethex+0x1a8>
 8007d86:	f04f 0903 	mov.w	r9, #3
 8007d8a:	e7c1      	b.n	8007d10 <__gethex+0x1ac>
 8007d8c:	da09      	bge.n	8007da2 <__gethex+0x23e>
 8007d8e:	1b75      	subs	r5, r6, r5
 8007d90:	4621      	mov	r1, r4
 8007d92:	462a      	mov	r2, r5
 8007d94:	9801      	ldr	r0, [sp, #4]
 8007d96:	f000 fc19 	bl	80085cc <__lshift>
 8007d9a:	4604      	mov	r4, r0
 8007d9c:	1b7f      	subs	r7, r7, r5
 8007d9e:	f100 0a14 	add.w	sl, r0, #20
 8007da2:	f04f 0900 	mov.w	r9, #0
 8007da6:	e7b8      	b.n	8007d1a <__gethex+0x1b6>
 8007da8:	f8d8 5004 	ldr.w	r5, [r8, #4]
 8007dac:	42bd      	cmp	r5, r7
 8007dae:	dd6f      	ble.n	8007e90 <__gethex+0x32c>
 8007db0:	1bed      	subs	r5, r5, r7
 8007db2:	42ae      	cmp	r6, r5
 8007db4:	dc34      	bgt.n	8007e20 <__gethex+0x2bc>
 8007db6:	f8d8 300c 	ldr.w	r3, [r8, #12]
 8007dba:	2b02      	cmp	r3, #2
 8007dbc:	d022      	beq.n	8007e04 <__gethex+0x2a0>
 8007dbe:	2b03      	cmp	r3, #3
 8007dc0:	d024      	beq.n	8007e0c <__gethex+0x2a8>
 8007dc2:	2b01      	cmp	r3, #1
 8007dc4:	d115      	bne.n	8007df2 <__gethex+0x28e>
 8007dc6:	42ae      	cmp	r6, r5
 8007dc8:	d113      	bne.n	8007df2 <__gethex+0x28e>
 8007dca:	2e01      	cmp	r6, #1
 8007dcc:	d10b      	bne.n	8007de6 <__gethex+0x282>
 8007dce:	f8d8 3004 	ldr.w	r3, [r8, #4]
 8007dd2:	9a02      	ldr	r2, [sp, #8]
 8007dd4:	2562      	movs	r5, #98	@ 0x62
 8007dd6:	6013      	str	r3, [r2, #0]
 8007dd8:	2301      	movs	r3, #1
 8007dda:	6123      	str	r3, [r4, #16]
 8007ddc:	f8ca 3000 	str.w	r3, [sl]
 8007de0:	9b0e      	ldr	r3, [sp, #56]	@ 0x38
 8007de2:	601c      	str	r4, [r3, #0]
 8007de4:	e73a      	b.n	8007c5c <__gethex+0xf8>
 8007de6:	4620      	mov	r0, r4
 8007de8:	1e71      	subs	r1, r6, #1
 8007dea:	f000 fe1e 	bl	8008a2a <__any_on>
 8007dee:	2800      	cmp	r0, #0
 8007df0:	d1ed      	bne.n	8007dce <__gethex+0x26a>
 8007df2:	4621      	mov	r1, r4
 8007df4:	9801      	ldr	r0, [sp, #4]
 8007df6:	f000 f9d9 	bl	80081ac <_Bfree>
 8007dfa:	2300      	movs	r3, #0
 8007dfc:	9a0e      	ldr	r2, [sp, #56]	@ 0x38
 8007dfe:	2550      	movs	r5, #80	@ 0x50
 8007e00:	6013      	str	r3, [r2, #0]
 8007e02:	e72b      	b.n	8007c5c <__gethex+0xf8>
 8007e04:	9b0f      	ldr	r3, [sp, #60]	@ 0x3c
 8007e06:	2b00      	cmp	r3, #0
 8007e08:	d1f3      	bne.n	8007df2 <__gethex+0x28e>
 8007e0a:	e7e0      	b.n	8007dce <__gethex+0x26a>
 8007e0c:	9b0f      	ldr	r3, [sp, #60]	@ 0x3c
 8007e0e:	2b00      	cmp	r3, #0
 8007e10:	d1dd      	bne.n	8007dce <__gethex+0x26a>
 8007e12:	e7ee      	b.n	8007df2 <__gethex+0x28e>
 8007e14:	08009c6e 	.word	0x08009c6e
 8007e18:	08009cd2 	.word	0x08009cd2
 8007e1c:	08009ce3 	.word	0x08009ce3
 8007e20:	1e6f      	subs	r7, r5, #1
 8007e22:	f1b9 0f00 	cmp.w	r9, #0
 8007e26:	d130      	bne.n	8007e8a <__gethex+0x326>
 8007e28:	b127      	cbz	r7, 8007e34 <__gethex+0x2d0>
 8007e2a:	4639      	mov	r1, r7
 8007e2c:	4620      	mov	r0, r4
 8007e2e:	f000 fdfc 	bl	8008a2a <__any_on>
 8007e32:	4681      	mov	r9, r0
 8007e34:	2301      	movs	r3, #1
 8007e36:	4629      	mov	r1, r5
 8007e38:	1b76      	subs	r6, r6, r5
 8007e3a:	2502      	movs	r5, #2
 8007e3c:	117a      	asrs	r2, r7, #5
 8007e3e:	f85a 2022 	ldr.w	r2, [sl, r2, lsl #2]
 8007e42:	f007 071f 	and.w	r7, r7, #31
 8007e46:	40bb      	lsls	r3, r7
 8007e48:	4213      	tst	r3, r2
 8007e4a:	4620      	mov	r0, r4
 8007e4c:	bf18      	it	ne
 8007e4e:	f049 0902 	orrne.w	r9, r9, #2
 8007e52:	f7ff fe1e 	bl	8007a92 <rshift>
 8007e56:	f8d8 7004 	ldr.w	r7, [r8, #4]
 8007e5a:	f1b9 0f00 	cmp.w	r9, #0
 8007e5e:	d047      	beq.n	8007ef0 <__gethex+0x38c>
 8007e60:	f8d8 300c 	ldr.w	r3, [r8, #12]
 8007e64:	2b02      	cmp	r3, #2
 8007e66:	d015      	beq.n	8007e94 <__gethex+0x330>
 8007e68:	2b03      	cmp	r3, #3
 8007e6a:	d017      	beq.n	8007e9c <__gethex+0x338>
 8007e6c:	2b01      	cmp	r3, #1
 8007e6e:	d109      	bne.n	8007e84 <__gethex+0x320>
 8007e70:	f019 0f02 	tst.w	r9, #2
 8007e74:	d006      	beq.n	8007e84 <__gethex+0x320>
 8007e76:	f8da 3000 	ldr.w	r3, [sl]
 8007e7a:	ea49 0903 	orr.w	r9, r9, r3
 8007e7e:	f019 0f01 	tst.w	r9, #1
 8007e82:	d10e      	bne.n	8007ea2 <__gethex+0x33e>
 8007e84:	f045 0510 	orr.w	r5, r5, #16
 8007e88:	e032      	b.n	8007ef0 <__gethex+0x38c>
 8007e8a:	f04f 0901 	mov.w	r9, #1
 8007e8e:	e7d1      	b.n	8007e34 <__gethex+0x2d0>
 8007e90:	2501      	movs	r5, #1
 8007e92:	e7e2      	b.n	8007e5a <__gethex+0x2f6>
 8007e94:	9b0f      	ldr	r3, [sp, #60]	@ 0x3c
 8007e96:	f1c3 0301 	rsb	r3, r3, #1
 8007e9a:	930f      	str	r3, [sp, #60]	@ 0x3c
 8007e9c:	9b0f      	ldr	r3, [sp, #60]	@ 0x3c
 8007e9e:	2b00      	cmp	r3, #0
 8007ea0:	d0f0      	beq.n	8007e84 <__gethex+0x320>
 8007ea2:	f04f 0c00 	mov.w	ip, #0
 8007ea6:	f8d4 b010 	ldr.w	fp, [r4, #16]
 8007eaa:	f104 0314 	add.w	r3, r4, #20
 8007eae:	ea4f 0a8b 	mov.w	sl, fp, lsl #2
 8007eb2:	eb03 018b 	add.w	r1, r3, fp, lsl #2
 8007eb6:	4618      	mov	r0, r3
 8007eb8:	f853 2b04 	ldr.w	r2, [r3], #4
 8007ebc:	f1b2 3fff 	cmp.w	r2, #4294967295
 8007ec0:	d01b      	beq.n	8007efa <__gethex+0x396>
 8007ec2:	3201      	adds	r2, #1
 8007ec4:	6002      	str	r2, [r0, #0]
 8007ec6:	2d02      	cmp	r5, #2
 8007ec8:	f104 0314 	add.w	r3, r4, #20
 8007ecc:	d13c      	bne.n	8007f48 <__gethex+0x3e4>
 8007ece:	f8d8 2000 	ldr.w	r2, [r8]
 8007ed2:	3a01      	subs	r2, #1
 8007ed4:	42b2      	cmp	r2, r6
 8007ed6:	d109      	bne.n	8007eec <__gethex+0x388>
 8007ed8:	2201      	movs	r2, #1
 8007eda:	1171      	asrs	r1, r6, #5
 8007edc:	f853 3021 	ldr.w	r3, [r3, r1, lsl #2]
 8007ee0:	f006 061f 	and.w	r6, r6, #31
 8007ee4:	fa02 f606 	lsl.w	r6, r2, r6
 8007ee8:	421e      	tst	r6, r3
 8007eea:	d13a      	bne.n	8007f62 <__gethex+0x3fe>
 8007eec:	f045 0520 	orr.w	r5, r5, #32
 8007ef0:	9b0e      	ldr	r3, [sp, #56]	@ 0x38
 8007ef2:	601c      	str	r4, [r3, #0]
 8007ef4:	9b02      	ldr	r3, [sp, #8]
 8007ef6:	601f      	str	r7, [r3, #0]
 8007ef8:	e6b0      	b.n	8007c5c <__gethex+0xf8>
 8007efa:	4299      	cmp	r1, r3
 8007efc:	f843 cc04 	str.w	ip, [r3, #-4]
 8007f00:	d8d9      	bhi.n	8007eb6 <__gethex+0x352>
 8007f02:	68a3      	ldr	r3, [r4, #8]
 8007f04:	459b      	cmp	fp, r3
 8007f06:	db17      	blt.n	8007f38 <__gethex+0x3d4>
 8007f08:	6861      	ldr	r1, [r4, #4]
 8007f0a:	9801      	ldr	r0, [sp, #4]
 8007f0c:	3101      	adds	r1, #1
 8007f0e:	f000 f90d 	bl	800812c <_Balloc>
 8007f12:	4681      	mov	r9, r0
 8007f14:	b918      	cbnz	r0, 8007f1e <__gethex+0x3ba>
 8007f16:	4602      	mov	r2, r0
 8007f18:	2184      	movs	r1, #132	@ 0x84
 8007f1a:	4b19      	ldr	r3, [pc, #100]	@ (8007f80 <__gethex+0x41c>)
 8007f1c:	e6c5      	b.n	8007caa <__gethex+0x146>
 8007f1e:	6922      	ldr	r2, [r4, #16]
 8007f20:	f104 010c 	add.w	r1, r4, #12
 8007f24:	3202      	adds	r2, #2
 8007f26:	0092      	lsls	r2, r2, #2
 8007f28:	300c      	adds	r0, #12
 8007f2a:	f7fd fe92 	bl	8005c52 <memcpy>
 8007f2e:	4621      	mov	r1, r4
 8007f30:	9801      	ldr	r0, [sp, #4]
 8007f32:	f000 f93b 	bl	80081ac <_Bfree>
 8007f36:	464c      	mov	r4, r9
 8007f38:	6923      	ldr	r3, [r4, #16]
 8007f3a:	1c5a      	adds	r2, r3, #1
 8007f3c:	6122      	str	r2, [r4, #16]
 8007f3e:	2201      	movs	r2, #1
 8007f40:	eb04 0383 	add.w	r3, r4, r3, lsl #2
 8007f44:	615a      	str	r2, [r3, #20]
 8007f46:	e7be      	b.n	8007ec6 <__gethex+0x362>
 8007f48:	6922      	ldr	r2, [r4, #16]
 8007f4a:	455a      	cmp	r2, fp
 8007f4c:	dd0b      	ble.n	8007f66 <__gethex+0x402>
 8007f4e:	2101      	movs	r1, #1
 8007f50:	4620      	mov	r0, r4
 8007f52:	f7ff fd9e 	bl	8007a92 <rshift>
 8007f56:	f8d8 3008 	ldr.w	r3, [r8, #8]
 8007f5a:	3701      	adds	r7, #1
 8007f5c:	42bb      	cmp	r3, r7
 8007f5e:	f6ff aee0 	blt.w	8007d22 <__gethex+0x1be>
 8007f62:	2501      	movs	r5, #1
 8007f64:	e7c2      	b.n	8007eec <__gethex+0x388>
 8007f66:	f016 061f 	ands.w	r6, r6, #31
 8007f6a:	d0fa      	beq.n	8007f62 <__gethex+0x3fe>
 8007f6c:	4453      	add	r3, sl
 8007f6e:	f853 0c04 	ldr.w	r0, [r3, #-4]
 8007f72:	f000 f9cd 	bl	8008310 <__hi0bits>
 8007f76:	f1c6 0620 	rsb	r6, r6, #32
 8007f7a:	42b0      	cmp	r0, r6
 8007f7c:	dbe7      	blt.n	8007f4e <__gethex+0x3ea>
 8007f7e:	e7f0      	b.n	8007f62 <__gethex+0x3fe>
 8007f80:	08009cd2 	.word	0x08009cd2

08007f84 <L_shift>:
 8007f84:	f1c2 0208 	rsb	r2, r2, #8
 8007f88:	0092      	lsls	r2, r2, #2
 8007f8a:	b570      	push	{r4, r5, r6, lr}
 8007f8c:	f1c2 0620 	rsb	r6, r2, #32
 8007f90:	6843      	ldr	r3, [r0, #4]
 8007f92:	6804      	ldr	r4, [r0, #0]
 8007f94:	fa03 f506 	lsl.w	r5, r3, r6
 8007f98:	432c      	orrs	r4, r5
 8007f9a:	40d3      	lsrs	r3, r2
 8007f9c:	6004      	str	r4, [r0, #0]
 8007f9e:	f840 3f04 	str.w	r3, [r0, #4]!
 8007fa2:	4288      	cmp	r0, r1
 8007fa4:	d3f4      	bcc.n	8007f90 <L_shift+0xc>
 8007fa6:	bd70      	pop	{r4, r5, r6, pc}

08007fa8 <__match>:
 8007fa8:	b530      	push	{r4, r5, lr}
 8007faa:	6803      	ldr	r3, [r0, #0]
 8007fac:	3301      	adds	r3, #1
 8007fae:	f811 4b01 	ldrb.w	r4, [r1], #1
 8007fb2:	b914      	cbnz	r4, 8007fba <__match+0x12>
 8007fb4:	6003      	str	r3, [r0, #0]
 8007fb6:	2001      	movs	r0, #1
 8007fb8:	bd30      	pop	{r4, r5, pc}
 8007fba:	f813 2b01 	ldrb.w	r2, [r3], #1
 8007fbe:	f1a2 0541 	sub.w	r5, r2, #65	@ 0x41
 8007fc2:	2d19      	cmp	r5, #25
 8007fc4:	bf98      	it	ls
 8007fc6:	3220      	addls	r2, #32
 8007fc8:	42a2      	cmp	r2, r4
 8007fca:	d0f0      	beq.n	8007fae <__match+0x6>
 8007fcc:	2000      	movs	r0, #0
 8007fce:	e7f3      	b.n	8007fb8 <__match+0x10>

08007fd0 <__hexnan>:
 8007fd0:	e92d 4ff0 	stmdb	sp!, {r4, r5, r6, r7, r8, r9, sl, fp, lr}
 8007fd4:	2500      	movs	r5, #0
 8007fd6:	680b      	ldr	r3, [r1, #0]
 8007fd8:	4682      	mov	sl, r0
 8007fda:	115e      	asrs	r6, r3, #5
 8007fdc:	eb02 0686 	add.w	r6, r2, r6, lsl #2
 8007fe0:	f013 031f 	ands.w	r3, r3, #31
 8007fe4:	bf18      	it	ne
 8007fe6:	3604      	addne	r6, #4
 8007fe8:	1f37      	subs	r7, r6, #4
 8007fea:	4690      	mov	r8, r2
 8007fec:	46b9      	mov	r9, r7
 8007fee:	463c      	mov	r4, r7
 8007ff0:	46ab      	mov	fp, r5
 8007ff2:	b087      	sub	sp, #28
 8007ff4:	6801      	ldr	r1, [r0, #0]
 8007ff6:	9301      	str	r3, [sp, #4]
 8007ff8:	f846 5c04 	str.w	r5, [r6, #-4]
 8007ffc:	9502      	str	r5, [sp, #8]
 8007ffe:	784a      	ldrb	r2, [r1, #1]
 8008000:	1c4b      	adds	r3, r1, #1
 8008002:	9303      	str	r3, [sp, #12]
 8008004:	b342      	cbz	r2, 8008058 <__hexnan+0x88>
 8008006:	4610      	mov	r0, r2
 8008008:	9105      	str	r1, [sp, #20]
 800800a:	9204      	str	r2, [sp, #16]
 800800c:	f7ff fd94 	bl	8007b38 <__hexdig_fun>
 8008010:	2800      	cmp	r0, #0
 8008012:	d151      	bne.n	80080b8 <__hexnan+0xe8>
 8008014:	9a04      	ldr	r2, [sp, #16]
 8008016:	9905      	ldr	r1, [sp, #20]
 8008018:	2a20      	cmp	r2, #32
 800801a:	d818      	bhi.n	800804e <__hexnan+0x7e>
 800801c:	9b02      	ldr	r3, [sp, #8]
 800801e:	459b      	cmp	fp, r3
 8008020:	dd13      	ble.n	800804a <__hexnan+0x7a>
 8008022:	454c      	cmp	r4, r9
 8008024:	d206      	bcs.n	8008034 <__hexnan+0x64>
 8008026:	2d07      	cmp	r5, #7
 8008028:	dc04      	bgt.n	8008034 <__hexnan+0x64>
 800802a:	462a      	mov	r2, r5
 800802c:	4649      	mov	r1, r9
 800802e:	4620      	mov	r0, r4
 8008030:	f7ff ffa8 	bl	8007f84 <L_shift>
 8008034:	4544      	cmp	r4, r8
 8008036:	d952      	bls.n	80080de <__hexnan+0x10e>
 8008038:	2300      	movs	r3, #0
 800803a:	f1a4 0904 	sub.w	r9, r4, #4
 800803e:	f844 3c04 	str.w	r3, [r4, #-4]
 8008042:	461d      	mov	r5, r3
 8008044:	464c      	mov	r4, r9
 8008046:	f8cd b008 	str.w	fp, [sp, #8]
 800804a:	9903      	ldr	r1, [sp, #12]
 800804c:	e7d7      	b.n	8007ffe <__hexnan+0x2e>
 800804e:	2a29      	cmp	r2, #41	@ 0x29
 8008050:	d157      	bne.n	8008102 <__hexnan+0x132>
 8008052:	3102      	adds	r1, #2
 8008054:	f8ca 1000 	str.w	r1, [sl]
 8008058:	f1bb 0f00 	cmp.w	fp, #0
 800805c:	d051      	beq.n	8008102 <__hexnan+0x132>
 800805e:	454c      	cmp	r4, r9
 8008060:	d206      	bcs.n	8008070 <__hexnan+0xa0>
 8008062:	2d07      	cmp	r5, #7
 8008064:	dc04      	bgt.n	8008070 <__hexnan+0xa0>
 8008066:	462a      	mov	r2, r5
 8008068:	4649      	mov	r1, r9
 800806a:	4620      	mov	r0, r4
 800806c:	f7ff ff8a 	bl	8007f84 <L_shift>
 8008070:	4544      	cmp	r4, r8
 8008072:	d936      	bls.n	80080e2 <__hexnan+0x112>
 8008074:	4623      	mov	r3, r4
 8008076:	f1a8 0204 	sub.w	r2, r8, #4
 800807a:	f853 1b04 	ldr.w	r1, [r3], #4
 800807e:	429f      	cmp	r7, r3
 8008080:	f842 1f04 	str.w	r1, [r2, #4]!
 8008084:	d2f9      	bcs.n	800807a <__hexnan+0xaa>
 8008086:	1b3b      	subs	r3, r7, r4
 8008088:	f023 0303 	bic.w	r3, r3, #3
 800808c:	3304      	adds	r3, #4
 800808e:	3401      	adds	r4, #1
 8008090:	3e03      	subs	r6, #3
 8008092:	42b4      	cmp	r4, r6
 8008094:	bf88      	it	hi
 8008096:	2304      	movhi	r3, #4
 8008098:	2200      	movs	r2, #0
 800809a:	4443      	add	r3, r8
 800809c:	f843 2b04 	str.w	r2, [r3], #4
 80080a0:	429f      	cmp	r7, r3
 80080a2:	d2fb      	bcs.n	800809c <__hexnan+0xcc>
 80080a4:	683b      	ldr	r3, [r7, #0]
 80080a6:	b91b      	cbnz	r3, 80080b0 <__hexnan+0xe0>
 80080a8:	4547      	cmp	r7, r8
 80080aa:	d128      	bne.n	80080fe <__hexnan+0x12e>
 80080ac:	2301      	movs	r3, #1
 80080ae:	603b      	str	r3, [r7, #0]
 80080b0:	2005      	movs	r0, #5
 80080b2:	b007      	add	sp, #28
 80080b4:	e8bd 8ff0 	ldmia.w	sp!, {r4, r5, r6, r7, r8, r9, sl, fp, pc}
 80080b8:	3501      	adds	r5, #1
 80080ba:	2d08      	cmp	r5, #8
 80080bc:	f10b 0b01 	add.w	fp, fp, #1
 80080c0:	dd06      	ble.n	80080d0 <__hexnan+0x100>
 80080c2:	4544      	cmp	r4, r8
 80080c4:	d9c1      	bls.n	800804a <__hexnan+0x7a>
 80080c6:	2300      	movs	r3, #0
 80080c8:	2501      	movs	r5, #1
 80080ca:	f844 3c04 	str.w	r3, [r4, #-4]
 80080ce:	3c04      	subs	r4, #4
 80080d0:	6822      	ldr	r2, [r4, #0]
 80080d2:	f000 000f 	and.w	r0, r0, #15
 80080d6:	ea40 1002 	orr.w	r0, r0, r2, lsl #4
 80080da:	6020      	str	r0, [r4, #0]
 80080dc:	e7b5      	b.n	800804a <__hexnan+0x7a>
 80080de:	2508      	movs	r5, #8
 80080e0:	e7b3      	b.n	800804a <__hexnan+0x7a>
 80080e2:	9b01      	ldr	r3, [sp, #4]
 80080e4:	2b00      	cmp	r3, #0
 80080e6:	d0dd      	beq.n	80080a4 <__hexnan+0xd4>
 80080e8:	f04f 32ff 	mov.w	r2, #4294967295
 80080ec:	f1c3 0320 	rsb	r3, r3, #32
 80080f0:	40da      	lsrs	r2, r3
 80080f2:	f856 3c04 	ldr.w	r3, [r6, #-4]
 80080f6:	4013      	ands	r3, r2
 80080f8:	f846 3c04 	str.w	r3, [r6, #-4]
 80080fc:	e7d2      	b.n	80080a4 <__hexnan+0xd4>
 80080fe:	3f04      	subs	r7, #4
 8008100:	e7d0      	b.n	80080a4 <__hexnan+0xd4>
 8008102:	2004      	movs	r0, #4
 8008104:	e7d5      	b.n	80080b2 <__hexnan+0xe2>

08008106 <__ascii_mbtowc>:
 8008106:	b082      	sub	sp, #8
 8008108:	b901      	cbnz	r1, 800810c <__ascii_mbtowc+0x6>
 800810a:	a901      	add	r1, sp, #4
 800810c:	b142      	cbz	r2, 8008120 <__ascii_mbtowc+0x1a>
 800810e:	b14b      	cbz	r3, 8008124 <__ascii_mbtowc+0x1e>
 8008110:	7813      	ldrb	r3, [r2, #0]
 8008112:	600b      	str	r3, [r1, #0]
 8008114:	7812      	ldrb	r2, [r2, #0]
 8008116:	1e10      	subs	r0, r2, #0
 8008118:	bf18      	it	ne
 800811a:	2001      	movne	r0, #1
 800811c:	b002      	add	sp, #8
 800811e:	4770      	bx	lr
 8008120:	4610      	mov	r0, r2
 8008122:	e7fb      	b.n	800811c <__ascii_mbtowc+0x16>
 8008124:	f06f 0001 	mvn.w	r0, #1
 8008128:	e7f8      	b.n	800811c <__ascii_mbtowc+0x16>
	...

0800812c <_Balloc>:
 800812c:	b570      	push	{r4, r5, r6, lr}
 800812e:	69c6      	ldr	r6, [r0, #28]
 8008130:	4604      	mov	r4, r0
 8008132:	460d      	mov	r5, r1
 8008134:	b976      	cbnz	r6, 8008154 <_Balloc+0x28>
 8008136:	2010      	movs	r0, #16
 8008138:	f7fd fe04 	bl	8005d44 <malloc>
 800813c:	4602      	mov	r2, r0
 800813e:	61e0      	str	r0, [r4, #28]
 8008140:	b920      	cbnz	r0, 800814c <_Balloc+0x20>
 8008142:	216b      	movs	r1, #107	@ 0x6b
 8008144:	4b17      	ldr	r3, [pc, #92]	@ (80081a4 <_Balloc+0x78>)
 8008146:	4818      	ldr	r0, [pc, #96]	@ (80081a8 <_Balloc+0x7c>)
 8008148:	f7fd fd96 	bl	8005c78 <__assert_func>
 800814c:	e9c0 6601 	strd	r6, r6, [r0, #4]
 8008150:	6006      	str	r6, [r0, #0]
 8008152:	60c6      	str	r6, [r0, #12]
 8008154:	69e6      	ldr	r6, [r4, #28]
 8008156:	68f3      	ldr	r3, [r6, #12]
 8008158:	b183      	cbz	r3, 800817c <_Balloc+0x50>
 800815a:	69e3      	ldr	r3, [r4, #28]
 800815c:	68db      	ldr	r3, [r3, #12]
 800815e:	f853 0025 	ldr.w	r0, [r3, r5, lsl #2]
 8008162:	b9b8      	cbnz	r0, 8008194 <_Balloc+0x68>
 8008164:	2101      	movs	r1, #1
 8008166:	fa01 f605 	lsl.w	r6, r1, r5
 800816a:	1d72      	adds	r2, r6, #5
 800816c:	4620      	mov	r0, r4
 800816e:	0092      	lsls	r2, r2, #2
 8008170:	f000 ff3e 	bl	8008ff0 <_calloc_r>
 8008174:	b160      	cbz	r0, 8008190 <_Balloc+0x64>
 8008176:	e9c0 5601 	strd	r5, r6, [r0, #4]
 800817a:	e00e      	b.n	800819a <_Balloc+0x6e>
 800817c:	2221      	movs	r2, #33	@ 0x21
 800817e:	2104      	movs	r1, #4
 8008180:	4620      	mov	r0, r4
 8008182:	f000 ff35 	bl	8008ff0 <_calloc_r>
 8008186:	69e3      	ldr	r3, [r4, #28]
 8008188:	60f0      	str	r0, [r6, #12]
 800818a:	68db      	ldr	r3, [r3, #12]
 800818c:	2b00      	cmp	r3, #0
 800818e:	d1e4      	bne.n	800815a <_Balloc+0x2e>
 8008190:	2000      	movs	r0, #0
 8008192:	bd70      	pop	{r4, r5, r6, pc}
 8008194:	6802      	ldr	r2, [r0, #0]
 8008196:	f843 2025 	str.w	r2, [r3, r5, lsl #2]
 800819a:	2300      	movs	r3, #0
 800819c:	e9c0 3303 	strd	r3, r3, [r0, #12]
 80081a0:	e7f7      	b.n	8008192 <_Balloc+0x66>
 80081a2:	bf00      	nop
 80081a4:	08009bc1 	.word	0x08009bc1
 80081a8:	08009d43 	.word	0x08009d43

080081ac <_Bfree>:
 80081ac:	b570      	push	{r4, r5, r6, lr}
 80081ae:	69c6      	ldr	r6, [r0, #28]
 80081b0:	4605      	mov	r5, r0
 80081b2:	460c      	mov	r4, r1
 80081b4:	b976      	cbnz	r6, 80081d4 <_Bfree+0x28>
 80081b6:	2010      	movs	r0, #16
 80081b8:	f7fd fdc4 	bl	8005d44 <malloc>
 80081bc:	4602      	mov	r2, r0
 80081be:	61e8      	str	r0, [r5, #28]
 80081c0:	b920      	cbnz	r0, 80081cc <_Bfree+0x20>
 80081c2:	218f      	movs	r1, #143	@ 0x8f
 80081c4:	4b08      	ldr	r3, [pc, #32]	@ (80081e8 <_Bfree+0x3c>)
 80081c6:	4809      	ldr	r0, [pc, #36]	@ (80081ec <_Bfree+0x40>)
 80081c8:	f7fd fd56 	bl	8005c78 <__assert_func>
 80081cc:	e9c0 6601 	strd	r6, r6, [r0, #4]
 80081d0:	6006      	str	r6, [r0, #0]
 80081d2:	60c6      	str	r6, [r0, #12]
 80081d4:	b13c      	cbz	r4, 80081e6 <_Bfree+0x3a>
 80081d6:	69eb      	ldr	r3, [r5, #28]
 80081d8:	6862      	ldr	r2, [r4, #4]
 80081da:	68db      	ldr	r3, [r3, #12]
 80081dc:	f853 1022 	ldr.w	r1, [r3, r2, lsl #2]
 80081e0:	6021      	str	r1, [r4, #0]
 80081e2:	f843 4022 	str.w	r4, [r3, r2, lsl #2]
 80081e6:	bd70      	pop	{r4, r5, r6, pc}
 80081e8:	08009bc1 	.word	0x08009bc1
 80081ec:	08009d43 	.word	0x08009d43

080081f0 <__multadd>:
 80081f0:	e92d 41f0 	stmdb	sp!, {r4, r5, r6, r7, r8, lr}
 80081f4:	4607      	mov	r7, r0
 80081f6:	460c      	mov	r4, r1
 80081f8:	461e      	mov	r6, r3
 80081fa:	2000      	movs	r0, #0
 80081fc:	690d      	ldr	r5, [r1, #16]
 80081fe:	f101 0c14 	add.w	ip, r1, #20
 8008202:	f8dc 3000 	ldr.w	r3, [ip]
 8008206:	3001      	adds	r0, #1
 8008208:	b299      	uxth	r1, r3
 800820a:	fb02 6101 	mla	r1, r2, r1, r6
 800820e:	0c1e      	lsrs	r6, r3, #16
 8008210:	0c0b      	lsrs	r3, r1, #16
 8008212:	fb02 3306 	mla	r3, r2, r6, r3
 8008216:	b289      	uxth	r1, r1
 8008218:	eb01 4103 	add.w	r1, r1, r3, lsl #16
 800821c:	4285      	cmp	r5, r0
 800821e:	ea4f 4613 	mov.w	r6, r3, lsr #16
 8008222:	f84c 1b04 	str.w	r1, [ip], #4
 8008226:	dcec      	bgt.n	8008202 <__multadd+0x12>
 8008228:	b30e      	cbz	r6, 800826e <__multadd+0x7e>
 800822a:	68a3      	ldr	r3, [r4, #8]
 800822c:	42ab      	cmp	r3, r5
 800822e:	dc19      	bgt.n	8008264 <__multadd+0x74>
 8008230:	6861      	ldr	r1, [r4, #4]
 8008232:	4638      	mov	r0, r7
 8008234:	3101      	adds	r1, #1
 8008236:	f7ff ff79 	bl	800812c <_Balloc>
 800823a:	4680      	mov	r8, r0
 800823c:	b928      	cbnz	r0, 800824a <__multadd+0x5a>
 800823e:	4602      	mov	r2, r0
 8008240:	21ba      	movs	r1, #186	@ 0xba
 8008242:	4b0c      	ldr	r3, [pc, #48]	@ (8008274 <__multadd+0x84>)
 8008244:	480c      	ldr	r0, [pc, #48]	@ (8008278 <__multadd+0x88>)
 8008246:	f7fd fd17 	bl	8005c78 <__assert_func>
 800824a:	6922      	ldr	r2, [r4, #16]
 800824c:	f104 010c 	add.w	r1, r4, #12
 8008250:	3202      	adds	r2, #2
 8008252:	0092      	lsls	r2, r2, #2
 8008254:	300c      	adds	r0, #12
 8008256:	f7fd fcfc 	bl	8005c52 <memcpy>
 800825a:	4621      	mov	r1, r4
 800825c:	4638      	mov	r0, r7
 800825e:	f7ff ffa5 	bl	80081ac <_Bfree>
 8008262:	4644      	mov	r4, r8
 8008264:	eb04 0385 	add.w	r3, r4, r5, lsl #2
 8008268:	3501      	adds	r5, #1
 800826a:	615e      	str	r6, [r3, #20]
 800826c:	6125      	str	r5, [r4, #16]
 800826e:	4620      	mov	r0, r4
 8008270:	e8bd 81f0 	ldmia.w	sp!, {r4, r5, r6, r7, r8, pc}
 8008274:	08009cd2 	.word	0x08009cd2
 8008278:	08009d43 	.word	0x08009d43

0800827c <__s2b>:
 800827c:	e92d 43f8 	stmdb	sp!, {r3, r4, r5, r6, r7, r8, r9, lr}
 8008280:	4615      	mov	r5, r2
 8008282:	2209      	movs	r2, #9
 8008284:	461f      	mov	r7, r3
 8008286:	3308      	adds	r3, #8
 8008288:	460c      	mov	r4, r1
 800828a:	fb93 f3f2 	sdiv	r3, r3, r2
 800828e:	4606      	mov	r6, r0
 8008290:	2201      	movs	r2, #1
 8008292:	2100      	movs	r1, #0
 8008294:	429a      	cmp	r2, r3
 8008296:	db09      	blt.n	80082ac <__s2b+0x30>
 8008298:	4630      	mov	r0, r6
 800829a:	f7ff ff47 	bl	800812c <_Balloc>
 800829e:	b940      	cbnz	r0, 80082b2 <__s2b+0x36>
 80082a0:	4602      	mov	r2, r0
 80082a2:	21d3      	movs	r1, #211	@ 0xd3
 80082a4:	4b18      	ldr	r3, [pc, #96]	@ (8008308 <__s2b+0x8c>)
 80082a6:	4819      	ldr	r0, [pc, #100]	@ (800830c <__s2b+0x90>)
 80082a8:	f7fd fce6 	bl	8005c78 <__assert_func>
 80082ac:	0052      	lsls	r2, r2, #1
 80082ae:	3101      	adds	r1, #1
 80082b0:	e7f0      	b.n	8008294 <__s2b+0x18>
 80082b2:	9b08      	ldr	r3, [sp, #32]
 80082b4:	2d09      	cmp	r5, #9
 80082b6:	6143      	str	r3, [r0, #20]
 80082b8:	f04f 0301 	mov.w	r3, #1
 80082bc:	6103      	str	r3, [r0, #16]
 80082be:	dd16      	ble.n	80082ee <__s2b+0x72>
 80082c0:	f104 0909 	add.w	r9, r4, #9
 80082c4:	46c8      	mov	r8, r9
 80082c6:	442c      	add	r4, r5
 80082c8:	f818 3b01 	ldrb.w	r3, [r8], #1
 80082cc:	4601      	mov	r1, r0
 80082ce:	220a      	movs	r2, #10
 80082d0:	4630      	mov	r0, r6
 80082d2:	3b30      	subs	r3, #48	@ 0x30
 80082d4:	f7ff ff8c 	bl	80081f0 <__multadd>
 80082d8:	45a0      	cmp	r8, r4
 80082da:	d1f5      	bne.n	80082c8 <__s2b+0x4c>
 80082dc:	f1a5 0408 	sub.w	r4, r5, #8
 80082e0:	444c      	add	r4, r9
 80082e2:	1b2d      	subs	r5, r5, r4
 80082e4:	1963      	adds	r3, r4, r5
 80082e6:	42bb      	cmp	r3, r7
 80082e8:	db04      	blt.n	80082f4 <__s2b+0x78>
 80082ea:	e8bd 83f8 	ldmia.w	sp!, {r3, r4, r5, r6, r7, r8, r9, pc}
 80082ee:	2509      	movs	r5, #9
 80082f0:	340a      	adds	r4, #10
 80082f2:	e7f6      	b.n	80082e2 <__s2b+0x66>
 80082f4:	f814 3b01 	ldrb.w	r3, [r4], #1
 80082f8:	4601      	mov	r1, r0
 80082fa:	220a      	movs	r2, #10
 80082fc:	4630      	mov	r0, r6
 80082fe:	3b30      	subs	r3, #48	@ 0x30
 8008300:	f7ff ff76 	bl	80081f0 <__multadd>
 8008304:	e7ee      	b.n	80082e4 <__s2b+0x68>
 8008306:	bf00      	nop
 8008308:	08009cd2 	.word	0x08009cd2
 800830c:	08009d43 	.word	0x08009d43

08008310 <__hi0bits>:
 8008310:	4603      	mov	r3, r0
 8008312:	f5b0 3f80 	cmp.w	r0, #65536	@ 0x10000
 8008316:	bf3a      	itte	cc
 8008318:	0403      	lslcc	r3, r0, #16
 800831a:	2010      	movcc	r0, #16
 800831c:	2000      	movcs	r0, #0
 800831e:	f1b3 7f80 	cmp.w	r3, #16777216	@ 0x1000000
 8008322:	bf3c      	itt	cc
 8008324:	021b      	lslcc	r3, r3, #8
 8008326:	3008      	addcc	r0, #8
 8008328:	f1b3 5f80 	cmp.w	r3, #268435456	@ 0x10000000
 800832c:	bf3c      	itt	cc
 800832e:	011b      	lslcc	r3, r3, #4
 8008330:	3004      	addcc	r0, #4
 8008332:	f1b3 4f80 	cmp.w	r3, #1073741824	@ 0x40000000
 8008336:	bf3c      	itt	cc
 8008338:	009b      	lslcc	r3, r3, #2
 800833a:	3002      	addcc	r0, #2
 800833c:	2b00      	cmp	r3, #0
 800833e:	db05      	blt.n	800834c <__hi0bits+0x3c>
 8008340:	f013 4f80 	tst.w	r3, #1073741824	@ 0x40000000
 8008344:	f100 0001 	add.w	r0, r0, #1
 8008348:	bf08      	it	eq
 800834a:	2020      	moveq	r0, #32
 800834c:	4770      	bx	lr

0800834e <__lo0bits>:
 800834e:	6803      	ldr	r3, [r0, #0]
 8008350:	4602      	mov	r2, r0
 8008352:	f013 0007 	ands.w	r0, r3, #7
 8008356:	d00b      	beq.n	8008370 <__lo0bits+0x22>
 8008358:	07d9      	lsls	r1, r3, #31
 800835a:	d421      	bmi.n	80083a0 <__lo0bits+0x52>
 800835c:	0798      	lsls	r0, r3, #30
 800835e:	bf49      	itett	mi
 8008360:	085b      	lsrmi	r3, r3, #1
 8008362:	089b      	lsrpl	r3, r3, #2
 8008364:	2001      	movmi	r0, #1
 8008366:	6013      	strmi	r3, [r2, #0]
 8008368:	bf5c      	itt	pl
 800836a:	2002      	movpl	r0, #2
 800836c:	6013      	strpl	r3, [r2, #0]
 800836e:	4770      	bx	lr
 8008370:	b299      	uxth	r1, r3
 8008372:	b909      	cbnz	r1, 8008378 <__lo0bits+0x2a>
 8008374:	2010      	movs	r0, #16
 8008376:	0c1b      	lsrs	r3, r3, #16
 8008378:	b2d9      	uxtb	r1, r3
 800837a:	b909      	cbnz	r1, 8008380 <__lo0bits+0x32>
 800837c:	3008      	adds	r0, #8
 800837e:	0a1b      	lsrs	r3, r3, #8
 8008380:	0719      	lsls	r1, r3, #28
 8008382:	bf04      	itt	eq
 8008384:	091b      	lsreq	r3, r3, #4
 8008386:	3004      	addeq	r0, #4
 8008388:	0799      	lsls	r1, r3, #30
 800838a:	bf04      	itt	eq
 800838c:	089b      	lsreq	r3, r3, #2
 800838e:	3002      	addeq	r0, #2
 8008390:	07d9      	lsls	r1, r3, #31
 8008392:	d403      	bmi.n	800839c <__lo0bits+0x4e>
 8008394:	085b      	lsrs	r3, r3, #1
 8008396:	f100 0001 	add.w	r0, r0, #1
 800839a:	d003      	beq.n	80083a4 <__lo0bits+0x56>
 800839c:	6013      	str	r3, [r2, #0]
 800839e:	4770      	bx	lr
 80083a0:	2000      	movs	r0, #0
 80083a2:	4770      	bx	lr
 80083a4:	2020      	movs	r0, #32
 80083a6:	4770      	bx	lr

080083a8 <__i2b>:
 80083a8:	b510      	push	{r4, lr}
 80083aa:	460c      	mov	r4, r1
 80083ac:	2101      	movs	r1, #1
 80083ae:	f7ff febd 	bl	800812c <_Balloc>
 80083b2:	4602      	mov	r2, r0
 80083b4:	b928      	cbnz	r0, 80083c2 <__i2b+0x1a>
 80083b6:	f240 1145 	movw	r1, #325	@ 0x145
 80083ba:	4b04      	ldr	r3, [pc, #16]	@ (80083cc <__i2b+0x24>)
 80083bc:	4804      	ldr	r0, [pc, #16]	@ (80083d0 <__i2b+0x28>)
 80083be:	f7fd fc5b 	bl	8005c78 <__assert_func>
 80083c2:	2301      	movs	r3, #1
 80083c4:	6144      	str	r4, [r0, #20]
 80083c6:	6103      	str	r3, [r0, #16]
 80083c8:	bd10      	pop	{r4, pc}
 80083ca:	bf00      	nop
 80083cc:	08009cd2 	.word	0x08009cd2
 80083d0:	08009d43 	.word	0x08009d43

080083d4 <__multiply>:
 80083d4:	e92d 4ff0 	stmdb	sp!, {r4, r5, r6, r7, r8, r9, sl, fp, lr}
 80083d8:	4617      	mov	r7, r2
 80083da:	690a      	ldr	r2, [r1, #16]
 80083dc:	693b      	ldr	r3, [r7, #16]
 80083de:	4689      	mov	r9, r1
 80083e0:	429a      	cmp	r2, r3
 80083e2:	bfa2      	ittt	ge
 80083e4:	463b      	movge	r3, r7
 80083e6:	460f      	movge	r7, r1
 80083e8:	4699      	movge	r9, r3
 80083ea:	693d      	ldr	r5, [r7, #16]
 80083ec:	f8d9 a010 	ldr.w	sl, [r9, #16]
 80083f0:	68bb      	ldr	r3, [r7, #8]
 80083f2:	6879      	ldr	r1, [r7, #4]
 80083f4:	eb05 060a 	add.w	r6, r5, sl
 80083f8:	42b3      	cmp	r3, r6
 80083fa:	b085      	sub	sp, #20
 80083fc:	bfb8      	it	lt
 80083fe:	3101      	addlt	r1, #1
 8008400:	f7ff fe94 	bl	800812c <_Balloc>
 8008404:	b930      	cbnz	r0, 8008414 <__multiply+0x40>
 8008406:	4602      	mov	r2, r0
 8008408:	f44f 71b1 	mov.w	r1, #354	@ 0x162
 800840c:	4b40      	ldr	r3, [pc, #256]	@ (8008510 <__multiply+0x13c>)
 800840e:	4841      	ldr	r0, [pc, #260]	@ (8008514 <__multiply+0x140>)
 8008410:	f7fd fc32 	bl	8005c78 <__assert_func>
 8008414:	f100 0414 	add.w	r4, r0, #20
 8008418:	4623      	mov	r3, r4
 800841a:	2200      	movs	r2, #0
 800841c:	eb04 0e86 	add.w	lr, r4, r6, lsl #2
 8008420:	4573      	cmp	r3, lr
 8008422:	d320      	bcc.n	8008466 <__multiply+0x92>
 8008424:	f107 0814 	add.w	r8, r7, #20
 8008428:	f109 0114 	add.w	r1, r9, #20
 800842c:	eb08 0585 	add.w	r5, r8, r5, lsl #2
 8008430:	eb01 038a 	add.w	r3, r1, sl, lsl #2
 8008434:	9302      	str	r3, [sp, #8]
 8008436:	1beb      	subs	r3, r5, r7
 8008438:	3b15      	subs	r3, #21
 800843a:	f023 0303 	bic.w	r3, r3, #3
 800843e:	3304      	adds	r3, #4
 8008440:	3715      	adds	r7, #21
 8008442:	42bd      	cmp	r5, r7
 8008444:	bf38      	it	cc
 8008446:	2304      	movcc	r3, #4
 8008448:	9301      	str	r3, [sp, #4]
 800844a:	9b02      	ldr	r3, [sp, #8]
 800844c:	9103      	str	r1, [sp, #12]
 800844e:	428b      	cmp	r3, r1
 8008450:	d80c      	bhi.n	800846c <__multiply+0x98>
 8008452:	2e00      	cmp	r6, #0
 8008454:	dd03      	ble.n	800845e <__multiply+0x8a>
 8008456:	f85e 3d04 	ldr.w	r3, [lr, #-4]!
 800845a:	2b00      	cmp	r3, #0
 800845c:	d055      	beq.n	800850a <__multiply+0x136>
 800845e:	6106      	str	r6, [r0, #16]
 8008460:	b005      	add	sp, #20
 8008462:	e8bd 8ff0 	ldmia.w	sp!, {r4, r5, r6, r7, r8, r9, sl, fp, pc}
 8008466:	f843 2b04 	str.w	r2, [r3], #4
 800846a:	e7d9      	b.n	8008420 <__multiply+0x4c>
 800846c:	f8b1 a000 	ldrh.w	sl, [r1]
 8008470:	f1ba 0f00 	cmp.w	sl, #0
 8008474:	d01f      	beq.n	80084b6 <__multiply+0xe2>
 8008476:	46c4      	mov	ip, r8
 8008478:	46a1      	mov	r9, r4
 800847a:	2700      	movs	r7, #0
 800847c:	f85c 2b04 	ldr.w	r2, [ip], #4
 8008480:	f8d9 3000 	ldr.w	r3, [r9]
 8008484:	fa1f fb82 	uxth.w	fp, r2
 8008488:	b29b      	uxth	r3, r3
 800848a:	fb0a 330b 	mla	r3, sl, fp, r3
 800848e:	443b      	add	r3, r7
 8008490:	f8d9 7000 	ldr.w	r7, [r9]
 8008494:	0c12      	lsrs	r2, r2, #16
 8008496:	0c3f      	lsrs	r7, r7, #16
 8008498:	fb0a 7202 	mla	r2, sl, r2, r7
 800849c:	eb02 4213 	add.w	r2, r2, r3, lsr #16
 80084a0:	b29b      	uxth	r3, r3
 80084a2:	ea43 4302 	orr.w	r3, r3, r2, lsl #16
 80084a6:	4565      	cmp	r5, ip
 80084a8:	ea4f 4712 	mov.w	r7, r2, lsr #16
 80084ac:	f849 3b04 	str.w	r3, [r9], #4
 80084b0:	d8e4      	bhi.n	800847c <__multiply+0xa8>
 80084b2:	9b01      	ldr	r3, [sp, #4]
 80084b4:	50e7      	str	r7, [r4, r3]
 80084b6:	9b03      	ldr	r3, [sp, #12]
 80084b8:	3104      	adds	r1, #4
 80084ba:	f8b3 9002 	ldrh.w	r9, [r3, #2]
 80084be:	f1b9 0f00 	cmp.w	r9, #0
 80084c2:	d020      	beq.n	8008506 <__multiply+0x132>
 80084c4:	4647      	mov	r7, r8
 80084c6:	46a4      	mov	ip, r4
 80084c8:	f04f 0a00 	mov.w	sl, #0
 80084cc:	6823      	ldr	r3, [r4, #0]
 80084ce:	f8b7 b000 	ldrh.w	fp, [r7]
 80084d2:	f8bc 2002 	ldrh.w	r2, [ip, #2]
 80084d6:	b29b      	uxth	r3, r3
 80084d8:	fb09 220b 	mla	r2, r9, fp, r2
 80084dc:	4452      	add	r2, sl
 80084de:	ea43 4302 	orr.w	r3, r3, r2, lsl #16
 80084e2:	f84c 3b04 	str.w	r3, [ip], #4
 80084e6:	f857 3b04 	ldr.w	r3, [r7], #4
 80084ea:	ea4f 4a13 	mov.w	sl, r3, lsr #16
 80084ee:	f8bc 3000 	ldrh.w	r3, [ip]
 80084f2:	42bd      	cmp	r5, r7
 80084f4:	fb09 330a 	mla	r3, r9, sl, r3
 80084f8:	eb03 4312 	add.w	r3, r3, r2, lsr #16
 80084fc:	ea4f 4a13 	mov.w	sl, r3, lsr #16
 8008500:	d8e5      	bhi.n	80084ce <__multiply+0xfa>
 8008502:	9a01      	ldr	r2, [sp, #4]
 8008504:	50a3      	str	r3, [r4, r2]
 8008506:	3404      	adds	r4, #4
 8008508:	e79f      	b.n	800844a <__multiply+0x76>
 800850a:	3e01      	subs	r6, #1
 800850c:	e7a1      	b.n	8008452 <__multiply+0x7e>
 800850e:	bf00      	nop
 8008510:	08009cd2 	.word	0x08009cd2
 8008514:	08009d43 	.word	0x08009d43

08008518 <__pow5mult>:
 8008518:	e92d 43f8 	stmdb	sp!, {r3, r4, r5, r6, r7, r8, r9, lr}
 800851c:	4615      	mov	r5, r2
 800851e:	f012 0203 	ands.w	r2, r2, #3
 8008522:	4607      	mov	r7, r0
 8008524:	460e      	mov	r6, r1
 8008526:	d007      	beq.n	8008538 <__pow5mult+0x20>
 8008528:	4c25      	ldr	r4, [pc, #148]	@ (80085c0 <__pow5mult+0xa8>)
 800852a:	3a01      	subs	r2, #1
 800852c:	2300      	movs	r3, #0
 800852e:	f854 2022 	ldr.w	r2, [r4, r2, lsl #2]
 8008532:	f7ff fe5d 	bl	80081f0 <__multadd>
 8008536:	4606      	mov	r6, r0
 8008538:	10ad      	asrs	r5, r5, #2
 800853a:	d03d      	beq.n	80085b8 <__pow5mult+0xa0>
 800853c:	69fc      	ldr	r4, [r7, #28]
 800853e:	b97c      	cbnz	r4, 8008560 <__pow5mult+0x48>
 8008540:	2010      	movs	r0, #16
 8008542:	f7fd fbff 	bl	8005d44 <malloc>
 8008546:	4602      	mov	r2, r0
 8008548:	61f8      	str	r0, [r7, #28]
 800854a:	b928      	cbnz	r0, 8008558 <__pow5mult+0x40>
 800854c:	f240 11b3 	movw	r1, #435	@ 0x1b3
 8008550:	4b1c      	ldr	r3, [pc, #112]	@ (80085c4 <__pow5mult+0xac>)
 8008552:	481d      	ldr	r0, [pc, #116]	@ (80085c8 <__pow5mult+0xb0>)
 8008554:	f7fd fb90 	bl	8005c78 <__assert_func>
 8008558:	e9c0 4401 	strd	r4, r4, [r0, #4]
 800855c:	6004      	str	r4, [r0, #0]
 800855e:	60c4      	str	r4, [r0, #12]
 8008560:	f8d7 801c 	ldr.w	r8, [r7, #28]
 8008564:	f8d8 4008 	ldr.w	r4, [r8, #8]
 8008568:	b94c      	cbnz	r4, 800857e <__pow5mult+0x66>
 800856a:	f240 2171 	movw	r1, #625	@ 0x271
 800856e:	4638      	mov	r0, r7
 8008570:	f7ff ff1a 	bl	80083a8 <__i2b>
 8008574:	2300      	movs	r3, #0
 8008576:	4604      	mov	r4, r0
 8008578:	f8c8 0008 	str.w	r0, [r8, #8]
 800857c:	6003      	str	r3, [r0, #0]
 800857e:	f04f 0900 	mov.w	r9, #0
 8008582:	07eb      	lsls	r3, r5, #31
 8008584:	d50a      	bpl.n	800859c <__pow5mult+0x84>
 8008586:	4631      	mov	r1, r6
 8008588:	4622      	mov	r2, r4
 800858a:	4638      	mov	r0, r7
 800858c:	f7ff ff22 	bl	80083d4 <__multiply>
 8008590:	4680      	mov	r8, r0
 8008592:	4631      	mov	r1, r6
 8008594:	4638      	mov	r0, r7
 8008596:	f7ff fe09 	bl	80081ac <_Bfree>
 800859a:	4646      	mov	r6, r8
 800859c:	106d      	asrs	r5, r5, #1
 800859e:	d00b      	beq.n	80085b8 <__pow5mult+0xa0>
 80085a0:	6820      	ldr	r0, [r4, #0]
 80085a2:	b938      	cbnz	r0, 80085b4 <__pow5mult+0x9c>
 80085a4:	4622      	mov	r2, r4
 80085a6:	4621      	mov	r1, r4
 80085a8:	4638      	mov	r0, r7
 80085aa:	f7ff ff13 	bl	80083d4 <__multiply>
 80085ae:	6020      	str	r0, [r4, #0]
 80085b0:	f8c0 9000 	str.w	r9, [r0]
 80085b4:	4604      	mov	r4, r0
 80085b6:	e7e4      	b.n	8008582 <__pow5mult+0x6a>
 80085b8:	4630      	mov	r0, r6
 80085ba:	e8bd 83f8 	ldmia.w	sp!, {r3, r4, r5, r6, r7, r8, r9, pc}
 80085be:	bf00      	nop
 80085c0:	08009f64 	.word	0x08009f64
 80085c4:	08009bc1 	.word	0x08009bc1
 80085c8:	08009d43 	.word	0x08009d43

080085cc <__lshift>:
 80085cc:	e92d 47f0 	stmdb	sp!, {r4, r5, r6, r7, r8, r9, sl, lr}
 80085d0:	460c      	mov	r4, r1
 80085d2:	4607      	mov	r7, r0
 80085d4:	4691      	mov	r9, r2
 80085d6:	6923      	ldr	r3, [r4, #16]
 80085d8:	6849      	ldr	r1, [r1, #4]
 80085da:	eb03 1862 	add.w	r8, r3, r2, asr #5
 80085de:	68a3      	ldr	r3, [r4, #8]
 80085e0:	ea4f 1a62 	mov.w	sl, r2, asr #5
 80085e4:	f108 0601 	add.w	r6, r8, #1
 80085e8:	42b3      	cmp	r3, r6
 80085ea:	db0b      	blt.n	8008604 <__lshift+0x38>
 80085ec:	4638      	mov	r0, r7
 80085ee:	f7ff fd9d 	bl	800812c <_Balloc>
 80085f2:	4605      	mov	r5, r0
 80085f4:	b948      	cbnz	r0, 800860a <__lshift+0x3e>
 80085f6:	4602      	mov	r2, r0
 80085f8:	f44f 71ef 	mov.w	r1, #478	@ 0x1de
 80085fc:	4b27      	ldr	r3, [pc, #156]	@ (800869c <__lshift+0xd0>)
 80085fe:	4828      	ldr	r0, [pc, #160]	@ (80086a0 <__lshift+0xd4>)
 8008600:	f7fd fb3a 	bl	8005c78 <__assert_func>
 8008604:	3101      	adds	r1, #1
 8008606:	005b      	lsls	r3, r3, #1
 8008608:	e7ee      	b.n	80085e8 <__lshift+0x1c>
 800860a:	2300      	movs	r3, #0
 800860c:	f100 0114 	add.w	r1, r0, #20
 8008610:	f100 0210 	add.w	r2, r0, #16
 8008614:	4618      	mov	r0, r3
 8008616:	4553      	cmp	r3, sl
 8008618:	db33      	blt.n	8008682 <__lshift+0xb6>
 800861a:	6920      	ldr	r0, [r4, #16]
 800861c:	ea2a 7aea 	bic.w	sl, sl, sl, asr #31
 8008620:	f104 0314 	add.w	r3, r4, #20
 8008624:	f019 091f 	ands.w	r9, r9, #31
 8008628:	eb01 018a 	add.w	r1, r1, sl, lsl #2
 800862c:	eb03 0c80 	add.w	ip, r3, r0, lsl #2
 8008630:	d02b      	beq.n	800868a <__lshift+0xbe>
 8008632:	468a      	mov	sl, r1
 8008634:	2200      	movs	r2, #0
 8008636:	f1c9 0e20 	rsb	lr, r9, #32
 800863a:	6818      	ldr	r0, [r3, #0]
 800863c:	fa00 f009 	lsl.w	r0, r0, r9
 8008640:	4310      	orrs	r0, r2
 8008642:	f84a 0b04 	str.w	r0, [sl], #4
 8008646:	f853 2b04 	ldr.w	r2, [r3], #4
 800864a:	459c      	cmp	ip, r3
 800864c:	fa22 f20e 	lsr.w	r2, r2, lr
 8008650:	d8f3      	bhi.n	800863a <__lshift+0x6e>
 8008652:	ebac 0304 	sub.w	r3, ip, r4
 8008656:	3b15      	subs	r3, #21
 8008658:	f023 0303 	bic.w	r3, r3, #3
 800865c:	3304      	adds	r3, #4
 800865e:	f104 0015 	add.w	r0, r4, #21
 8008662:	4560      	cmp	r0, ip
 8008664:	bf88      	it	hi
 8008666:	2304      	movhi	r3, #4
 8008668:	50ca      	str	r2, [r1, r3]
 800866a:	b10a      	cbz	r2, 8008670 <__lshift+0xa4>
 800866c:	f108 0602 	add.w	r6, r8, #2
 8008670:	3e01      	subs	r6, #1
 8008672:	4638      	mov	r0, r7
 8008674:	4621      	mov	r1, r4
 8008676:	612e      	str	r6, [r5, #16]
 8008678:	f7ff fd98 	bl	80081ac <_Bfree>
 800867c:	4628      	mov	r0, r5
 800867e:	e8bd 87f0 	ldmia.w	sp!, {r4, r5, r6, r7, r8, r9, sl, pc}
 8008682:	f842 0f04 	str.w	r0, [r2, #4]!
 8008686:	3301      	adds	r3, #1
 8008688:	e7c5      	b.n	8008616 <__lshift+0x4a>
 800868a:	3904      	subs	r1, #4
 800868c:	f853 2b04 	ldr.w	r2, [r3], #4
 8008690:	459c      	cmp	ip, r3
 8008692:	f841 2f04 	str.w	r2, [r1, #4]!
 8008696:	d8f9      	bhi.n	800868c <__lshift+0xc0>
 8008698:	e7ea      	b.n	8008670 <__lshift+0xa4>
 800869a:	bf00      	nop
 800869c:	08009cd2 	.word	0x08009cd2
 80086a0:	08009d43 	.word	0x08009d43

080086a4 <__mcmp>:
 80086a4:	4603      	mov	r3, r0
 80086a6:	690a      	ldr	r2, [r1, #16]
 80086a8:	6900      	ldr	r0, [r0, #16]
 80086aa:	b530      	push	{r4, r5, lr}
 80086ac:	1a80      	subs	r0, r0, r2
 80086ae:	d10e      	bne.n	80086ce <__mcmp+0x2a>
 80086b0:	3314      	adds	r3, #20
 80086b2:	3114      	adds	r1, #20
 80086b4:	eb03 0482 	add.w	r4, r3, r2, lsl #2
 80086b8:	eb01 0182 	add.w	r1, r1, r2, lsl #2
 80086bc:	f854 5d04 	ldr.w	r5, [r4, #-4]!
 80086c0:	f851 2d04 	ldr.w	r2, [r1, #-4]!
 80086c4:	4295      	cmp	r5, r2
 80086c6:	d003      	beq.n	80086d0 <__mcmp+0x2c>
 80086c8:	d205      	bcs.n	80086d6 <__mcmp+0x32>
 80086ca:	f04f 30ff 	mov.w	r0, #4294967295
 80086ce:	bd30      	pop	{r4, r5, pc}
 80086d0:	42a3      	cmp	r3, r4
 80086d2:	d3f3      	bcc.n	80086bc <__mcmp+0x18>
 80086d4:	e7fb      	b.n	80086ce <__mcmp+0x2a>
 80086d6:	2001      	movs	r0, #1
 80086d8:	e7f9      	b.n	80086ce <__mcmp+0x2a>
	...

080086dc <__mdiff>:
 80086dc:	e92d 4ff7 	stmdb	sp!, {r0, r1, r2, r4, r5, r6, r7, r8, r9, sl, fp, lr}
 80086e0:	4689      	mov	r9, r1
 80086e2:	4606      	mov	r6, r0
 80086e4:	4611      	mov	r1, r2
 80086e6:	4648      	mov	r0, r9
 80086e8:	4614      	mov	r4, r2
 80086ea:	f7ff ffdb 	bl	80086a4 <__mcmp>
 80086ee:	1e05      	subs	r5, r0, #0
 80086f0:	d112      	bne.n	8008718 <__mdiff+0x3c>
 80086f2:	4629      	mov	r1, r5
 80086f4:	4630      	mov	r0, r6
 80086f6:	f7ff fd19 	bl	800812c <_Balloc>
 80086fa:	4602      	mov	r2, r0
 80086fc:	b928      	cbnz	r0, 800870a <__mdiff+0x2e>
 80086fe:	f240 2137 	movw	r1, #567	@ 0x237
 8008702:	4b3e      	ldr	r3, [pc, #248]	@ (80087fc <__mdiff+0x120>)
 8008704:	483e      	ldr	r0, [pc, #248]	@ (8008800 <__mdiff+0x124>)
 8008706:	f7fd fab7 	bl	8005c78 <__assert_func>
 800870a:	2301      	movs	r3, #1
 800870c:	e9c0 3504 	strd	r3, r5, [r0, #16]
 8008710:	4610      	mov	r0, r2
 8008712:	b003      	add	sp, #12
 8008714:	e8bd 8ff0 	ldmia.w	sp!, {r4, r5, r6, r7, r8, r9, sl, fp, pc}
 8008718:	bfbc      	itt	lt
 800871a:	464b      	movlt	r3, r9
 800871c:	46a1      	movlt	r9, r4
 800871e:	4630      	mov	r0, r6
 8008720:	f8d9 1004 	ldr.w	r1, [r9, #4]
 8008724:	bfba      	itte	lt
 8008726:	461c      	movlt	r4, r3
 8008728:	2501      	movlt	r5, #1
 800872a:	2500      	movge	r5, #0
 800872c:	f7ff fcfe 	bl	800812c <_Balloc>
 8008730:	4602      	mov	r2, r0
 8008732:	b918      	cbnz	r0, 800873c <__mdiff+0x60>
 8008734:	f240 2145 	movw	r1, #581	@ 0x245
 8008738:	4b30      	ldr	r3, [pc, #192]	@ (80087fc <__mdiff+0x120>)
 800873a:	e7e3      	b.n	8008704 <__mdiff+0x28>
 800873c:	f100 0b14 	add.w	fp, r0, #20
 8008740:	f8d9 7010 	ldr.w	r7, [r9, #16]
 8008744:	f109 0310 	add.w	r3, r9, #16
 8008748:	60c5      	str	r5, [r0, #12]
 800874a:	f04f 0c00 	mov.w	ip, #0
 800874e:	f109 0514 	add.w	r5, r9, #20
 8008752:	46d9      	mov	r9, fp
 8008754:	6926      	ldr	r6, [r4, #16]
 8008756:	f104 0e14 	add.w	lr, r4, #20
 800875a:	eb05 0887 	add.w	r8, r5, r7, lsl #2
 800875e:	eb0e 0686 	add.w	r6, lr, r6, lsl #2
 8008762:	9301      	str	r3, [sp, #4]
 8008764:	9b01      	ldr	r3, [sp, #4]
 8008766:	f85e 0b04 	ldr.w	r0, [lr], #4
 800876a:	f853 af04 	ldr.w	sl, [r3, #4]!
 800876e:	b281      	uxth	r1, r0
 8008770:	9301      	str	r3, [sp, #4]
 8008772:	fa1f f38a 	uxth.w	r3, sl
 8008776:	1a5b      	subs	r3, r3, r1
 8008778:	0c00      	lsrs	r0, r0, #16
 800877a:	4463      	add	r3, ip
 800877c:	ebc0 401a 	rsb	r0, r0, sl, lsr #16
 8008780:	eb00 4023 	add.w	r0, r0, r3, asr #16
 8008784:	b29b      	uxth	r3, r3
 8008786:	ea43 4300 	orr.w	r3, r3, r0, lsl #16
 800878a:	4576      	cmp	r6, lr
 800878c:	ea4f 4c20 	mov.w	ip, r0, asr #16
 8008790:	f849 3b04 	str.w	r3, [r9], #4
 8008794:	d8e6      	bhi.n	8008764 <__mdiff+0x88>
 8008796:	1b33      	subs	r3, r6, r4
 8008798:	3b15      	subs	r3, #21
 800879a:	f023 0303 	bic.w	r3, r3, #3
 800879e:	3415      	adds	r4, #21
 80087a0:	3304      	adds	r3, #4
 80087a2:	42a6      	cmp	r6, r4
 80087a4:	bf38      	it	cc
 80087a6:	2304      	movcc	r3, #4
 80087a8:	441d      	add	r5, r3
 80087aa:	445b      	add	r3, fp
 80087ac:	461e      	mov	r6, r3
 80087ae:	462c      	mov	r4, r5
 80087b0:	4544      	cmp	r4, r8
 80087b2:	d30e      	bcc.n	80087d2 <__mdiff+0xf6>
 80087b4:	f108 0103 	add.w	r1, r8, #3
 80087b8:	1b49      	subs	r1, r1, r5
 80087ba:	f021 0103 	bic.w	r1, r1, #3
 80087be:	3d03      	subs	r5, #3
 80087c0:	45a8      	cmp	r8, r5
 80087c2:	bf38      	it	cc
 80087c4:	2100      	movcc	r1, #0
 80087c6:	440b      	add	r3, r1
 80087c8:	f853 1d04 	ldr.w	r1, [r3, #-4]!
 80087cc:	b199      	cbz	r1, 80087f6 <__mdiff+0x11a>
 80087ce:	6117      	str	r7, [r2, #16]
 80087d0:	e79e      	b.n	8008710 <__mdiff+0x34>
 80087d2:	46e6      	mov	lr, ip
 80087d4:	f854 1b04 	ldr.w	r1, [r4], #4
 80087d8:	fa1f fc81 	uxth.w	ip, r1
 80087dc:	44f4      	add	ip, lr
 80087de:	0c08      	lsrs	r0, r1, #16
 80087e0:	4471      	add	r1, lr
 80087e2:	eb00 402c 	add.w	r0, r0, ip, asr #16
 80087e6:	b289      	uxth	r1, r1
 80087e8:	ea41 4100 	orr.w	r1, r1, r0, lsl #16
 80087ec:	ea4f 4c20 	mov.w	ip, r0, asr #16
 80087f0:	f846 1b04 	str.w	r1, [r6], #4
 80087f4:	e7dc      	b.n	80087b0 <__mdiff+0xd4>
 80087f6:	3f01      	subs	r7, #1
 80087f8:	e7e6      	b.n	80087c8 <__mdiff+0xec>
 80087fa:	bf00      	nop
 80087fc:	08009cd2 	.word	0x08009cd2
 8008800:	08009d43 	.word	0x08009d43

08008804 <__ulp>:
 8008804:	4b0e      	ldr	r3, [pc, #56]	@ (8008840 <__ulp+0x3c>)
 8008806:	400b      	ands	r3, r1
 8008808:	f1a3 7350 	sub.w	r3, r3, #54525952	@ 0x3400000
 800880c:	2b00      	cmp	r3, #0
 800880e:	dc08      	bgt.n	8008822 <__ulp+0x1e>
 8008810:	425b      	negs	r3, r3
 8008812:	f1b3 7fa0 	cmp.w	r3, #20971520	@ 0x1400000
 8008816:	ea4f 5223 	mov.w	r2, r3, asr #20
 800881a:	da04      	bge.n	8008826 <__ulp+0x22>
 800881c:	f44f 2300 	mov.w	r3, #524288	@ 0x80000
 8008820:	4113      	asrs	r3, r2
 8008822:	2200      	movs	r2, #0
 8008824:	e008      	b.n	8008838 <__ulp+0x34>
 8008826:	f1a2 0314 	sub.w	r3, r2, #20
 800882a:	2b1e      	cmp	r3, #30
 800882c:	bfd6      	itet	le
 800882e:	f04f 4200 	movle.w	r2, #2147483648	@ 0x80000000
 8008832:	2201      	movgt	r2, #1
 8008834:	40da      	lsrle	r2, r3
 8008836:	2300      	movs	r3, #0
 8008838:	4619      	mov	r1, r3
 800883a:	4610      	mov	r0, r2
 800883c:	4770      	bx	lr
 800883e:	bf00      	nop
 8008840:	7ff00000 	.word	0x7ff00000

08008844 <__b2d>:
 8008844:	6902      	ldr	r2, [r0, #16]
 8008846:	b5f8      	push	{r3, r4, r5, r6, r7, lr}
 8008848:	f100 0614 	add.w	r6, r0, #20
 800884c:	eb06 0282 	add.w	r2, r6, r2, lsl #2
 8008850:	f852 4c04 	ldr.w	r4, [r2, #-4]
 8008854:	4f1e      	ldr	r7, [pc, #120]	@ (80088d0 <__b2d+0x8c>)
 8008856:	4620      	mov	r0, r4
 8008858:	f7ff fd5a 	bl	8008310 <__hi0bits>
 800885c:	4603      	mov	r3, r0
 800885e:	f1c0 0020 	rsb	r0, r0, #32
 8008862:	2b0a      	cmp	r3, #10
 8008864:	f1a2 0504 	sub.w	r5, r2, #4
 8008868:	6008      	str	r0, [r1, #0]
 800886a:	dc12      	bgt.n	8008892 <__b2d+0x4e>
 800886c:	42ae      	cmp	r6, r5
 800886e:	bf2c      	ite	cs
 8008870:	2200      	movcs	r2, #0
 8008872:	f852 2c08 	ldrcc.w	r2, [r2, #-8]
 8008876:	f1c3 0c0b 	rsb	ip, r3, #11
 800887a:	3315      	adds	r3, #21
 800887c:	fa24 fe0c 	lsr.w	lr, r4, ip
 8008880:	fa04 f303 	lsl.w	r3, r4, r3
 8008884:	fa22 f20c 	lsr.w	r2, r2, ip
 8008888:	ea4e 0107 	orr.w	r1, lr, r7
 800888c:	431a      	orrs	r2, r3
 800888e:	4610      	mov	r0, r2
 8008890:	bdf8      	pop	{r3, r4, r5, r6, r7, pc}
 8008892:	42ae      	cmp	r6, r5
 8008894:	bf36      	itet	cc
 8008896:	f1a2 0508 	subcc.w	r5, r2, #8
 800889a:	2200      	movcs	r2, #0
 800889c:	f852 2c08 	ldrcc.w	r2, [r2, #-8]
 80088a0:	3b0b      	subs	r3, #11
 80088a2:	d012      	beq.n	80088ca <__b2d+0x86>
 80088a4:	f1c3 0720 	rsb	r7, r3, #32
 80088a8:	fa22 f107 	lsr.w	r1, r2, r7
 80088ac:	409c      	lsls	r4, r3
 80088ae:	430c      	orrs	r4, r1
 80088b0:	42b5      	cmp	r5, r6
 80088b2:	f044 517f 	orr.w	r1, r4, #1069547520	@ 0x3fc00000
 80088b6:	bf94      	ite	ls
 80088b8:	2400      	movls	r4, #0
 80088ba:	f855 4c04 	ldrhi.w	r4, [r5, #-4]
 80088be:	409a      	lsls	r2, r3
 80088c0:	40fc      	lsrs	r4, r7
 80088c2:	f441 1140 	orr.w	r1, r1, #3145728	@ 0x300000
 80088c6:	4322      	orrs	r2, r4
 80088c8:	e7e1      	b.n	800888e <__b2d+0x4a>
 80088ca:	ea44 0107 	orr.w	r1, r4, r7
 80088ce:	e7de      	b.n	800888e <__b2d+0x4a>
 80088d0:	3ff00000 	.word	0x3ff00000

080088d4 <__d2b>:
 80088d4:	e92d 4373 	stmdb	sp!, {r0, r1, r4, r5, r6, r8, r9, lr}
 80088d8:	2101      	movs	r1, #1
 80088da:	4690      	mov	r8, r2
 80088dc:	4699      	mov	r9, r3
 80088de:	9e08      	ldr	r6, [sp, #32]
 80088e0:	f7ff fc24 	bl	800812c <_Balloc>
 80088e4:	4604      	mov	r4, r0
 80088e6:	b930      	cbnz	r0, 80088f6 <__d2b+0x22>
 80088e8:	4602      	mov	r2, r0
 80088ea:	f240 310f 	movw	r1, #783	@ 0x30f
 80088ee:	4b23      	ldr	r3, [pc, #140]	@ (800897c <__d2b+0xa8>)
 80088f0:	4823      	ldr	r0, [pc, #140]	@ (8008980 <__d2b+0xac>)
 80088f2:	f7fd f9c1 	bl	8005c78 <__assert_func>
 80088f6:	f3c9 550a 	ubfx	r5, r9, #20, #11
 80088fa:	f3c9 0313 	ubfx	r3, r9, #0, #20
 80088fe:	b10d      	cbz	r5, 8008904 <__d2b+0x30>
 8008900:	f443 1380 	orr.w	r3, r3, #1048576	@ 0x100000
 8008904:	9301      	str	r3, [sp, #4]
 8008906:	f1b8 0300 	subs.w	r3, r8, #0
 800890a:	d024      	beq.n	8008956 <__d2b+0x82>
 800890c:	4668      	mov	r0, sp
 800890e:	9300      	str	r3, [sp, #0]
 8008910:	f7ff fd1d 	bl	800834e <__lo0bits>
 8008914:	e9dd 1200 	ldrd	r1, r2, [sp]
 8008918:	b1d8      	cbz	r0, 8008952 <__d2b+0x7e>
 800891a:	f1c0 0320 	rsb	r3, r0, #32
 800891e:	fa02 f303 	lsl.w	r3, r2, r3
 8008922:	430b      	orrs	r3, r1
 8008924:	40c2      	lsrs	r2, r0
 8008926:	6163      	str	r3, [r4, #20]
 8008928:	9201      	str	r2, [sp, #4]
 800892a:	9b01      	ldr	r3, [sp, #4]
 800892c:	2b00      	cmp	r3, #0
 800892e:	bf0c      	ite	eq
 8008930:	2201      	moveq	r2, #1
 8008932:	2202      	movne	r2, #2
 8008934:	61a3      	str	r3, [r4, #24]
 8008936:	6122      	str	r2, [r4, #16]
 8008938:	b1ad      	cbz	r5, 8008966 <__d2b+0x92>
 800893a:	f2a5 4533 	subw	r5, r5, #1075	@ 0x433
 800893e:	4405      	add	r5, r0
 8008940:	6035      	str	r5, [r6, #0]
 8008942:	f1c0 0035 	rsb	r0, r0, #53	@ 0x35
 8008946:	9b09      	ldr	r3, [sp, #36]	@ 0x24
 8008948:	6018      	str	r0, [r3, #0]
 800894a:	4620      	mov	r0, r4
 800894c:	b002      	add	sp, #8
 800894e:	e8bd 8370 	ldmia.w	sp!, {r4, r5, r6, r8, r9, pc}
 8008952:	6161      	str	r1, [r4, #20]
 8008954:	e7e9      	b.n	800892a <__d2b+0x56>
 8008956:	a801      	add	r0, sp, #4
 8008958:	f7ff fcf9 	bl	800834e <__lo0bits>
 800895c:	9b01      	ldr	r3, [sp, #4]
 800895e:	2201      	movs	r2, #1
 8008960:	6163      	str	r3, [r4, #20]
 8008962:	3020      	adds	r0, #32
 8008964:	e7e7      	b.n	8008936 <__d2b+0x62>
 8008966:	f2a0 4032 	subw	r0, r0, #1074	@ 0x432
 800896a:	eb04 0382 	add.w	r3, r4, r2, lsl #2
 800896e:	6030      	str	r0, [r6, #0]
 8008970:	6918      	ldr	r0, [r3, #16]
 8008972:	f7ff fccd 	bl	8008310 <__hi0bits>
 8008976:	ebc0 1042 	rsb	r0, r0, r2, lsl #5
 800897a:	e7e4      	b.n	8008946 <__d2b+0x72>
 800897c:	08009cd2 	.word	0x08009cd2
 8008980:	08009d43 	.word	0x08009d43

08008984 <__ratio>:
 8008984:	e92d 4ff0 	stmdb	sp!, {r4, r5, r6, r7, r8, r9, sl, fp, lr}
 8008988:	b085      	sub	sp, #20
 800898a:	e9cd 1000 	strd	r1, r0, [sp]
 800898e:	a902      	add	r1, sp, #8
 8008990:	f7ff ff58 	bl	8008844 <__b2d>
 8008994:	468b      	mov	fp, r1
 8008996:	4606      	mov	r6, r0
 8008998:	460f      	mov	r7, r1
 800899a:	9800      	ldr	r0, [sp, #0]
 800899c:	a903      	add	r1, sp, #12
 800899e:	f7ff ff51 	bl	8008844 <__b2d>
 80089a2:	460d      	mov	r5, r1
 80089a4:	9b01      	ldr	r3, [sp, #4]
 80089a6:	4689      	mov	r9, r1
 80089a8:	6919      	ldr	r1, [r3, #16]
 80089aa:	9b00      	ldr	r3, [sp, #0]
 80089ac:	4604      	mov	r4, r0
 80089ae:	691b      	ldr	r3, [r3, #16]
 80089b0:	4630      	mov	r0, r6
 80089b2:	1ac9      	subs	r1, r1, r3
 80089b4:	e9dd 3202 	ldrd	r3, r2, [sp, #8]
 80089b8:	1a9b      	subs	r3, r3, r2
 80089ba:	eb03 1341 	add.w	r3, r3, r1, lsl #5
 80089be:	2b00      	cmp	r3, #0
 80089c0:	bfcd      	iteet	gt
 80089c2:	463a      	movgt	r2, r7
 80089c4:	462a      	movle	r2, r5
 80089c6:	ebc3 3303 	rsble	r3, r3, r3, lsl #12
 80089ca:	eb02 5b03 	addgt.w	fp, r2, r3, lsl #20
 80089ce:	bfd8      	it	le
 80089d0:	eb02 5903 	addle.w	r9, r2, r3, lsl #20
 80089d4:	464b      	mov	r3, r9
 80089d6:	4622      	mov	r2, r4
 80089d8:	4659      	mov	r1, fp
 80089da:	f7f7 feb1 	bl	8000740 <__aeabi_ddiv>
 80089de:	b005      	add	sp, #20
 80089e0:	e8bd 8ff0 	ldmia.w	sp!, {r4, r5, r6, r7, r8, r9, sl, fp, pc}

080089e4 <__copybits>:
 80089e4:	3901      	subs	r1, #1
 80089e6:	b570      	push	{r4, r5, r6, lr}
 80089e8:	1149      	asrs	r1, r1, #5
 80089ea:	6914      	ldr	r4, [r2, #16]
 80089ec:	3101      	adds	r1, #1
 80089ee:	f102 0314 	add.w	r3, r2, #20
 80089f2:	eb00 0181 	add.w	r1, r0, r1, lsl #2
 80089f6:	eb03 0484 	add.w	r4, r3, r4, lsl #2
 80089fa:	1f05      	subs	r5, r0, #4
 80089fc:	42a3      	cmp	r3, r4
 80089fe:	d30c      	bcc.n	8008a1a <__copybits+0x36>
 8008a00:	1aa3      	subs	r3, r4, r2
 8008a02:	3b11      	subs	r3, #17
 8008a04:	f023 0303 	bic.w	r3, r3, #3
 8008a08:	3211      	adds	r2, #17
 8008a0a:	42a2      	cmp	r2, r4
 8008a0c:	bf88      	it	hi
 8008a0e:	2300      	movhi	r3, #0
 8008a10:	4418      	add	r0, r3
 8008a12:	2300      	movs	r3, #0
 8008a14:	4288      	cmp	r0, r1
 8008a16:	d305      	bcc.n	8008a24 <__copybits+0x40>
 8008a18:	bd70      	pop	{r4, r5, r6, pc}
 8008a1a:	f853 6b04 	ldr.w	r6, [r3], #4
 8008a1e:	f845 6f04 	str.w	r6, [r5, #4]!
 8008a22:	e7eb      	b.n	80089fc <__copybits+0x18>
 8008a24:	f840 3b04 	str.w	r3, [r0], #4
 8008a28:	e7f4      	b.n	8008a14 <__copybits+0x30>

08008a2a <__any_on>:
 8008a2a:	f100 0214 	add.w	r2, r0, #20
 8008a2e:	6900      	ldr	r0, [r0, #16]
 8008a30:	114b      	asrs	r3, r1, #5
 8008a32:	4298      	cmp	r0, r3
 8008a34:	b510      	push	{r4, lr}
 8008a36:	db11      	blt.n	8008a5c <__any_on+0x32>
 8008a38:	dd0a      	ble.n	8008a50 <__any_on+0x26>
 8008a3a:	f011 011f 	ands.w	r1, r1, #31
 8008a3e:	d007      	beq.n	8008a50 <__any_on+0x26>
 8008a40:	f852 4023 	ldr.w	r4, [r2, r3, lsl #2]
 8008a44:	fa24 f001 	lsr.w	r0, r4, r1
 8008a48:	fa00 f101 	lsl.w	r1, r0, r1
 8008a4c:	428c      	cmp	r4, r1
 8008a4e:	d10b      	bne.n	8008a68 <__any_on+0x3e>
 8008a50:	eb02 0383 	add.w	r3, r2, r3, lsl #2
 8008a54:	4293      	cmp	r3, r2
 8008a56:	d803      	bhi.n	8008a60 <__any_on+0x36>
 8008a58:	2000      	movs	r0, #0
 8008a5a:	bd10      	pop	{r4, pc}
 8008a5c:	4603      	mov	r3, r0
 8008a5e:	e7f7      	b.n	8008a50 <__any_on+0x26>
 8008a60:	f853 1d04 	ldr.w	r1, [r3, #-4]!
 8008a64:	2900      	cmp	r1, #0
 8008a66:	d0f5      	beq.n	8008a54 <__any_on+0x2a>
 8008a68:	2001      	movs	r0, #1
 8008a6a:	e7f6      	b.n	8008a5a <__any_on+0x30>

08008a6c <_realloc_r>:
 8008a6c:	e92d 41f0 	stmdb	sp!, {r4, r5, r6, r7, r8, lr}
 8008a70:	4607      	mov	r7, r0
 8008a72:	4614      	mov	r4, r2
 8008a74:	460d      	mov	r5, r1
 8008a76:	b921      	cbnz	r1, 8008a82 <_realloc_r+0x16>
 8008a78:	4611      	mov	r1, r2
 8008a7a:	e8bd 41f0 	ldmia.w	sp!, {r4, r5, r6, r7, r8, lr}
 8008a7e:	f7fd b98b 	b.w	8005d98 <_malloc_r>
 8008a82:	b92a      	cbnz	r2, 8008a90 <_realloc_r+0x24>
 8008a84:	f7fd f916 	bl	8005cb4 <_free_r>
 8008a88:	4625      	mov	r5, r4
 8008a8a:	4628      	mov	r0, r5
 8008a8c:	e8bd 81f0 	ldmia.w	sp!, {r4, r5, r6, r7, r8, pc}
 8008a90:	f000 fac2 	bl	8009018 <_malloc_usable_size_r>
 8008a94:	4284      	cmp	r4, r0
 8008a96:	4606      	mov	r6, r0
 8008a98:	d802      	bhi.n	8008aa0 <_realloc_r+0x34>
 8008a9a:	ebb4 0f50 	cmp.w	r4, r0, lsr #1
 8008a9e:	d8f4      	bhi.n	8008a8a <_realloc_r+0x1e>
 8008aa0:	4621      	mov	r1, r4
 8008aa2:	4638      	mov	r0, r7
 8008aa4:	f7fd f978 	bl	8005d98 <_malloc_r>
 8008aa8:	4680      	mov	r8, r0
 8008aaa:	b908      	cbnz	r0, 8008ab0 <_realloc_r+0x44>
 8008aac:	4645      	mov	r5, r8
 8008aae:	e7ec      	b.n	8008a8a <_realloc_r+0x1e>
 8008ab0:	42b4      	cmp	r4, r6
 8008ab2:	4622      	mov	r2, r4
 8008ab4:	4629      	mov	r1, r5
 8008ab6:	bf28      	it	cs
 8008ab8:	4632      	movcs	r2, r6
 8008aba:	f7fd f8ca 	bl	8005c52 <memcpy>
 8008abe:	4629      	mov	r1, r5
 8008ac0:	4638      	mov	r0, r7
 8008ac2:	f7fd f8f7 	bl	8005cb4 <_free_r>
 8008ac6:	e7f1      	b.n	8008aac <_realloc_r+0x40>

08008ac8 <_strtoul_l.isra.0>:
 8008ac8:	e92d 43f0 	stmdb	sp!, {r4, r5, r6, r7, r8, r9, lr}
 8008acc:	4686      	mov	lr, r0
 8008ace:	460d      	mov	r5, r1
 8008ad0:	4e33      	ldr	r6, [pc, #204]	@ (8008ba0 <_strtoul_l.isra.0+0xd8>)
 8008ad2:	4628      	mov	r0, r5
 8008ad4:	f815 4b01 	ldrb.w	r4, [r5], #1
 8008ad8:	5d37      	ldrb	r7, [r6, r4]
 8008ada:	f017 0708 	ands.w	r7, r7, #8
 8008ade:	d1f8      	bne.n	8008ad2 <_strtoul_l.isra.0+0xa>
 8008ae0:	2c2d      	cmp	r4, #45	@ 0x2d
 8008ae2:	d110      	bne.n	8008b06 <_strtoul_l.isra.0+0x3e>
 8008ae4:	2701      	movs	r7, #1
 8008ae6:	782c      	ldrb	r4, [r5, #0]
 8008ae8:	1c85      	adds	r5, r0, #2
 8008aea:	f033 0010 	bics.w	r0, r3, #16
 8008aee:	d115      	bne.n	8008b1c <_strtoul_l.isra.0+0x54>
 8008af0:	2c30      	cmp	r4, #48	@ 0x30
 8008af2:	d10d      	bne.n	8008b10 <_strtoul_l.isra.0+0x48>
 8008af4:	7828      	ldrb	r0, [r5, #0]
 8008af6:	f000 00df 	and.w	r0, r0, #223	@ 0xdf
 8008afa:	2858      	cmp	r0, #88	@ 0x58
 8008afc:	d108      	bne.n	8008b10 <_strtoul_l.isra.0+0x48>
 8008afe:	786c      	ldrb	r4, [r5, #1]
 8008b00:	3502      	adds	r5, #2
 8008b02:	2310      	movs	r3, #16
 8008b04:	e00a      	b.n	8008b1c <_strtoul_l.isra.0+0x54>
 8008b06:	2c2b      	cmp	r4, #43	@ 0x2b
 8008b08:	bf04      	itt	eq
 8008b0a:	782c      	ldrbeq	r4, [r5, #0]
 8008b0c:	1c85      	addeq	r5, r0, #2
 8008b0e:	e7ec      	b.n	8008aea <_strtoul_l.isra.0+0x22>
 8008b10:	2b00      	cmp	r3, #0
 8008b12:	d1f6      	bne.n	8008b02 <_strtoul_l.isra.0+0x3a>
 8008b14:	2c30      	cmp	r4, #48	@ 0x30
 8008b16:	bf14      	ite	ne
 8008b18:	230a      	movne	r3, #10
 8008b1a:	2308      	moveq	r3, #8
 8008b1c:	f04f 38ff 	mov.w	r8, #4294967295
 8008b20:	fbb8 f8f3 	udiv	r8, r8, r3
 8008b24:	2600      	movs	r6, #0
 8008b26:	fb03 f908 	mul.w	r9, r3, r8
 8008b2a:	4630      	mov	r0, r6
 8008b2c:	ea6f 0909 	mvn.w	r9, r9
 8008b30:	f1a4 0c30 	sub.w	ip, r4, #48	@ 0x30
 8008b34:	f1bc 0f09 	cmp.w	ip, #9
 8008b38:	d810      	bhi.n	8008b5c <_strtoul_l.isra.0+0x94>
 8008b3a:	4664      	mov	r4, ip
 8008b3c:	42a3      	cmp	r3, r4
 8008b3e:	dd1e      	ble.n	8008b7e <_strtoul_l.isra.0+0xb6>
 8008b40:	f1b6 3fff 	cmp.w	r6, #4294967295
 8008b44:	d007      	beq.n	8008b56 <_strtoul_l.isra.0+0x8e>
 8008b46:	4580      	cmp	r8, r0
 8008b48:	d316      	bcc.n	8008b78 <_strtoul_l.isra.0+0xb0>
 8008b4a:	d101      	bne.n	8008b50 <_strtoul_l.isra.0+0x88>
 8008b4c:	45a1      	cmp	r9, r4
 8008b4e:	db13      	blt.n	8008b78 <_strtoul_l.isra.0+0xb0>
 8008b50:	2601      	movs	r6, #1
 8008b52:	fb00 4003 	mla	r0, r0, r3, r4
 8008b56:	f815 4b01 	ldrb.w	r4, [r5], #1
 8008b5a:	e7e9      	b.n	8008b30 <_strtoul_l.isra.0+0x68>
 8008b5c:	f1a4 0c41 	sub.w	ip, r4, #65	@ 0x41
 8008b60:	f1bc 0f19 	cmp.w	ip, #25
 8008b64:	d801      	bhi.n	8008b6a <_strtoul_l.isra.0+0xa2>
 8008b66:	3c37      	subs	r4, #55	@ 0x37
 8008b68:	e7e8      	b.n	8008b3c <_strtoul_l.isra.0+0x74>
 8008b6a:	f1a4 0c61 	sub.w	ip, r4, #97	@ 0x61
 8008b6e:	f1bc 0f19 	cmp.w	ip, #25
 8008b72:	d804      	bhi.n	8008b7e <_strtoul_l.isra.0+0xb6>
 8008b74:	3c57      	subs	r4, #87	@ 0x57
 8008b76:	e7e1      	b.n	8008b3c <_strtoul_l.isra.0+0x74>
 8008b78:	f04f 36ff 	mov.w	r6, #4294967295
 8008b7c:	e7eb      	b.n	8008b56 <_strtoul_l.isra.0+0x8e>
 8008b7e:	1c73      	adds	r3, r6, #1
 8008b80:	d106      	bne.n	8008b90 <_strtoul_l.isra.0+0xc8>
 8008b82:	2322      	movs	r3, #34	@ 0x22
 8008b84:	4630      	mov	r0, r6
 8008b86:	f8ce 3000 	str.w	r3, [lr]
 8008b8a:	b932      	cbnz	r2, 8008b9a <_strtoul_l.isra.0+0xd2>
 8008b8c:	e8bd 83f0 	ldmia.w	sp!, {r4, r5, r6, r7, r8, r9, pc}
 8008b90:	b107      	cbz	r7, 8008b94 <_strtoul_l.isra.0+0xcc>
 8008b92:	4240      	negs	r0, r0
 8008b94:	2a00      	cmp	r2, #0
 8008b96:	d0f9      	beq.n	8008b8c <_strtoul_l.isra.0+0xc4>
 8008b98:	b106      	cbz	r6, 8008b9c <_strtoul_l.isra.0+0xd4>
 8008b9a:	1e69      	subs	r1, r5, #1
 8008b9c:	6011      	str	r1, [r2, #0]
 8008b9e:	e7f5      	b.n	8008b8c <_strtoul_l.isra.0+0xc4>
 8008ba0:	08009e61 	.word	0x08009e61

08008ba4 <_strtoul_r>:
 8008ba4:	f7ff bf90 	b.w	8008ac8 <_strtoul_l.isra.0>

08008ba8 <__ascii_wctomb>:
 8008ba8:	4603      	mov	r3, r0
 8008baa:	4608      	mov	r0, r1
 8008bac:	b141      	cbz	r1, 8008bc0 <__ascii_wctomb+0x18>
 8008bae:	2aff      	cmp	r2, #255	@ 0xff
 8008bb0:	d904      	bls.n	8008bbc <__ascii_wctomb+0x14>
 8008bb2:	228a      	movs	r2, #138	@ 0x8a
 8008bb4:	f04f 30ff 	mov.w	r0, #4294967295
 8008bb8:	601a      	str	r2, [r3, #0]
 8008bba:	4770      	bx	lr
 8008bbc:	2001      	movs	r0, #1
 8008bbe:	700a      	strb	r2, [r1, #0]
 8008bc0:	4770      	bx	lr

08008bc2 <__sfputc_r>:
 8008bc2:	6893      	ldr	r3, [r2, #8]
 8008bc4:	b410      	push	{r4}
 8008bc6:	3b01      	subs	r3, #1
 8008bc8:	2b00      	cmp	r3, #0
 8008bca:	6093      	str	r3, [r2, #8]
 8008bcc:	da07      	bge.n	8008bde <__sfputc_r+0x1c>
 8008bce:	6994      	ldr	r4, [r2, #24]
 8008bd0:	42a3      	cmp	r3, r4
 8008bd2:	db01      	blt.n	8008bd8 <__sfputc_r+0x16>
 8008bd4:	290a      	cmp	r1, #10
 8008bd6:	d102      	bne.n	8008bde <__sfputc_r+0x1c>
 8008bd8:	bc10      	pop	{r4}
 8008bda:	f000 b931 	b.w	8008e40 <__swbuf_r>
 8008bde:	6813      	ldr	r3, [r2, #0]
 8008be0:	1c58      	adds	r0, r3, #1
 8008be2:	6010      	str	r0, [r2, #0]
 8008be4:	7019      	strb	r1, [r3, #0]
 8008be6:	4608      	mov	r0, r1
 8008be8:	bc10      	pop	{r4}
 8008bea:	4770      	bx	lr

08008bec <__sfputs_r>:
 8008bec:	b5f8      	push	{r3, r4, r5, r6, r7, lr}
 8008bee:	4606      	mov	r6, r0
 8008bf0:	460f      	mov	r7, r1
 8008bf2:	4614      	mov	r4, r2
 8008bf4:	18d5      	adds	r5, r2, r3
 8008bf6:	42ac      	cmp	r4, r5
 8008bf8:	d101      	bne.n	8008bfe <__sfputs_r+0x12>
 8008bfa:	2000      	movs	r0, #0
 8008bfc:	e007      	b.n	8008c0e <__sfputs_r+0x22>
 8008bfe:	463a      	mov	r2, r7
 8008c00:	4630      	mov	r0, r6
 8008c02:	f814 1b01 	ldrb.w	r1, [r4], #1
 8008c06:	f7ff ffdc 	bl	8008bc2 <__sfputc_r>
 8008c0a:	1c43      	adds	r3, r0, #1
 8008c0c:	d1f3      	bne.n	8008bf6 <__sfputs_r+0xa>
 8008c0e:	bdf8      	pop	{r3, r4, r5, r6, r7, pc}

08008c10 <_vfiprintf_r>:
 8008c10:	e92d 4ff0 	stmdb	sp!, {r4, r5, r6, r7, r8, r9, sl, fp, lr}
 8008c14:	460d      	mov	r5, r1
 8008c16:	4614      	mov	r4, r2
 8008c18:	4698      	mov	r8, r3
 8008c1a:	4606      	mov	r6, r0
 8008c1c:	b09d      	sub	sp, #116	@ 0x74
 8008c1e:	b118      	cbz	r0, 8008c28 <_vfiprintf_r+0x18>
 8008c20:	6a03      	ldr	r3, [r0, #32]
 8008c22:	b90b      	cbnz	r3, 8008c28 <_vfiprintf_r+0x18>
 8008c24:	f7fc fdce 	bl	80057c4 <__sinit>
 8008c28:	6e6b      	ldr	r3, [r5, #100]	@ 0x64
 8008c2a:	07d9      	lsls	r1, r3, #31
 8008c2c:	d405      	bmi.n	8008c3a <_vfiprintf_r+0x2a>
 8008c2e:	89ab      	ldrh	r3, [r5, #12]
 8008c30:	059a      	lsls	r2, r3, #22
 8008c32:	d402      	bmi.n	8008c3a <_vfiprintf_r+0x2a>
 8008c34:	6da8      	ldr	r0, [r5, #88]	@ 0x58
 8008c36:	f7fd f80a 	bl	8005c4e <__retarget_lock_acquire_recursive>
 8008c3a:	89ab      	ldrh	r3, [r5, #12]
 8008c3c:	071b      	lsls	r3, r3, #28
 8008c3e:	d501      	bpl.n	8008c44 <_vfiprintf_r+0x34>
 8008c40:	692b      	ldr	r3, [r5, #16]
 8008c42:	b99b      	cbnz	r3, 8008c6c <_vfiprintf_r+0x5c>
 8008c44:	4629      	mov	r1, r5
 8008c46:	4630      	mov	r0, r6
 8008c48:	f000 f938 	bl	8008ebc <__swsetup_r>
 8008c4c:	b170      	cbz	r0, 8008c6c <_vfiprintf_r+0x5c>
 8008c4e:	6e6b      	ldr	r3, [r5, #100]	@ 0x64
 8008c50:	07dc      	lsls	r4, r3, #31
 8008c52:	d504      	bpl.n	8008c5e <_vfiprintf_r+0x4e>
 8008c54:	f04f 30ff 	mov.w	r0, #4294967295
 8008c58:	b01d      	add	sp, #116	@ 0x74
 8008c5a:	e8bd 8ff0 	ldmia.w	sp!, {r4, r5, r6, r7, r8, r9, sl, fp, pc}
 8008c5e:	89ab      	ldrh	r3, [r5, #12]
 8008c60:	0598      	lsls	r0, r3, #22
 8008c62:	d4f7      	bmi.n	8008c54 <_vfiprintf_r+0x44>
 8008c64:	6da8      	ldr	r0, [r5, #88]	@ 0x58
 8008c66:	f7fc fff3 	bl	8005c50 <__retarget_lock_release_recursive>
 8008c6a:	e7f3      	b.n	8008c54 <_vfiprintf_r+0x44>
 8008c6c:	2300      	movs	r3, #0
 8008c6e:	9309      	str	r3, [sp, #36]	@ 0x24
 8008c70:	2320      	movs	r3, #32
 8008c72:	f88d 3029 	strb.w	r3, [sp, #41]	@ 0x29
 8008c76:	2330      	movs	r3, #48	@ 0x30
 8008c78:	f04f 0901 	mov.w	r9, #1
 8008c7c:	f8cd 800c 	str.w	r8, [sp, #12]
 8008c80:	f8df 81a8 	ldr.w	r8, [pc, #424]	@ 8008e2c <_vfiprintf_r+0x21c>
 8008c84:	f88d 302a 	strb.w	r3, [sp, #42]	@ 0x2a
 8008c88:	4623      	mov	r3, r4
 8008c8a:	469a      	mov	sl, r3
 8008c8c:	f813 2b01 	ldrb.w	r2, [r3], #1
 8008c90:	b10a      	cbz	r2, 8008c96 <_vfiprintf_r+0x86>
 8008c92:	2a25      	cmp	r2, #37	@ 0x25
 8008c94:	d1f9      	bne.n	8008c8a <_vfiprintf_r+0x7a>
 8008c96:	ebba 0b04 	subs.w	fp, sl, r4
 8008c9a:	d00b      	beq.n	8008cb4 <_vfiprintf_r+0xa4>
 8008c9c:	465b      	mov	r3, fp
 8008c9e:	4622      	mov	r2, r4
 8008ca0:	4629      	mov	r1, r5
 8008ca2:	4630      	mov	r0, r6
 8008ca4:	f7ff ffa2 	bl	8008bec <__sfputs_r>
 8008ca8:	3001      	adds	r0, #1
 8008caa:	f000 80a7 	beq.w	8008dfc <_vfiprintf_r+0x1ec>
 8008cae:	9a09      	ldr	r2, [sp, #36]	@ 0x24
 8008cb0:	445a      	add	r2, fp
 8008cb2:	9209      	str	r2, [sp, #36]	@ 0x24
 8008cb4:	f89a 3000 	ldrb.w	r3, [sl]
 8008cb8:	2b00      	cmp	r3, #0
 8008cba:	f000 809f 	beq.w	8008dfc <_vfiprintf_r+0x1ec>
 8008cbe:	2300      	movs	r3, #0
 8008cc0:	f04f 32ff 	mov.w	r2, #4294967295
 8008cc4:	e9cd 2305 	strd	r2, r3, [sp, #20]
 8008cc8:	f10a 0a01 	add.w	sl, sl, #1
 8008ccc:	9304      	str	r3, [sp, #16]
 8008cce:	9307      	str	r3, [sp, #28]
 8008cd0:	f88d 3053 	strb.w	r3, [sp, #83]	@ 0x53
 8008cd4:	931a      	str	r3, [sp, #104]	@ 0x68
 8008cd6:	4654      	mov	r4, sl
 8008cd8:	2205      	movs	r2, #5
 8008cda:	f814 1b01 	ldrb.w	r1, [r4], #1
 8008cde:	4853      	ldr	r0, [pc, #332]	@ (8008e2c <_vfiprintf_r+0x21c>)
 8008ce0:	f7fe febc 	bl	8007a5c <memchr>
 8008ce4:	9a04      	ldr	r2, [sp, #16]
 8008ce6:	b9d8      	cbnz	r0, 8008d20 <_vfiprintf_r+0x110>
 8008ce8:	06d1      	lsls	r1, r2, #27
 8008cea:	bf44      	itt	mi
 8008cec:	2320      	movmi	r3, #32
 8008cee:	f88d 3053 	strbmi.w	r3, [sp, #83]	@ 0x53
 8008cf2:	0713      	lsls	r3, r2, #28
 8008cf4:	bf44      	itt	mi
 8008cf6:	232b      	movmi	r3, #43	@ 0x2b
 8008cf8:	f88d 3053 	strbmi.w	r3, [sp, #83]	@ 0x53
 8008cfc:	f89a 3000 	ldrb.w	r3, [sl]
 8008d00:	2b2a      	cmp	r3, #42	@ 0x2a
 8008d02:	d015      	beq.n	8008d30 <_vfiprintf_r+0x120>
 8008d04:	4654      	mov	r4, sl
 8008d06:	2000      	movs	r0, #0
 8008d08:	f04f 0c0a 	mov.w	ip, #10
 8008d0c:	9a07      	ldr	r2, [sp, #28]
 8008d0e:	4621      	mov	r1, r4
 8008d10:	f811 3b01 	ldrb.w	r3, [r1], #1
 8008d14:	3b30      	subs	r3, #48	@ 0x30
 8008d16:	2b09      	cmp	r3, #9
 8008d18:	d94b      	bls.n	8008db2 <_vfiprintf_r+0x1a2>
 8008d1a:	b1b0      	cbz	r0, 8008d4a <_vfiprintf_r+0x13a>
 8008d1c:	9207      	str	r2, [sp, #28]
 8008d1e:	e014      	b.n	8008d4a <_vfiprintf_r+0x13a>
 8008d20:	eba0 0308 	sub.w	r3, r0, r8
 8008d24:	fa09 f303 	lsl.w	r3, r9, r3
 8008d28:	4313      	orrs	r3, r2
 8008d2a:	46a2      	mov	sl, r4
 8008d2c:	9304      	str	r3, [sp, #16]
 8008d2e:	e7d2      	b.n	8008cd6 <_vfiprintf_r+0xc6>
 8008d30:	9b03      	ldr	r3, [sp, #12]
 8008d32:	1d19      	adds	r1, r3, #4
 8008d34:	681b      	ldr	r3, [r3, #0]
 8008d36:	9103      	str	r1, [sp, #12]
 8008d38:	2b00      	cmp	r3, #0
 8008d3a:	bfbb      	ittet	lt
 8008d3c:	425b      	neglt	r3, r3
 8008d3e:	f042 0202 	orrlt.w	r2, r2, #2
 8008d42:	9307      	strge	r3, [sp, #28]
 8008d44:	9307      	strlt	r3, [sp, #28]
 8008d46:	bfb8      	it	lt
 8008d48:	9204      	strlt	r2, [sp, #16]
 8008d4a:	7823      	ldrb	r3, [r4, #0]
 8008d4c:	2b2e      	cmp	r3, #46	@ 0x2e
 8008d4e:	d10a      	bne.n	8008d66 <_vfiprintf_r+0x156>
 8008d50:	7863      	ldrb	r3, [r4, #1]
 8008d52:	2b2a      	cmp	r3, #42	@ 0x2a
 8008d54:	d132      	bne.n	8008dbc <_vfiprintf_r+0x1ac>
 8008d56:	9b03      	ldr	r3, [sp, #12]
 8008d58:	3402      	adds	r4, #2
 8008d5a:	1d1a      	adds	r2, r3, #4
 8008d5c:	681b      	ldr	r3, [r3, #0]
 8008d5e:	9203      	str	r2, [sp, #12]
 8008d60:	ea43 73e3 	orr.w	r3, r3, r3, asr #31
 8008d64:	9305      	str	r3, [sp, #20]
 8008d66:	f8df a0c8 	ldr.w	sl, [pc, #200]	@ 8008e30 <_vfiprintf_r+0x220>
 8008d6a:	2203      	movs	r2, #3
 8008d6c:	4650      	mov	r0, sl
 8008d6e:	7821      	ldrb	r1, [r4, #0]
 8008d70:	f7fe fe74 	bl	8007a5c <memchr>
 8008d74:	b138      	cbz	r0, 8008d86 <_vfiprintf_r+0x176>
 8008d76:	2240      	movs	r2, #64	@ 0x40
 8008d78:	9b04      	ldr	r3, [sp, #16]
 8008d7a:	eba0 000a 	sub.w	r0, r0, sl
 8008d7e:	4082      	lsls	r2, r0
 8008d80:	4313      	orrs	r3, r2
 8008d82:	3401      	adds	r4, #1
 8008d84:	9304      	str	r3, [sp, #16]
 8008d86:	f814 1b01 	ldrb.w	r1, [r4], #1
 8008d8a:	2206      	movs	r2, #6
 8008d8c:	4829      	ldr	r0, [pc, #164]	@ (8008e34 <_vfiprintf_r+0x224>)
 8008d8e:	f88d 1028 	strb.w	r1, [sp, #40]	@ 0x28
 8008d92:	f7fe fe63 	bl	8007a5c <memchr>
 8008d96:	2800      	cmp	r0, #0
 8008d98:	d03f      	beq.n	8008e1a <_vfiprintf_r+0x20a>
 8008d9a:	4b27      	ldr	r3, [pc, #156]	@ (8008e38 <_vfiprintf_r+0x228>)
 8008d9c:	bb1b      	cbnz	r3, 8008de6 <_vfiprintf_r+0x1d6>
 8008d9e:	9b03      	ldr	r3, [sp, #12]
 8008da0:	3307      	adds	r3, #7
 8008da2:	f023 0307 	bic.w	r3, r3, #7
 8008da6:	3308      	adds	r3, #8
 8008da8:	9303      	str	r3, [sp, #12]
 8008daa:	9b09      	ldr	r3, [sp, #36]	@ 0x24
 8008dac:	443b      	add	r3, r7
 8008dae:	9309      	str	r3, [sp, #36]	@ 0x24
 8008db0:	e76a      	b.n	8008c88 <_vfiprintf_r+0x78>
 8008db2:	460c      	mov	r4, r1
 8008db4:	2001      	movs	r0, #1
 8008db6:	fb0c 3202 	mla	r2, ip, r2, r3
 8008dba:	e7a8      	b.n	8008d0e <_vfiprintf_r+0xfe>
 8008dbc:	2300      	movs	r3, #0
 8008dbe:	f04f 0c0a 	mov.w	ip, #10
 8008dc2:	4619      	mov	r1, r3
 8008dc4:	3401      	adds	r4, #1
 8008dc6:	9305      	str	r3, [sp, #20]
 8008dc8:	4620      	mov	r0, r4
 8008dca:	f810 2b01 	ldrb.w	r2, [r0], #1
 8008dce:	3a30      	subs	r2, #48	@ 0x30
 8008dd0:	2a09      	cmp	r2, #9
 8008dd2:	d903      	bls.n	8008ddc <_vfiprintf_r+0x1cc>
 8008dd4:	2b00      	cmp	r3, #0
 8008dd6:	d0c6      	beq.n	8008d66 <_vfiprintf_r+0x156>
 8008dd8:	9105      	str	r1, [sp, #20]
 8008dda:	e7c4      	b.n	8008d66 <_vfiprintf_r+0x156>
 8008ddc:	4604      	mov	r4, r0
 8008dde:	2301      	movs	r3, #1
 8008de0:	fb0c 2101 	mla	r1, ip, r1, r2
 8008de4:	e7f0      	b.n	8008dc8 <_vfiprintf_r+0x1b8>
 8008de6:	ab03      	add	r3, sp, #12
 8008de8:	9300      	str	r3, [sp, #0]
 8008dea:	462a      	mov	r2, r5
 8008dec:	4630      	mov	r0, r6
 8008dee:	4b13      	ldr	r3, [pc, #76]	@ (8008e3c <_vfiprintf_r+0x22c>)
 8008df0:	a904      	add	r1, sp, #16
 8008df2:	f3af 8000 	nop.w
 8008df6:	4607      	mov	r7, r0
 8008df8:	1c78      	adds	r0, r7, #1
 8008dfa:	d1d6      	bne.n	8008daa <_vfiprintf_r+0x19a>
 8008dfc:	6e6b      	ldr	r3, [r5, #100]	@ 0x64
 8008dfe:	07d9      	lsls	r1, r3, #31
 8008e00:	d405      	bmi.n	8008e0e <_vfiprintf_r+0x1fe>
 8008e02:	89ab      	ldrh	r3, [r5, #12]
 8008e04:	059a      	lsls	r2, r3, #22
 8008e06:	d402      	bmi.n	8008e0e <_vfiprintf_r+0x1fe>
 8008e08:	6da8      	ldr	r0, [r5, #88]	@ 0x58
 8008e0a:	f7fc ff21 	bl	8005c50 <__retarget_lock_release_recursive>
 8008e0e:	89ab      	ldrh	r3, [r5, #12]
 8008e10:	065b      	lsls	r3, r3, #25
 8008e12:	f53f af1f 	bmi.w	8008c54 <_vfiprintf_r+0x44>
 8008e16:	9809      	ldr	r0, [sp, #36]	@ 0x24
 8008e18:	e71e      	b.n	8008c58 <_vfiprintf_r+0x48>
 8008e1a:	ab03      	add	r3, sp, #12
 8008e1c:	9300      	str	r3, [sp, #0]
 8008e1e:	462a      	mov	r2, r5
 8008e20:	4630      	mov	r0, r6
 8008e22:	4b06      	ldr	r3, [pc, #24]	@ (8008e3c <_vfiprintf_r+0x22c>)
 8008e24:	a904      	add	r1, sp, #16
 8008e26:	f7fe fa59 	bl	80072dc <_printf_i>
 8008e2a:	e7e4      	b.n	8008df6 <_vfiprintf_r+0x1e6>
 8008e2c:	08009c7c 	.word	0x08009c7c
 8008e30:	08009c82 	.word	0x08009c82
 8008e34:	08009c86 	.word	0x08009c86
 8008e38:	00000000 	.word	0x00000000
 8008e3c:	08008bed 	.word	0x08008bed

08008e40 <__swbuf_r>:
 8008e40:	b5f8      	push	{r3, r4, r5, r6, r7, lr}
 8008e42:	460e      	mov	r6, r1
 8008e44:	4614      	mov	r4, r2
 8008e46:	4605      	mov	r5, r0
 8008e48:	b118      	cbz	r0, 8008e52 <__swbuf_r+0x12>
 8008e4a:	6a03      	ldr	r3, [r0, #32]
 8008e4c:	b90b      	cbnz	r3, 8008e52 <__swbuf_r+0x12>
 8008e4e:	f7fc fcb9 	bl	80057c4 <__sinit>
 8008e52:	69a3      	ldr	r3, [r4, #24]
 8008e54:	60a3      	str	r3, [r4, #8]
 8008e56:	89a3      	ldrh	r3, [r4, #12]
 8008e58:	071a      	lsls	r2, r3, #28
 8008e5a:	d501      	bpl.n	8008e60 <__swbuf_r+0x20>
 8008e5c:	6923      	ldr	r3, [r4, #16]
 8008e5e:	b943      	cbnz	r3, 8008e72 <__swbuf_r+0x32>
 8008e60:	4621      	mov	r1, r4
 8008e62:	4628      	mov	r0, r5
 8008e64:	f000 f82a 	bl	8008ebc <__swsetup_r>
 8008e68:	b118      	cbz	r0, 8008e72 <__swbuf_r+0x32>
 8008e6a:	f04f 37ff 	mov.w	r7, #4294967295
 8008e6e:	4638      	mov	r0, r7
 8008e70:	bdf8      	pop	{r3, r4, r5, r6, r7, pc}
 8008e72:	6823      	ldr	r3, [r4, #0]
 8008e74:	6922      	ldr	r2, [r4, #16]
 8008e76:	b2f6      	uxtb	r6, r6
 8008e78:	1a98      	subs	r0, r3, r2
 8008e7a:	6963      	ldr	r3, [r4, #20]
 8008e7c:	4637      	mov	r7, r6
 8008e7e:	4283      	cmp	r3, r0
 8008e80:	dc05      	bgt.n	8008e8e <__swbuf_r+0x4e>
 8008e82:	4621      	mov	r1, r4
 8008e84:	4628      	mov	r0, r5
 8008e86:	f7fe fd13 	bl	80078b0 <_fflush_r>
 8008e8a:	2800      	cmp	r0, #0
 8008e8c:	d1ed      	bne.n	8008e6a <__swbuf_r+0x2a>
 8008e8e:	68a3      	ldr	r3, [r4, #8]
 8008e90:	3b01      	subs	r3, #1
 8008e92:	60a3      	str	r3, [r4, #8]
 8008e94:	6823      	ldr	r3, [r4, #0]
 8008e96:	1c5a      	adds	r2, r3, #1
 8008e98:	6022      	str	r2, [r4, #0]
 8008e9a:	701e      	strb	r6, [r3, #0]
 8008e9c:	6962      	ldr	r2, [r4, #20]
 8008e9e:	1c43      	adds	r3, r0, #1
 8008ea0:	429a      	cmp	r2, r3
 8008ea2:	d004      	beq.n	8008eae <__swbuf_r+0x6e>
 8008ea4:	89a3      	ldrh	r3, [r4, #12]
 8008ea6:	07db      	lsls	r3, r3, #31
 8008ea8:	d5e1      	bpl.n	8008e6e <__swbuf_r+0x2e>
 8008eaa:	2e0a      	cmp	r6, #10
 8008eac:	d1df      	bne.n	8008e6e <__swbuf_r+0x2e>
 8008eae:	4621      	mov	r1, r4
 8008eb0:	4628      	mov	r0, r5
 8008eb2:	f7fe fcfd 	bl	80078b0 <_fflush_r>
 8008eb6:	2800      	cmp	r0, #0
 8008eb8:	d0d9      	beq.n	8008e6e <__swbuf_r+0x2e>
 8008eba:	e7d6      	b.n	8008e6a <__swbuf_r+0x2a>

08008ebc <__swsetup_r>:
 8008ebc:	b538      	push	{r3, r4, r5, lr}
 8008ebe:	4b29      	ldr	r3, [pc, #164]	@ (8008f64 <__swsetup_r+0xa8>)
 8008ec0:	4605      	mov	r5, r0
 8008ec2:	6818      	ldr	r0, [r3, #0]
 8008ec4:	460c      	mov	r4, r1
 8008ec6:	b118      	cbz	r0, 8008ed0 <__swsetup_r+0x14>
 8008ec8:	6a03      	ldr	r3, [r0, #32]
 8008eca:	b90b      	cbnz	r3, 8008ed0 <__swsetup_r+0x14>
 8008ecc:	f7fc fc7a 	bl	80057c4 <__sinit>
 8008ed0:	f9b4 300c 	ldrsh.w	r3, [r4, #12]
 8008ed4:	0719      	lsls	r1, r3, #28
 8008ed6:	d422      	bmi.n	8008f1e <__swsetup_r+0x62>
 8008ed8:	06da      	lsls	r2, r3, #27
 8008eda:	d407      	bmi.n	8008eec <__swsetup_r+0x30>
 8008edc:	2209      	movs	r2, #9
 8008ede:	602a      	str	r2, [r5, #0]
 8008ee0:	f043 0340 	orr.w	r3, r3, #64	@ 0x40
 8008ee4:	f04f 30ff 	mov.w	r0, #4294967295
 8008ee8:	81a3      	strh	r3, [r4, #12]
 8008eea:	e033      	b.n	8008f54 <__swsetup_r+0x98>
 8008eec:	0758      	lsls	r0, r3, #29
 8008eee:	d512      	bpl.n	8008f16 <__swsetup_r+0x5a>
 8008ef0:	6b61      	ldr	r1, [r4, #52]	@ 0x34
 8008ef2:	b141      	cbz	r1, 8008f06 <__swsetup_r+0x4a>
 8008ef4:	f104 0344 	add.w	r3, r4, #68	@ 0x44
 8008ef8:	4299      	cmp	r1, r3
 8008efa:	d002      	beq.n	8008f02 <__swsetup_r+0x46>
 8008efc:	4628      	mov	r0, r5
 8008efe:	f7fc fed9 	bl	8005cb4 <_free_r>
 8008f02:	2300      	movs	r3, #0
 8008f04:	6363      	str	r3, [r4, #52]	@ 0x34
 8008f06:	89a3      	ldrh	r3, [r4, #12]
 8008f08:	f023 0324 	bic.w	r3, r3, #36	@ 0x24
 8008f0c:	81a3      	strh	r3, [r4, #12]
 8008f0e:	2300      	movs	r3, #0
 8008f10:	6063      	str	r3, [r4, #4]
 8008f12:	6923      	ldr	r3, [r4, #16]
 8008f14:	6023      	str	r3, [r4, #0]
 8008f16:	89a3      	ldrh	r3, [r4, #12]
 8008f18:	f043 0308 	orr.w	r3, r3, #8
 8008f1c:	81a3      	strh	r3, [r4, #12]
 8008f1e:	6923      	ldr	r3, [r4, #16]
 8008f20:	b94b      	cbnz	r3, 8008f36 <__swsetup_r+0x7a>
 8008f22:	89a3      	ldrh	r3, [r4, #12]
 8008f24:	f403 7320 	and.w	r3, r3, #640	@ 0x280
 8008f28:	f5b3 7f00 	cmp.w	r3, #512	@ 0x200
 8008f2c:	d003      	beq.n	8008f36 <__swsetup_r+0x7a>
 8008f2e:	4621      	mov	r1, r4
 8008f30:	4628      	mov	r0, r5
 8008f32:	f000 f89e 	bl	8009072 <__smakebuf_r>
 8008f36:	f9b4 300c 	ldrsh.w	r3, [r4, #12]
 8008f3a:	f013 0201 	ands.w	r2, r3, #1
 8008f3e:	d00a      	beq.n	8008f56 <__swsetup_r+0x9a>
 8008f40:	2200      	movs	r2, #0
 8008f42:	60a2      	str	r2, [r4, #8]
 8008f44:	6962      	ldr	r2, [r4, #20]
 8008f46:	4252      	negs	r2, r2
 8008f48:	61a2      	str	r2, [r4, #24]
 8008f4a:	6922      	ldr	r2, [r4, #16]
 8008f4c:	b942      	cbnz	r2, 8008f60 <__swsetup_r+0xa4>
 8008f4e:	f013 0080 	ands.w	r0, r3, #128	@ 0x80
 8008f52:	d1c5      	bne.n	8008ee0 <__swsetup_r+0x24>
 8008f54:	bd38      	pop	{r3, r4, r5, pc}
 8008f56:	0799      	lsls	r1, r3, #30
 8008f58:	bf58      	it	pl
 8008f5a:	6962      	ldrpl	r2, [r4, #20]
 8008f5c:	60a2      	str	r2, [r4, #8]
 8008f5e:	e7f4      	b.n	8008f4a <__swsetup_r+0x8e>
 8008f60:	2000      	movs	r0, #0
 8008f62:	e7f7      	b.n	8008f54 <__swsetup_r+0x98>
 8008f64:	2000001c 	.word	0x2000001c

08008f68 <_raise_r>:
 8008f68:	291f      	cmp	r1, #31
 8008f6a:	b538      	push	{r3, r4, r5, lr}
 8008f6c:	4605      	mov	r5, r0
 8008f6e:	460c      	mov	r4, r1
 8008f70:	d904      	bls.n	8008f7c <_raise_r+0x14>
 8008f72:	2316      	movs	r3, #22
 8008f74:	6003      	str	r3, [r0, #0]
 8008f76:	f04f 30ff 	mov.w	r0, #4294967295
 8008f7a:	bd38      	pop	{r3, r4, r5, pc}
 8008f7c:	6bc2      	ldr	r2, [r0, #60]	@ 0x3c
 8008f7e:	b112      	cbz	r2, 8008f86 <_raise_r+0x1e>
 8008f80:	f852 3021 	ldr.w	r3, [r2, r1, lsl #2]
 8008f84:	b94b      	cbnz	r3, 8008f9a <_raise_r+0x32>
 8008f86:	4628      	mov	r0, r5
 8008f88:	f000 f830 	bl	8008fec <_getpid_r>
 8008f8c:	4622      	mov	r2, r4
 8008f8e:	4601      	mov	r1, r0
 8008f90:	4628      	mov	r0, r5
 8008f92:	e8bd 4038 	ldmia.w	sp!, {r3, r4, r5, lr}
 8008f96:	f000 b817 	b.w	8008fc8 <_kill_r>
 8008f9a:	2b01      	cmp	r3, #1
 8008f9c:	d00a      	beq.n	8008fb4 <_raise_r+0x4c>
 8008f9e:	1c59      	adds	r1, r3, #1
 8008fa0:	d103      	bne.n	8008faa <_raise_r+0x42>
 8008fa2:	2316      	movs	r3, #22
 8008fa4:	6003      	str	r3, [r0, #0]
 8008fa6:	2001      	movs	r0, #1
 8008fa8:	e7e7      	b.n	8008f7a <_raise_r+0x12>
 8008faa:	2100      	movs	r1, #0
 8008fac:	4620      	mov	r0, r4
 8008fae:	f842 1024 	str.w	r1, [r2, r4, lsl #2]
 8008fb2:	4798      	blx	r3
 8008fb4:	2000      	movs	r0, #0
 8008fb6:	e7e0      	b.n	8008f7a <_raise_r+0x12>

08008fb8 <raise>:
 8008fb8:	4b02      	ldr	r3, [pc, #8]	@ (8008fc4 <raise+0xc>)
 8008fba:	4601      	mov	r1, r0
 8008fbc:	6818      	ldr	r0, [r3, #0]
 8008fbe:	f7ff bfd3 	b.w	8008f68 <_raise_r>
 8008fc2:	bf00      	nop
 8008fc4:	2000001c 	.word	0x2000001c

08008fc8 <_kill_r>:
 8008fc8:	b538      	push	{r3, r4, r5, lr}
 8008fca:	2300      	movs	r3, #0
 8008fcc:	4d06      	ldr	r5, [pc, #24]	@ (8008fe8 <_kill_r+0x20>)
 8008fce:	4604      	mov	r4, r0
 8008fd0:	4608      	mov	r0, r1
 8008fd2:	4611      	mov	r1, r2
 8008fd4:	602b      	str	r3, [r5, #0]
 8008fd6:	f7f8 ff47 	bl	8001e68 <_kill>
 8008fda:	1c43      	adds	r3, r0, #1
 8008fdc:	d102      	bne.n	8008fe4 <_kill_r+0x1c>
 8008fde:	682b      	ldr	r3, [r5, #0]
 8008fe0:	b103      	cbz	r3, 8008fe4 <_kill_r+0x1c>
 8008fe2:	6023      	str	r3, [r4, #0]
 8008fe4:	bd38      	pop	{r3, r4, r5, pc}
 8008fe6:	bf00      	nop
 8008fe8:	200020f4 	.word	0x200020f4

08008fec <_getpid_r>:
 8008fec:	f7f8 bf3a 	b.w	8001e64 <_getpid>

08008ff0 <_calloc_r>:
 8008ff0:	b570      	push	{r4, r5, r6, lr}
 8008ff2:	fba1 5402 	umull	r5, r4, r1, r2
 8008ff6:	b934      	cbnz	r4, 8009006 <_calloc_r+0x16>
 8008ff8:	4629      	mov	r1, r5
 8008ffa:	f7fc fecd 	bl	8005d98 <_malloc_r>
 8008ffe:	4606      	mov	r6, r0
 8009000:	b928      	cbnz	r0, 800900e <_calloc_r+0x1e>
 8009002:	4630      	mov	r0, r6
 8009004:	bd70      	pop	{r4, r5, r6, pc}
 8009006:	220c      	movs	r2, #12
 8009008:	2600      	movs	r6, #0
 800900a:	6002      	str	r2, [r0, #0]
 800900c:	e7f9      	b.n	8009002 <_calloc_r+0x12>
 800900e:	462a      	mov	r2, r5
 8009010:	4621      	mov	r1, r4
 8009012:	f7fc fca0 	bl	8005956 <memset>
 8009016:	e7f4      	b.n	8009002 <_calloc_r+0x12>

08009018 <_malloc_usable_size_r>:
 8009018:	f851 3c04 	ldr.w	r3, [r1, #-4]
 800901c:	1f18      	subs	r0, r3, #4
 800901e:	2b00      	cmp	r3, #0
 8009020:	bfbc      	itt	lt
 8009022:	580b      	ldrlt	r3, [r1, r0]
 8009024:	18c0      	addlt	r0, r0, r3
 8009026:	4770      	bx	lr

08009028 <__swhatbuf_r>:
 8009028:	b570      	push	{r4, r5, r6, lr}
 800902a:	460c      	mov	r4, r1
 800902c:	f9b1 100e 	ldrsh.w	r1, [r1, #14]
 8009030:	4615      	mov	r5, r2
 8009032:	2900      	cmp	r1, #0
 8009034:	461e      	mov	r6, r3
 8009036:	b096      	sub	sp, #88	@ 0x58
 8009038:	da0c      	bge.n	8009054 <__swhatbuf_r+0x2c>
 800903a:	89a3      	ldrh	r3, [r4, #12]
 800903c:	2100      	movs	r1, #0
 800903e:	f013 0f80 	tst.w	r3, #128	@ 0x80
 8009042:	bf14      	ite	ne
 8009044:	2340      	movne	r3, #64	@ 0x40
 8009046:	f44f 6380 	moveq.w	r3, #1024	@ 0x400
 800904a:	2000      	movs	r0, #0
 800904c:	6031      	str	r1, [r6, #0]
 800904e:	602b      	str	r3, [r5, #0]
 8009050:	b016      	add	sp, #88	@ 0x58
 8009052:	bd70      	pop	{r4, r5, r6, pc}
 8009054:	466a      	mov	r2, sp
 8009056:	f000 f849 	bl	80090ec <_fstat_r>
 800905a:	2800      	cmp	r0, #0
 800905c:	dbed      	blt.n	800903a <__swhatbuf_r+0x12>
 800905e:	9901      	ldr	r1, [sp, #4]
 8009060:	f401 4170 	and.w	r1, r1, #61440	@ 0xf000
 8009064:	f5a1 5300 	sub.w	r3, r1, #8192	@ 0x2000
 8009068:	4259      	negs	r1, r3
 800906a:	4159      	adcs	r1, r3
 800906c:	f44f 6380 	mov.w	r3, #1024	@ 0x400
 8009070:	e7eb      	b.n	800904a <__swhatbuf_r+0x22>

08009072 <__smakebuf_r>:
 8009072:	898b      	ldrh	r3, [r1, #12]
 8009074:	b5f7      	push	{r0, r1, r2, r4, r5, r6, r7, lr}
 8009076:	079d      	lsls	r5, r3, #30
 8009078:	4606      	mov	r6, r0
 800907a:	460c      	mov	r4, r1
 800907c:	d507      	bpl.n	800908e <__smakebuf_r+0x1c>
 800907e:	f104 0347 	add.w	r3, r4, #71	@ 0x47
 8009082:	6023      	str	r3, [r4, #0]
 8009084:	6123      	str	r3, [r4, #16]
 8009086:	2301      	movs	r3, #1
 8009088:	6163      	str	r3, [r4, #20]
 800908a:	b003      	add	sp, #12
 800908c:	bdf0      	pop	{r4, r5, r6, r7, pc}
 800908e:	466a      	mov	r2, sp
 8009090:	ab01      	add	r3, sp, #4
 8009092:	f7ff ffc9 	bl	8009028 <__swhatbuf_r>
 8009096:	9f00      	ldr	r7, [sp, #0]
 8009098:	4605      	mov	r5, r0
 800909a:	4639      	mov	r1, r7
 800909c:	4630      	mov	r0, r6
 800909e:	f7fc fe7b 	bl	8005d98 <_malloc_r>
 80090a2:	b948      	cbnz	r0, 80090b8 <__smakebuf_r+0x46>
 80090a4:	f9b4 300c 	ldrsh.w	r3, [r4, #12]
 80090a8:	059a      	lsls	r2, r3, #22
 80090aa:	d4ee      	bmi.n	800908a <__smakebuf_r+0x18>
 80090ac:	f023 0303 	bic.w	r3, r3, #3
 80090b0:	f043 0302 	orr.w	r3, r3, #2
 80090b4:	81a3      	strh	r3, [r4, #12]
 80090b6:	e7e2      	b.n	800907e <__smakebuf_r+0xc>
 80090b8:	89a3      	ldrh	r3, [r4, #12]
 80090ba:	e9c4 0704 	strd	r0, r7, [r4, #16]
 80090be:	f043 0380 	orr.w	r3, r3, #128	@ 0x80
 80090c2:	81a3      	strh	r3, [r4, #12]
 80090c4:	9b01      	ldr	r3, [sp, #4]
 80090c6:	6020      	str	r0, [r4, #0]
 80090c8:	b15b      	cbz	r3, 80090e2 <__smakebuf_r+0x70>
 80090ca:	4630      	mov	r0, r6
 80090cc:	f9b4 100e 	ldrsh.w	r1, [r4, #14]
 80090d0:	f000 f81e 	bl	8009110 <_isatty_r>
 80090d4:	b128      	cbz	r0, 80090e2 <__smakebuf_r+0x70>
 80090d6:	89a3      	ldrh	r3, [r4, #12]
 80090d8:	f023 0303 	bic.w	r3, r3, #3
 80090dc:	f043 0301 	orr.w	r3, r3, #1
 80090e0:	81a3      	strh	r3, [r4, #12]
 80090e2:	89a3      	ldrh	r3, [r4, #12]
 80090e4:	431d      	orrs	r5, r3
 80090e6:	81a5      	strh	r5, [r4, #12]
 80090e8:	e7cf      	b.n	800908a <__smakebuf_r+0x18>
	...

080090ec <_fstat_r>:
 80090ec:	b538      	push	{r3, r4, r5, lr}
 80090ee:	2300      	movs	r3, #0
 80090f0:	4d06      	ldr	r5, [pc, #24]	@ (800910c <_fstat_r+0x20>)
 80090f2:	4604      	mov	r4, r0
 80090f4:	4608      	mov	r0, r1
 80090f6:	4611      	mov	r1, r2
 80090f8:	602b      	str	r3, [r5, #0]
 80090fa:	f7f8 fee2 	bl	8001ec2 <_fstat>
 80090fe:	1c43      	adds	r3, r0, #1
 8009100:	d102      	bne.n	8009108 <_fstat_r+0x1c>
 8009102:	682b      	ldr	r3, [r5, #0]
 8009104:	b103      	cbz	r3, 8009108 <_fstat_r+0x1c>
 8009106:	6023      	str	r3, [r4, #0]
 8009108:	bd38      	pop	{r3, r4, r5, pc}
 800910a:	bf00      	nop
 800910c:	200020f4 	.word	0x200020f4

08009110 <_isatty_r>:
 8009110:	b538      	push	{r3, r4, r5, lr}
 8009112:	2300      	movs	r3, #0
 8009114:	4d05      	ldr	r5, [pc, #20]	@ (800912c <_isatty_r+0x1c>)
 8009116:	4604      	mov	r4, r0
 8009118:	4608      	mov	r0, r1
 800911a:	602b      	str	r3, [r5, #0]
 800911c:	f7f8 fed6 	bl	8001ecc <_isatty>
 8009120:	1c43      	adds	r3, r0, #1
 8009122:	d102      	bne.n	800912a <_isatty_r+0x1a>
 8009124:	682b      	ldr	r3, [r5, #0]
 8009126:	b103      	cbz	r3, 800912a <_isatty_r+0x1a>
 8009128:	6023      	str	r3, [r4, #0]
 800912a:	bd38      	pop	{r3, r4, r5, pc}
 800912c:	200020f4 	.word	0x200020f4

08009130 <_init>:
 8009130:	b5f8      	push	{r3, r4, r5, r6, r7, lr}
 8009132:	bf00      	nop
 8009134:	bcf8      	pop	{r3, r4, r5, r6, r7}
 8009136:	bc08      	pop	{r3}
 8009138:	469e      	mov	lr, r3
 800913a:	4770      	bx	lr

0800913c <_fini>:
 800913c:	b5f8      	push	{r3, r4, r5, r6, r7, lr}
 800913e:	bf00      	nop
 8009140:	bcf8      	pop	{r3, r4, r5, r6, r7}
 8009142:	bc08      	pop	{r3}
 8009144:	469e      	mov	lr, r3
 8009146:	4770      	bx	lr
